	.arch armv8-a
	.text
Ltext0:
	.align	2
	.globl __ZSt21is_constant_evaluatedv
	.weak_definition __ZSt21is_constant_evaluatedv
__ZSt21is_constant_evaluatedv:
LFB300:
	.file 1 "/opt/homebrew/Cellar/gcc/11.2.0/include/c++/11.1.0/type_traits"
	.loc 1 3316 3
	.loc 1 3316 44
	mov	w0, 0
	.loc 1 3316 47
	ret
LFE300:
	.align	2
	.globl __ZnwmPv
	.weak_definition __ZnwmPv
__ZnwmPv:
LFB462:
	.file 2 "/opt/homebrew/Cellar/gcc/11.2.0/include/c++/11.1.0/new"
	.loc 2 175 1
	sub	sp, sp, #16
LCFI0:
	str	x0, [sp, 8]
	str	x1, [sp]
	.loc 2 175 10
	ldr	x0, [sp]
	.loc 2 175 15
	add	sp, sp, 16
LCFI1:
	ret
LFE462:
	.align	2
	.globl __ZdlPvS_
	.weak_definition __ZdlPvS_
__ZdlPvS_:
LFB464:
	.loc 2 180 67
	sub	sp, sp, #16
LCFI2:
	str	x0, [sp, 8]
	str	x1, [sp]
	.loc 2 180 69
	nop
	add	sp, sp, 16
LCFI3:
	ret
LFE464:
	.align	2
	.globl __ZNSt11char_traitsIcE6assignERcRKc
	.weak_definition __ZNSt11char_traitsIcE6assignERcRKc
__ZNSt11char_traitsIcE6assignERcRKc:
LFB1271:
	.file 3 "/opt/homebrew/Cellar/gcc/11.2.0/include/c++/11.1.0/bits/char_traits.h"
	.loc 3 328 7
	sub	sp, sp, #16
LCFI4:
	str	x0, [sp, 8]
	str	x1, [sp]
	.loc 3 329 16
	ldr	x0, [sp]
	ldrsb	w1, [x0]
	.loc 3 329 14
	ldr	x0, [sp, 8]
	strb	w1, [x0]
	.loc 3 329 22
	nop
	add	sp, sp, 16
LCFI5:
	ret
LFE1271:
	.align	2
	.globl __ZNSt11char_traitsIcE6lengthEPKc
	.weak_definition __ZNSt11char_traitsIcE6lengthEPKc
__ZNSt11char_traitsIcE6lengthEPKc:
LFB1276:
	.loc 3 365 7
	stp	x29, x30, [sp, -48]!
LCFI6:
	mov	x29, sp
	str	x0, [sp, 24]
	ldr	x0, [sp, 24]
	str	x0, [sp, 40]
LBB16:
LBB17:
	.loc 3 262 46
	mov	w0, 0
LBE17:
LBE16:
	.loc 3 368 2
	cmp	w0, 0
	beq	L9
	.loc 3 369 52
	ldr	x0, [sp, 24]
	bl	__ZN9__gnu_cxx11char_traitsIcE6lengthEPKc
	.loc 3 369 56
	b	L10
L9:
	.loc 3 371 25
	ldr	x0, [sp, 24]
	bl	_strlen
	.loc 3 371 29
	nop
L10:
	.loc 3 372 7
	ldp	x29, x30, [sp], 48
LCFI7:
	ret
LFE1276:
	.align	2
	.globl __ZNSt11char_traitsIcE4copyEPcPKcm
	.weak_definition __ZNSt11char_traitsIcE4copyEPcPKcm
__ZNSt11char_traitsIcE4copyEPcPKcm:
LFB1280:
	.loc 3 401 7
	stp	x29, x30, [sp, -48]!
LCFI8:
	mov	x29, sp
	str	x0, [sp, 40]
	str	x1, [sp, 32]
	str	x2, [sp, 24]
	.loc 3 403 2
	ldr	x0, [sp, 24]
	cmp	x0, 0
	bne	L12
	.loc 3 404 11
	ldr	x0, [sp, 40]
	b	L13
L12:
	.loc 3 406 32
	bl	__ZSt21is_constant_evaluatedv
	and	w0, w0, 255
	.loc 3 406 2
	cmp	w0, 0
	beq	L14
	.loc 3 407 50
	ldr	x2, [sp, 24]
	ldr	x1, [sp, 32]
	ldr	x0, [sp, 40]
	bl	__ZN9__gnu_cxx11char_traitsIcE4copyEPcPKcm
	.loc 3 407 66
	b	L13
L14:
	.loc 3 409 49
	ldr	x1, [sp, 40]
	ldr	x0, [sp, 32]
	mov	x3, x1
	mov	x1, x0
	ldr	x0, [sp, 24]
	mov	x2, x0
	mov	x0, x3
	bl	_memcpy
	.loc 3 409 66
	nop
L13:
	.loc 3 410 7
	ldp	x29, x30, [sp], 48
LCFI9:
	ret
LFE1280:
	.align	2
	.globl __ZSt3minImERKT_S2_S2_
	.weak_definition __ZSt3minImERKT_S2_S2_
__ZSt3minImERKT_S2_S2_:
LFB3914:
	.file 4 "/opt/homebrew/Cellar/gcc/11.2.0/include/c++/11.1.0/bits/stl_algobase.h"
	.loc 4 230 5
	sub	sp, sp, #16
LCFI10:
	str	x0, [sp, 8]
	str	x1, [sp]
	.loc 4 235 15
	ldr	x0, [sp]
	ldr	x1, [x0]
	ldr	x0, [sp, 8]
	ldr	x0, [x0]
	.loc 4 235 7
	cmp	x1, x0
	bcs	L16
	.loc 4 236 9
	ldr	x0, [sp]
	b	L17
L16:
	.loc 4 237 14
	ldr	x0, [sp, 8]
L17:
	.loc 4 238 5
	add	sp, sp, 16
LCFI11:
	ret
LFE3914:
	.const
	.align	3
__ZN6__pstl9execution2v1L3seqE:
	.space 1
	.align	3
__ZN6__pstl9execution2v1L3parE:
	.space 1
	.align	3
__ZN6__pstl9execution2v1L9par_unseqE:
	.space 1
	.align	3
__ZN6__pstl9execution2v1L5unseqE:
	.space 1
	.zerofill __DATA,__bss,__ZStL8__ioinit,1,3
	.const
	.align	2
__ZN9__gnu_cxxL21__default_lock_policyE:
	.word	2
	.align	3
__ZNSt8__detailL25__platform_wait_alignmentE:
	.xword	8
	.align	2
__ZNSt8__detailL21__atomic_spin_count_1E:
	.word	12
	.align	2
__ZNSt8__detailL21__atomic_spin_count_2E:
	.word	4
	.align	2
__ZNSt15regex_constantsL13error_collateE:
	.space 4
	.align	2
__ZNSt15regex_constantsL11error_ctypeE:
	.word	1
	.align	2
__ZNSt15regex_constantsL12error_escapeE:
	.word	2
	.align	2
__ZNSt15regex_constantsL13error_backrefE:
	.word	3
	.align	2
__ZNSt15regex_constantsL11error_brackE:
	.word	4
	.align	2
__ZNSt15regex_constantsL11error_parenE:
	.word	5
	.align	2
__ZNSt15regex_constantsL11error_braceE:
	.word	6
	.align	2
__ZNSt15regex_constantsL14error_badbraceE:
	.word	7
	.align	2
__ZNSt15regex_constantsL11error_rangeE:
	.word	8
	.align	2
__ZNSt15regex_constantsL11error_spaceE:
	.word	9
	.align	2
__ZNSt15regex_constantsL15error_badrepeatE:
	.word	10
	.align	2
__ZNSt15regex_constantsL16error_complexityE:
	.word	11
	.align	2
__ZNSt15regex_constantsL11error_stackE:
	.word	12
	.align	3
__ZNSt8__detailL19_S_invalid_state_idE:
	.xword	-1
	.text
	.align	2
	.globl __ZNSt12_Vector_baseIiSaIiEE12_Vector_implD1Ev
	.weak_definition __ZNSt12_Vector_baseIiSaIiEE12_Vector_implD1Ev
__ZNSt12_Vector_baseIiSaIiEE12_Vector_implD1Ev:
LFB11590:
	.file 5 "/opt/homebrew/Cellar/gcc/11.2.0/include/c++/11.1.0/bits/stl_vector.h"
	.loc 5 128 14
	stp	x29, x30, [sp, -32]!
LCFI12:
	mov	x29, sp
	str	x0, [sp, 24]
LBB18:
	.loc 5 128 14
	ldr	x0, [sp, 24]
	bl	__ZNSaIiED2Ev
LBE18:
	nop
	ldp	x29, x30, [sp], 32
LCFI13:
	ret
LFE11590:
	.align	2
	.globl __ZNSt12_Vector_baseIiSaIiEEC2Ev
	.weak_definition __ZNSt12_Vector_baseIiSaIiEEC2Ev
__ZNSt12_Vector_baseIiSaIiEEC2Ev:
LFB11591:
	.loc 5 288 7
	stp	x29, x30, [sp, -32]!
LCFI14:
	mov	x29, sp
	str	x0, [sp, 24]
LBB19:
	.loc 5 288 7
	ldr	x0, [sp, 24]
	bl	__ZNSt12_Vector_baseIiSaIiEE12_Vector_implC1Ev
LBE19:
	nop
	ldp	x29, x30, [sp], 32
LCFI15:
	ret
LFE11591:
	.align	2
	.globl __ZNSt6vectorIiSaIiEEC1Ev
	.weak_definition __ZNSt6vectorIiSaIiEEC1Ev
__ZNSt6vectorIiSaIiEEC1Ev:
LFB11594:
	.loc 5 487 7
	stp	x29, x30, [sp, -32]!
LCFI16:
	mov	x29, sp
	str	x0, [sp, 24]
LBB20:
	.loc 5 487 7
	ldr	x0, [sp, 24]
	bl	__ZNSt12_Vector_baseIiSaIiEEC2Ev
LBE20:
	nop
	ldp	x29, x30, [sp], 32
LCFI17:
	ret
LFE11594:
	.align	2
	.globl __Z5rangex
__Z5rangex:
LFB11584:
	.file 6 "/Users/gera/pony/range.hpp"
	.loc 6 63 22
	stp	x29, x30, [sp, -80]!
LCFI18:
	mov	x29, sp
	stp	x19, x20, [sp, 16]
LCFI19:
	mov	x19, x8
	str	x0, [sp, 40]
	.loc 6 64 10
	str	xzr, [sp, 64]
	.loc 6 64 14
	mov	x0, 1
	str	x0, [sp, 56]
	.loc 6 65 19
	mov	x0, x19
	bl	__ZNSt6vectorIiSaIiEEC1Ev
LBB21:
	.loc 6 66 12
	ldr	x0, [sp, 64]
	str	x0, [sp, 72]
	.loc 6 66 2
	b	L22
L25:
	.loc 6 67 14
	ldr	x0, [sp, 72]
	str	w0, [sp, 52]
	add	x0, sp, 52
	mov	x1, x0
	mov	x0, x19
LEHB0:
	bl	__ZNSt6vectorIiSaIiEE9push_backEOi
LEHE0:
	.loc 6 66 47
	ldr	x1, [sp, 72]
	ldr	x0, [sp, 56]
	add	x0, x1, x0
	str	x0, [sp, 72]
L22:
	.loc 6 66 29
	ldr	x0, [sp, 56]
	cmp	x0, 0
	blt	L23
	.loc 6 66 21
	ldr	x1, [sp, 72]
	ldr	x0, [sp, 40]
	cmp	x1, x0
	bge	L29
L23:
	.loc 6 66 29
	ldr	x0, [sp, 56]
	cmp	x0, 0
	bgt	L25
	.loc 6 66 38
	ldr	x1, [sp, 72]
	ldr	x0, [sp, 40]
	cmp	x1, x0
	bgt	L25
LBE21:
	.loc 6 69 9
	b	L29
L28:
	.loc 6 70 1
	mov	x20, x0
	mov	x0, x19
	bl	__ZNSt6vectorIiSaIiEED1Ev
	mov	x0, x20
LEHB1:
	bl	__Unwind_Resume
LEHE1:
L29:
	.loc 6 69 9
	nop
	.loc 6 70 1
	mov	x0, x19
	ldp	x19, x20, [sp, 16]
	ldp	x29, x30, [sp], 80
LCFI20:
	ret
LFE11584:
	.section __DATA,__gcc_except_tab
_GCC_except_table0:
LLSDA11584:
	.byte	0xff
	.byte	0xff
	.byte	0x1
	.uleb128 LLSDACSE11584-LLSDACSB11584
LLSDACSB11584:
	.uleb128 LEHB0-LFB11584
	.uleb128 LEHE0-LEHB0
	.uleb128 L28-LFB11584
	.uleb128 0
	.uleb128 LEHB1-LFB11584
	.uleb128 LEHE1-LEHB1
	.uleb128 0
	.uleb128 0
LLSDACSE11584:
	.text
	.align	2
	.globl __Z5rangexxx
__Z5rangexxx:
LFB11601:
	.loc 6 71 44
	stp	x29, x30, [sp, -80]!
LCFI21:
	mov	x29, sp
	stp	x19, x20, [sp, 16]
LCFI22:
	mov	x19, x8
	str	x0, [sp, 56]
	str	x1, [sp, 48]
	str	x2, [sp, 40]
	.loc 6 72 19
	mov	x0, x19
	bl	__ZNSt6vectorIiSaIiEEC1Ev
LBB22:
	.loc 6 73 12
	ldr	x0, [sp, 56]
	str	x0, [sp, 72]
	.loc 6 73 2
	b	L31
L34:
	.loc 6 74 14
	ldr	x0, [sp, 72]
	str	w0, [sp, 68]
	add	x0, sp, 68
	mov	x1, x0
	mov	x0, x19
LEHB2:
	bl	__ZNSt6vectorIiSaIiEE9push_backEOi
LEHE2:
	.loc 6 73 47
	ldr	x1, [sp, 72]
	ldr	x0, [sp, 40]
	add	x0, x1, x0
	str	x0, [sp, 72]
L31:
	.loc 6 73 29
	ldr	x0, [sp, 40]
	cmp	x0, 0
	blt	L32
	.loc 6 73 21
	ldr	x1, [sp, 72]
	ldr	x0, [sp, 48]
	cmp	x1, x0
	bge	L38
L32:
	.loc 6 73 29
	ldr	x0, [sp, 40]
	cmp	x0, 0
	bgt	L34
	.loc 6 73 38
	ldr	x1, [sp, 72]
	ldr	x0, [sp, 48]
	cmp	x1, x0
	bgt	L34
LBE22:
	.loc 6 76 9
	b	L38
L37:
	.loc 6 77 1
	mov	x20, x0
	mov	x0, x19
	bl	__ZNSt6vectorIiSaIiEED1Ev
	mov	x0, x20
LEHB3:
	bl	__Unwind_Resume
LEHE3:
L38:
	.loc 6 76 9
	nop
	.loc 6 77 1
	mov	x0, x19
	ldp	x19, x20, [sp, 16]
	ldp	x29, x30, [sp], 80
LCFI23:
	ret
LFE11601:
	.section __DATA,__gcc_except_tab
_GCC_except_table1:
LLSDA11601:
	.byte	0xff
	.byte	0xff
	.byte	0x1
	.uleb128 LLSDACSE11601-LLSDACSB11601
LLSDACSB11601:
	.uleb128 LEHB2-LFB11601
	.uleb128 LEHE2-LEHB2
	.uleb128 L37-LFB11601
	.uleb128 0
	.uleb128 LEHB3-LFB11601
	.uleb128 LEHE3-LEHB3
	.uleb128 0
	.uleb128 0
LLSDACSE11601:
	.text
	.cstring
	.align	3
lC0:
	.ascii "True\0"
	.align	3
lC1:
	.ascii "False\0"
	.text
	.align	2
	.globl __Z9print_oneB5cxx11RKb
__Z9print_oneB5cxx11RKb:
LFB11604:
	.file 7 "/Users/gera/pony/func.hpp"
	.loc 7 1 29
	stp	x29, x30, [sp, -448]!
LCFI24:
	mov	x29, sp
	str	x19, [sp, 16]
LCFI25:
	mov	x19, x8
	str	x0, [sp, 40]
	.loc 7 2 20
	add	x0, sp, 56
LEHB4:
	bl	__ZNSt7__cxx1118basic_stringstreamIcSt11char_traitsIcESaIcEEC1Ev
LEHE4:
	.loc 7 3 6
	ldr	x0, [sp, 40]
	ldrb	w0, [x0]
	.loc 7 3 22
	cmp	w0, 0
	beq	L40
	.loc 7 3 22 is_stmt 0
	adrp	x0, lC0@GOTPAGE
	ldr	x0, [x0, lC0@GOTPAGEOFF];momd
	b	L41
L40:
	.loc 7 3 22
	adrp	x0, lC1@GOTPAGE
	ldr	x0, [x0, lC1@GOTPAGEOFF];momd
L41:
	.loc 7 3 22
	add	x1, sp, 56
	add	x2, x1, 16
	mov	x1, x0
	mov	x0, x2
LEHB5:
	bl	__ZStlsISt11char_traitsIcEERSt13basic_ostreamIcT_ES5_PKc
	.loc 7 4 15 is_stmt 1
	add	x0, sp, 56
	mov	x8, x19
	bl	__ZNKRSt7__cxx1118basic_stringstreamIcSt11char_traitsIcESaIcEE3strEv
LEHE5:
	nop
	.loc 7 5 1
	add	x0, sp, 56
	bl	__ZNSt7__cxx1118basic_stringstreamIcSt11char_traitsIcESaIcEED1Ev
	.loc 7 4 15
	b	L45
L44:
	.loc 7 5 1
	mov	x19, x0
	add	x0, sp, 56
	bl	__ZNSt7__cxx1118basic_stringstreamIcSt11char_traitsIcESaIcEED1Ev
	mov	x0, x19
LEHB6:
	bl	__Unwind_Resume
LEHE6:
L45:
	mov	x0, x19
	ldr	x19, [sp, 16]
	ldp	x29, x30, [sp], 448
LCFI26:
	ret
LFE11604:
	.section __DATA,__gcc_except_tab
_GCC_except_table2:
LLSDA11604:
	.byte	0xff
	.byte	0xff
	.byte	0x1
	.uleb128 LLSDACSE11604-LLSDACSB11604
LLSDACSB11604:
	.uleb128 LEHB4-LFB11604
	.uleb128 LEHE4-LEHB4
	.uleb128 0
	.uleb128 0
	.uleb128 LEHB5-LFB11604
	.uleb128 LEHE5-LEHB5
	.uleb128 L44-LFB11604
	.uleb128 0
	.uleb128 LEHB6-LFB11604
	.uleb128 LEHE6-LEHB6
	.uleb128 0
	.uleb128 0
LLSDACSE11604:
	.text
	.align	2
	.globl __Z6randomxx
__Z6randomxx:
LFB11615:
	.loc 7 142 77
	stp	x29, x30, [sp, -32]!
LCFI27:
	mov	x29, sp
	str	x0, [sp, 24]
	str	x1, [sp, 16]
	.loc 7 143 2
	ldr	x1, [sp, 16]
	ldr	x0, [sp, 24]
	cmp	x1, x0
	bge	L47
	.loc 7 144 4
	ldr	x0, [sp, 24]
	str	x0, [sp, 16]
	.loc 7 145 4
	str	xzr, [sp, 24]
L47:
	.loc 7 147 13
	bl	_rand
	sxtw	x0, w0
	.loc 7 147 18
	ldr	x2, [sp, 16]
	ldr	x1, [sp, 24]
	sub	x1, x2, x1
	.loc 7 147 15
	sdiv	x2, x0, x1
	mul	x1, x2, x1
	sub	x1, x0, x1
	.loc 7 147 22
	ldr	x0, [sp, 24]
	add	x0, x1, x0
	.loc 7 148 1
	ldp	x29, x30, [sp], 32
LCFI28:
	ret
LFE11615:
	.align	2
	.globl __Z4timev
__Z4timev:
LFB11616:
	.loc 7 150 12
	stp	x29, x30, [sp, -32]!
LCFI29:
	mov	x29, sp
	.loc 7 151 18
	str	xzr, [sp, 16]
	str	xzr, [sp, 24]
	.loc 7 152 15
	add	x0, sp, 16
	mov	x1, x0
	mov	w0, 0
	bl	_clock_gettime
	.loc 7 153 28
	ldr	d0, [sp, 16]
	.loc 7 153 9
	scvtf	d1, d0
	.loc 7 153 55
	ldr	d0, [sp, 24]
	.loc 7 153 36
	scvtf	d0, d0
	.loc 7 153 63
	mov	x0, 225833675390976
	movk	x0, 0x41cd, lsl 48
	fmov	d2, x0
	fdiv	d0, d0, d2
	.loc 7 153 64
	fadd	d0, d1, d0
	.loc 7 154 1
	ldp	x29, x30, [sp], 32
LCFI30:
	ret
LFE11616:
	.align	2
	.globl __Z9monotonicv
__Z9monotonicv:
LFB11617:
	.loc 7 155 17
	stp	x29, x30, [sp, -32]!
LCFI31:
	mov	x29, sp
	.loc 7 156 18
	str	xzr, [sp, 16]
	str	xzr, [sp, 24]
	.loc 7 157 15
	add	x0, sp, 16
	mov	x1, x0
	mov	w0, 6
	bl	_clock_gettime
	.loc 7 158 28
	ldr	d0, [sp, 16]
	.loc 7 158 9
	scvtf	d1, d0
	.loc 7 158 55
	ldr	d0, [sp, 24]
	.loc 7 158 36
	scvtf	d0, d0
	.loc 7 158 63
	mov	x0, 225833675390976
	movk	x0, 0x41cd, lsl 48
	fmov	d2, x0
	fdiv	d0, d0, d2
	.loc 7 158 64
	fadd	d0, d1, d0
	.loc 7 159 1
	ldp	x29, x30, [sp], 32
LCFI32:
	ret
LFE11617:
	.align	2
	.globl __ZNK9__gnu_cxx17__normal_iteratorIPiSt6vectorIiSaIiEEE4baseEv
	.weak_definition __ZNK9__gnu_cxx17__normal_iteratorIPiSt6vectorIiSaIiEEE4baseEv
__ZNK9__gnu_cxx17__normal_iteratorIPiSt6vectorIiSaIiEEE4baseEv:
LFB11619:
	.file 8 "/opt/homebrew/Cellar/gcc/11.2.0/include/c++/11.1.0/bits/stl_iterator.h"
	.loc 8 1085 7
	sub	sp, sp, #16
LCFI33:
	str	x0, [sp, 8]
	.loc 8 1086 16
	ldr	x0, [sp, 8]
	.loc 8 1086 28
	add	sp, sp, 16
LCFI34:
	ret
LFE11619:
	.align	2
	.globl __ZN9__gnu_cxxeqIPiS1_St6vectorIiSaIiEEEEbRKNS_17__normal_iteratorIT_T1_EERKNS5_IT0_S7_EE
	.weak_definition __ZN9__gnu_cxxeqIPiS1_St6vectorIiSaIiEEEEbRKNS_17__normal_iteratorIT_T1_EERKNS5_IT0_S7_EE
__ZN9__gnu_cxxeqIPiS1_St6vectorIiSaIiEEEEbRKNS_17__normal_iteratorIT_T1_EERKNS5_IT0_S7_EE:
LFB11620:
	.loc 8 1102 5
	stp	x29, x30, [sp, -48]!
LCFI35:
	mov	x29, sp
	str	x19, [sp, 16]
LCFI36:
	str	x0, [sp, 40]
	str	x1, [sp, 32]
	.loc 8 1105 24
	ldr	x0, [sp, 40]
	bl	__ZNK9__gnu_cxx17__normal_iteratorIPiSt6vectorIiSaIiEEE4baseEv
	.loc 8 1105 27
	ldr	x19, [x0]
	.loc 8 1105 40
	ldr	x0, [sp, 32]
	bl	__ZNK9__gnu_cxx17__normal_iteratorIPiSt6vectorIiSaIiEEE4baseEv
	.loc 8 1105 27
	ldr	x0, [x0]
	.loc 8 1105 41
	cmp	x19, x0
	cset	w0, eq
	and	w0, w0, 255
	.loc 8 1105 44
	ldr	x19, [sp, 16]
	ldp	x29, x30, [sp], 48
LCFI37:
	ret
LFE11620:
	.align	2
	.globl __ZN9__gnu_cxx17__normal_iteratorIPiSt6vectorIiSaIiEEEppEv
	.weak_definition __ZN9__gnu_cxx17__normal_iteratorIPiSt6vectorIiSaIiEEEppEv
__ZN9__gnu_cxx17__normal_iteratorIPiSt6vectorIiSaIiEEEppEv:
LFB11621:
	.loc 8 1032 7
	sub	sp, sp, #16
LCFI38:
	str	x0, [sp, 8]
	.loc 8 1034 4
	ldr	x0, [sp, 8]
	ldr	x0, [x0]
	.loc 8 1034 2
	add	x1, x0, 4
	ldr	x0, [sp, 8]
	str	x1, [x0]
	.loc 8 1035 10
	ldr	x0, [sp, 8]
	.loc 8 1036 7
	add	sp, sp, 16
LCFI39:
	ret
LFE11621:
	.align	2
	.globl __ZNK9__gnu_cxx17__normal_iteratorIPiSt6vectorIiSaIiEEEdeEv
	.weak_definition __ZNK9__gnu_cxx17__normal_iteratorIPiSt6vectorIiSaIiEEEdeEv
__ZNK9__gnu_cxx17__normal_iteratorIPiSt6vectorIiSaIiEEEdeEv:
LFB11622:
	.loc 8 1022 7
	sub	sp, sp, #16
LCFI40:
	str	x0, [sp, 8]
	.loc 8 1023 17
	ldr	x0, [sp, 8]
	ldr	x0, [x0]
	.loc 8 1023 29
	add	sp, sp, 16
LCFI41:
	ret
LFE11622:
	.cstring
	.align	3
lC2:
	.ascii " \0"
	.text
	.align	2
	.globl __ZlsRSoP6matrix
	.weak_definition __ZlsRSoP6matrix
__ZlsRSoP6matrix:
LFB11618:
	.file 9 "/Users/gera/Downloads/9.cpp"
	.loc 9 21 14
	stp	x29, x30, [sp, -160]!
LCFI42:
	mov	x29, sp
	str	x19, [sp, 16]
LCFI43:
	str	x0, [sp, 40]
	str	x1, [sp, 32]
LBB23:
	.loc 9 22 24
	ldr	x0, [sp, 32]
	ldr	w0, [x0]
	.loc 9 22 28
	sxtw	x0, w0
	add	x1, sp, 104
	mov	x8, x1
LEHB7:
	bl	__Z5rangex
LEHE7:
	add	x0, sp, 104
	str	x0, [sp, 152]
	ldr	x0, [sp, 152]
	bl	__ZNSt6vectorIiSaIiEE5beginEv
	str	x0, [sp, 96]
	ldr	x0, [sp, 152]
	bl	__ZNSt6vectorIiSaIiEE3endEv
	str	x0, [sp, 88]
	.loc 9 22 3
	b	L62
L65:
LBB24:
	.loc 9 22 28
	add	x0, sp, 96
	bl	__ZNK9__gnu_cxx17__normal_iteratorIPiSt6vectorIiSaIiEEEdeEv
	ldr	w0, [x0]
	str	w0, [sp, 148]
LBB25:
	.loc 9 23 25
	ldr	x0, [sp, 32]
	ldr	w0, [x0]
	.loc 9 23 29
	sxtw	x0, w0
	add	x1, sp, 64
	mov	x8, x1
LEHB8:
	bl	__Z5rangex
LEHE8:
	.loc 9 23 29 is_stmt 0
	add	x0, sp, 64
	str	x0, [sp, 136]
	ldr	x0, [sp, 136]
	bl	__ZNSt6vectorIiSaIiEE5beginEv
	str	x0, [sp, 56]
	ldr	x0, [sp, 136]
	bl	__ZNSt6vectorIiSaIiEE3endEv
	str	x0, [sp, 48]
	.loc 9 23 4 is_stmt 1
	b	L63
L64:
	.loc 9 23 29
	add	x0, sp, 56
	bl	__ZNK9__gnu_cxx17__normal_iteratorIPiSt6vectorIiSaIiEEEdeEv
	ldr	w0, [x0]
	str	w0, [sp, 132]
	.loc 9 24 11
	ldr	x0, [sp, 32]
	ldr	x1, [x0, 8]
	.loc 9 24 16
	ldrsw	x0, [sp, 132]
	.loc 9 24 17
	lsl	x0, x0, 3
	add	x0, x1, x0
	ldr	x1, [x0]
	.loc 9 24 19
	ldrsw	x0, [sp, 148]
	.loc 9 24 20
	lsl	x0, x0, 3
	add	x0, x1, x0
	ldr	d0, [x0]
	ldr	x0, [sp, 40]
LEHB9:
	bl	__ZNSolsEd
	mov	x2, x0
	.loc 9 24 23
	adrp	x0, lC2@GOTPAGE
	ldr	x1, [x0, lC2@GOTPAGEOFF];momd
	mov	x0, x2
	bl	__ZStlsISt11char_traitsIcEERSt13basic_ostreamIcT_ES5_PKc
LEHE9:
	.loc 9 23 29
	add	x0, sp, 56
	bl	__ZN9__gnu_cxx17__normal_iteratorIPiSt6vectorIiSaIiEEEppEv
L63:
	.loc 9 23 29 is_stmt 0
	add	x1, sp, 48
	add	x0, sp, 56
	bl	__ZN9__gnu_cxxeqIPiS1_St6vectorIiSaIiEEEEbRKNS_17__normal_iteratorIT_T1_EERKNS5_IT0_S7_EE
	and	w0, w0, 255
	eor	w0, w0, 1
	and	w0, w0, 255
	cmp	w0, 0
	bne	L64
	.loc 9 25 4 is_stmt 1
	add	x0, sp, 64
	bl	__ZNSt6vectorIiSaIiEED1Ev
LBE25:
	.loc 9 26 7
	mov	w1, 10
	ldr	x0, [sp, 40]
LEHB10:
	bl	__ZStlsISt11char_traitsIcEERSt13basic_ostreamIcT_ES5_c
LEHE10:
LBE24:
	.loc 9 22 28
	add	x0, sp, 96
	bl	__ZN9__gnu_cxx17__normal_iteratorIPiSt6vectorIiSaIiEEEppEv
L62:
	.loc 9 22 28 is_stmt 0
	add	x1, sp, 88
	add	x0, sp, 96
	bl	__ZN9__gnu_cxxeqIPiS1_St6vectorIiSaIiEEEEbRKNS_17__normal_iteratorIT_T1_EERKNS5_IT0_S7_EE
	and	w0, w0, 255
	eor	w0, w0, 1
	and	w0, w0, 255
	cmp	w0, 0
	bne	L65
	.loc 9 27 3 is_stmt 1
	add	x0, sp, 104
	bl	__ZNSt6vectorIiSaIiEED1Ev
LBE23:
	.loc 9 28 10
	ldr	x0, [sp, 40]
	b	L71
L69:
LBB28:
LBB27:
LBB26:
	.loc 9 25 4
	mov	x19, x0
	add	x0, sp, 64
	bl	__ZNSt6vectorIiSaIiEED1Ev
	b	L68
L70:
LBE26:
LBE27:
	.loc 9 27 3
	mov	x19, x0
L68:
	add	x0, sp, 104
	bl	__ZNSt6vectorIiSaIiEED1Ev
	mov	x0, x19
LEHB11:
	bl	__Unwind_Resume
LEHE11:
L71:
LBE28:
	.loc 9 29 2
	ldr	x19, [sp, 16]
	ldp	x29, x30, [sp], 160
LCFI44:
	ret
LFE11618:
	.section __DATA,__gcc_except_tab
_GCC_except_table3:
LLSDA11618:
	.byte	0xff
	.byte	0xff
	.byte	0x1
	.uleb128 LLSDACSE11618-LLSDACSB11618
LLSDACSB11618:
	.uleb128 LEHB7-LFB11618
	.uleb128 LEHE7-LEHB7
	.uleb128 0
	.uleb128 0
	.uleb128 LEHB8-LFB11618
	.uleb128 LEHE8-LEHB8
	.uleb128 L70-LFB11618
	.uleb128 0
	.uleb128 LEHB9-LFB11618
	.uleb128 LEHE9-LEHB9
	.uleb128 L69-LFB11618
	.uleb128 0
	.uleb128 LEHB10-LFB11618
	.uleb128 LEHE10-LEHB10
	.uleb128 L70-LFB11618
	.uleb128 0
	.uleb128 LEHB11-LFB11618
	.uleb128 LEHE11-LEHB11
	.uleb128 0
	.uleb128 0
LLSDACSE11618:
	.text
	.align	2
	.globl __Z11init_matrixi
__Z11init_matrixi:
LFB11623:
	.loc 9 112 29
	stp	x29, x30, [sp, -80]!
LCFI45:
	mov	x29, sp
	str	x19, [sp, 16]
LCFI46:
	str	w0, [sp, 44]
	.loc 9 115 18
	mov	x0, 32
	bl	__Znam
	str	x0, [sp, 48]
	.loc 9 116 12
	ldr	x0, [sp, 48]
	ldr	w1, [sp, 44]
	str	w1, [x0]
	.loc 9 118 26
	ldrsw	x0, [sp, 44]
	.loc 9 118 27
	mov	x1, 1152921504606846975
	cmp	x0, x1
	bhi	L73
	.loc 9 118 27 is_stmt 0
	lsl	x0, x0, 3
	bl	__Znam
	mov	x1, x0
	.loc 9 118 12 is_stmt 1
	ldr	x0, [sp, 48]
	str	x1, [x0, 8]
LBB29:
	.loc 9 119 10
	str	wzr, [sp, 76]
	.loc 9 119 2
	b	L75
L73:
LBE29:
	.loc 9 118 27
	bl	___cxa_throw_bad_array_new_length
L78:
LBB30:
	.loc 9 120 27
	ldrsw	x0, [sp, 44]
	.loc 9 120 28
	mov	x1, 1152921504606846975
	cmp	x0, x1
	bhi	L76
	.loc 9 120 28 is_stmt 0
	lsl	x2, x0, 3
	b	L88
L76:
	.loc 9 120 28
	bl	___cxa_throw_bad_array_new_length
L88:
	.loc 9 120 6 is_stmt 1
	ldr	x0, [sp, 48]
	ldr	x1, [x0, 8]
	.loc 9 120 11
	ldrsw	x0, [sp, 76]
	.loc 9 120 12
	lsl	x0, x0, 3
	add	x19, x1, x0
	.loc 9 120 28
	mov	x0, x2
	bl	__Znam
	.loc 9 120 14
	str	x0, [x19]
	.loc 9 119 2
	ldr	w0, [sp, 76]
	add	w0, w0, 1
	str	w0, [sp, 76]
L75:
	.loc 9 119 19
	ldr	w1, [sp, 76]
	ldr	w0, [sp, 44]
	cmp	w1, w0
	blt	L78
LBE30:
	.loc 9 123 6
	mov	w0, 1
	str	w0, [sp, 72]
LBB31:
	.loc 9 124 10
	str	wzr, [sp, 68]
	.loc 9 124 2
	b	L79
L86:
LBB32:
LBB33:
	.loc 9 125 12
	ldr	w0, [sp, 68]
	and	w0, w0, 1
	.loc 9 125 3
	cmp	w0, 0
	bne	L80
LBB34:
LBB35:
	.loc 9 126 12
	str	wzr, [sp, 64]
	.loc 9 126 4
	b	L81
L82:
	.loc 9 127 8
	ldr	x0, [sp, 48]
	ldr	x1, [x0, 8]
	.loc 9 127 13
	ldrsw	x0, [sp, 64]
	.loc 9 127 14
	lsl	x0, x0, 3
	add	x0, x1, x0
	ldr	x1, [x0]
	.loc 9 127 16
	ldrsw	x0, [sp, 68]
	.loc 9 127 17
	lsl	x0, x0, 3
	add	x0, x1, x0
	.loc 9 127 19
	ldr	w1, [sp, 72]
	scvtf	d0, w1
	str	d0, [x0]
	.loc 9 128 6
	ldr	w0, [sp, 72]
	add	w0, w0, 1
	str	w0, [sp, 72]
	.loc 9 126 4
	ldr	w0, [sp, 64]
	add	w0, w0, 1
	str	w0, [sp, 64]
L81:
	.loc 9 126 21
	ldr	w1, [sp, 64]
	ldr	w0, [sp, 44]
	cmp	w1, w0
	blt	L82
	b	L83
L80:
LBE35:
LBE34:
LBB36:
LBB37:
	.loc 9 131 12
	ldr	w0, [sp, 44]
	sub	w0, w0, #1
	str	w0, [sp, 60]
	.loc 9 131 4
	b	L84
L85:
	.loc 9 132 8
	ldr	x0, [sp, 48]
	ldr	x1, [x0, 8]
	.loc 9 132 13
	ldrsw	x0, [sp, 60]
	.loc 9 132 14
	lsl	x0, x0, 3
	add	x0, x1, x0
	ldr	x1, [x0]
	.loc 9 132 16
	ldrsw	x0, [sp, 68]
	.loc 9 132 17
	lsl	x0, x0, 3
	add	x0, x1, x0
	.loc 9 132 19
	ldr	w1, [sp, 72]
	scvtf	d0, w1
	str	d0, [x0]
	.loc 9 133 6
	ldr	w0, [sp, 72]
	add	w0, w0, 1
	str	w0, [sp, 72]
	.loc 9 131 4
	ldr	w0, [sp, 60]
	sub	w0, w0, #1
	str	w0, [sp, 60]
L84:
	.loc 9 131 22
	ldr	w0, [sp, 60]
	cmp	w0, 0
	bge	L85
L83:
LBE37:
LBE36:
LBE33:
LBE32:
	.loc 9 124 2
	ldr	w0, [sp, 68]
	add	w0, w0, 1
	str	w0, [sp, 68]
L79:
	.loc 9 124 19
	ldr	w1, [sp, 68]
	ldr	w0, [sp, 44]
	cmp	w1, w0
	blt	L86
LBE31:
	.loc 9 137 9
	ldr	x0, [sp, 48]
	.loc 9 138 1
	ldr	x19, [sp, 16]
	ldp	x29, x30, [sp], 80
LCFI47:
	ret
LFE11623:
	.align	2
	.globl __Z16init_matrix_filePSt14basic_ifstreamIcSt11char_traitsIcEE
__Z16init_matrix_filePSt14basic_ifstreamIcSt11char_traitsIcEE:
LFB11624:
	.loc 9 140 42
	stp	x29, x30, [sp, -80]!
LCFI48:
	mov	x29, sp
	str	x19, [sp, 16]
LCFI49:
	str	x0, [sp, 40]
	.loc 9 142 9
	ldr	x0, [sp, 40]
	add	x1, sp, 60
	bl	__ZNSirsERi
	.loc 9 144 18
	mov	x0, 32
	bl	__Znam
	str	x0, [sp, 64]
	.loc 9 145 10
	ldr	w1, [sp, 60]
	ldr	x0, [sp, 64]
	str	w1, [x0]
	.loc 9 146 29
	ldr	x0, [sp, 64]
	ldr	w0, [x0]
	sxtw	x0, w0
	.loc 9 146 33
	mov	x1, 1152921504606846975
	cmp	x0, x1
	bhi	L90
	.loc 9 146 33 is_stmt 0
	lsl	x0, x0, 3
	bl	__Znam
	mov	x1, x0
	.loc 9 146 10 is_stmt 1
	ldr	x0, [sp, 64]
	str	x1, [x0, 8]
LBB38:
	.loc 9 147 10
	str	wzr, [sp, 76]
	.loc 9 147 2
	b	L92
L90:
LBE38:
	.loc 9 146 33
	bl	___cxa_throw_bad_array_new_length
L97:
LBB42:
LBB39:
	.loc 9 148 30
	ldr	x0, [sp, 64]
	ldr	w0, [x0]
	sxtw	x0, w0
	.loc 9 148 34
	mov	x1, 1152921504606846975
	cmp	x0, x1
	bhi	L93
	.loc 9 148 34 is_stmt 0
	lsl	x2, x0, 3
	.loc 9 148 6 is_stmt 1
	ldr	x0, [sp, 64]
	ldr	x1, [x0, 8]
	.loc 9 148 11
	ldrsw	x0, [sp, 76]
	.loc 9 148 12
	lsl	x0, x0, 3
	add	x19, x1, x0
	.loc 9 148 34
	mov	x0, x2
	bl	__Znam
	.loc 9 148 14
	str	x0, [x19]
LBB40:
	.loc 9 149 11
	str	wzr, [sp, 72]
	.loc 9 149 3
	b	L95
L93:
LBE40:
	.loc 9 148 34
	bl	___cxa_throw_bad_array_new_length
L96:
LBB41:
	.loc 9 150 23
	ldr	x2, [sp, 40]
	.loc 9 150 14
	ldr	x0, [sp, 64]
	ldr	x1, [x0, 8]
	.loc 9 150 19
	ldrsw	x0, [sp, 76]
	.loc 9 150 20
	lsl	x0, x0, 3
	add	x0, x1, x0
	ldr	x1, [x0]
	.loc 9 150 22
	ldrsw	x0, [sp, 72]
	.loc 9 150 23
	lsl	x0, x0, 3
	add	x0, x1, x0
	mov	x1, x0
	mov	x0, x2
	bl	__ZNSirsERd
	.loc 9 149 3
	ldr	w0, [sp, 72]
	add	w0, w0, 1
	str	w0, [sp, 72]
L95:
	.loc 9 149 25
	ldr	x0, [sp, 64]
	ldr	w0, [x0]
	.loc 9 149 20
	ldr	w1, [sp, 72]
	cmp	w1, w0
	blt	L96
LBE41:
LBE39:
	.loc 9 147 2
	ldr	w0, [sp, 76]
	add	w0, w0, 1
	str	w0, [sp, 76]
L92:
	.loc 9 147 24
	ldr	x0, [sp, 64]
	ldr	w0, [x0]
	.loc 9 147 19
	ldr	w1, [sp, 76]
	cmp	w1, w0
	blt	L97
LBE42:
	.loc 9 153 9
	ldr	x0, [sp, 64]
	.loc 9 154 1
	ldr	x19, [sp, 16]
	ldp	x29, x30, [sp], 80
LCFI50:
	ret
LFE11624:
	.cstring
	.align	3
lC3:
	.ascii "_\0"
	.text
	.align	2
	.globl __Z12print_matrixP6matrixPSt14basic_ofstreamIcSt11char_traitsIcEE
__Z12print_matrixP6matrixPSt14basic_ofstreamIcSt11char_traitsIcEE:
LFB11625:
	.loc 9 157 48
	stp	x29, x30, [sp, -48]!
LCFI51:
	mov	x29, sp
	str	x0, [sp, 24]
	str	x1, [sp, 16]
LBB43:
	.loc 9 158 10
	str	wzr, [sp, 44]
	.loc 9 158 2
	b	L100
L103:
LBB44:
LBB45:
	.loc 9 159 11
	str	wzr, [sp, 40]
	.loc 9 159 3
	b	L101
L102:
	.loc 9 160 25
	ldr	x2, [sp, 16]
	.loc 9 160 16
	ldr	x0, [sp, 24]
	ldr	x1, [x0, 8]
	.loc 9 160 21
	ldrsw	x0, [sp, 44]
	.loc 9 160 22
	lsl	x0, x0, 3
	add	x0, x1, x0
	ldr	x1, [x0]
	.loc 9 160 24
	ldrsw	x0, [sp, 40]
	.loc 9 160 25
	lsl	x0, x0, 3
	add	x0, x1, x0
	ldr	d0, [x0]
	mov	x0, x2
	bl	__ZNSolsEd
	mov	x2, x0
	.loc 9 160 30
	adrp	x0, lC2@GOTPAGE
	ldr	x1, [x0, lC2@GOTPAGEOFF];momd
	mov	x0, x2
	bl	__ZStlsISt11char_traitsIcEERSt13basic_ostreamIcT_ES5_PKc
	.loc 9 159 3
	ldr	w0, [sp, 40]
	add	w0, w0, 1
	str	w0, [sp, 40]
L101:
	.loc 9 159 25
	ldr	x0, [sp, 24]
	ldr	w0, [x0]
	.loc 9 159 20
	ldr	w1, [sp, 40]
	cmp	w1, w0
	blt	L102
LBE45:
	.loc 9 162 12
	ldr	x2, [sp, 16]
	adrp	x0, __ZSt4endlIcSt11char_traitsIcEERSt13basic_ostreamIT_T0_ES6_@GOTPAGE
	ldr	x1, [x0, __ZSt4endlIcSt11char_traitsIcEERSt13basic_ostreamIT_T0_ES6_@GOTPAGEOFF];momd
	mov	x0, x2
	bl	__ZNSolsEPFRSoS_E
LBE44:
	.loc 9 158 2
	ldr	w0, [sp, 44]
	add	w0, w0, 1
	str	w0, [sp, 44]
L100:
	.loc 9 158 24
	ldr	x0, [sp, 24]
	ldr	w0, [x0]
	.loc 9 158 19
	ldr	w1, [sp, 44]
	cmp	w1, w0
	blt	L103
LBE43:
	.loc 9 164 11
	ldr	x2, [sp, 16]
	adrp	x0, lC3@GOTPAGE
	ldr	x1, [x0, lC3@GOTPAGEOFF];momd
	mov	x0, x2
	bl	__ZStlsISt11char_traitsIcEERSt13basic_ostreamIcT_ES5_PKc
	mov	x2, x0
	.loc 9 164 18
	adrp	x0, __ZSt4endlIcSt11char_traitsIcEERSt13basic_ostreamIT_T0_ES6_@GOTPAGE
	ldr	x1, [x0, __ZSt4endlIcSt11char_traitsIcEERSt13basic_ostreamIT_T0_ES6_@GOTPAGEOFF];momd
	mov	x0, x2
	bl	__ZNSolsEPFRSoS_E
	.loc 9 165 1
	nop
	ldp	x29, x30, [sp], 48
LCFI52:
	ret
LFE11625:
	.align	2
	.globl __Z15increase_matrixP6matrixS0_
__Z15increase_matrixP6matrixS0_:
LFB11626:
	.loc 9 168 48
	stp	x29, x30, [sp, -64]!
LCFI53:
	mov	x29, sp
	str	x0, [sp, 24]
	str	x1, [sp, 16]
	.loc 9 170 26
	ldr	x0, [sp, 24]
	ldr	w0, [x0]
	bl	__Z11init_matrixi
	str	x0, [sp, 40]
LBB46:
	.loc 9 174 10
	str	wzr, [sp, 60]
	.loc 9 174 2
	b	L105
L110:
LBB47:
LBB48:
	.loc 9 175 11
	str	wzr, [sp, 56]
	.loc 9 175 3
	b	L106
L109:
LBB49:
	.loc 9 176 8
	str	wzr, [sp, 52]
LBB50:
	.loc 9 177 12
	str	wzr, [sp, 48]
	.loc 9 177 4
	b	L107
L108:
	.loc 9 178 7
	ldr	w0, [sp, 52]
	scvtf	d1, w0
	.loc 9 178 13
	ldr	x0, [sp, 24]
	ldr	x1, [x0, 8]
	.loc 9 178 18
	ldrsw	x0, [sp, 60]
	.loc 9 178 19
	lsl	x0, x0, 3
	add	x0, x1, x0
	ldr	x1, [x0]
	.loc 9 178 21
	ldrsw	x0, [sp, 48]
	.loc 9 178 22
	lsl	x0, x0, 3
	add	x0, x1, x0
	ldr	d2, [x0]
	.loc 9 178 27
	ldr	x0, [sp, 16]
	ldr	x1, [x0, 8]
	.loc 9 178 32
	ldrsw	x0, [sp, 48]
	.loc 9 178 33
	lsl	x0, x0, 3
	add	x0, x1, x0
	ldr	x1, [x0]
	.loc 9 178 35
	ldrsw	x0, [sp, 56]
	.loc 9 178 36
	lsl	x0, x0, 3
	add	x0, x1, x0
	ldr	d0, [x0]
	.loc 9 178 23
	fmul	d0, d2, d0
	.loc 9 178 7
	fadd	d0, d1, d0
	fcvtzs	w0, d0
	str	w0, [sp, 52]
	.loc 9 177 4
	ldr	w0, [sp, 48]
	add	w0, w0, 1
	str	w0, [sp, 48]
L107:
	.loc 9 177 26
	ldr	x0, [sp, 16]
	ldr	w0, [x0]
	.loc 9 177 21
	ldr	w1, [sp, 48]
	cmp	w1, w0
	blt	L108
LBE50:
	.loc 9 180 7
	ldr	x0, [sp, 40]
	ldr	x1, [x0, 8]
	.loc 9 180 12
	ldrsw	x0, [sp, 60]
	.loc 9 180 13
	lsl	x0, x0, 3
	add	x0, x1, x0
	ldr	x1, [x0]
	.loc 9 180 15
	ldrsw	x0, [sp, 56]
	.loc 9 180 16
	lsl	x0, x0, 3
	add	x0, x1, x0
	.loc 9 180 18
	ldr	w1, [sp, 52]
	scvtf	d0, w1
	str	d0, [x0]
LBE49:
	.loc 9 175 3
	ldr	w0, [sp, 56]
	add	w0, w0, 1
	str	w0, [sp, 56]
L106:
	.loc 9 175 25
	ldr	x0, [sp, 16]
	ldr	w0, [x0]
	.loc 9 175 20
	ldr	w1, [sp, 56]
	cmp	w1, w0
	blt	L109
LBE48:
LBE47:
	.loc 9 174 2
	ldr	w0, [sp, 60]
	add	w0, w0, 1
	str	w0, [sp, 60]
L105:
	.loc 9 174 24
	ldr	x0, [sp, 16]
	ldr	w0, [x0]
	.loc 9 174 19
	ldr	w1, [sp, 60]
	cmp	w1, w0
	blt	L110
LBE46:
	.loc 9 183 9
	ldr	x0, [sp, 40]
	.loc 9 184 1
	ldp	x29, x30, [sp], 64
LCFI54:
	ret
LFE11626:
	.align	2
	.globl __Z16transpose_matrixP6matrix
__Z16transpose_matrixP6matrix:
LFB11627:
	.loc 9 187 38
	stp	x29, x30, [sp, -48]!
LCFI55:
	mov	x29, sp
	str	x0, [sp, 24]
	.loc 9 188 26
	ldr	x0, [sp, 24]
	ldr	w0, [x0]
	bl	__Z11init_matrixi
	str	x0, [sp, 32]
LBB51:
	.loc 9 189 10
	str	wzr, [sp, 44]
	.loc 9 189 2
	b	L113
L116:
LBB52:
LBB53:
	.loc 9 190 11
	str	wzr, [sp, 40]
	.loc 9 190 3
	b	L114
L115:
	.loc 9 191 23
	ldr	x0, [sp, 24]
	ldr	x1, [x0, 8]
	.loc 9 191 28
	ldrsw	x0, [sp, 40]
	.loc 9 191 29
	lsl	x0, x0, 3
	add	x0, x1, x0
	ldr	x1, [x0]
	.loc 9 191 31
	ldrsw	x0, [sp, 44]
	.loc 9 191 32
	lsl	x0, x0, 3
	add	x1, x1, x0
	.loc 9 191 7
	ldr	x0, [sp, 32]
	ldr	x2, [x0, 8]
	.loc 9 191 12
	ldrsw	x0, [sp, 44]
	.loc 9 191 13
	lsl	x0, x0, 3
	add	x0, x2, x0
	ldr	x2, [x0]
	.loc 9 191 15
	ldrsw	x0, [sp, 40]
	.loc 9 191 16
	lsl	x0, x0, 3
	add	x0, x2, x0
	.loc 9 191 32
	ldr	d0, [x1]
	.loc 9 191 18
	str	d0, [x0]
	.loc 9 190 3
	ldr	w0, [sp, 40]
	add	w0, w0, 1
	str	w0, [sp, 40]
L114:
	.loc 9 190 25
	ldr	x0, [sp, 24]
	ldr	w0, [x0]
	.loc 9 190 20
	ldr	w1, [sp, 40]
	cmp	w1, w0
	blt	L115
LBE53:
LBE52:
	.loc 9 189 2
	ldr	w0, [sp, 44]
	add	w0, w0, 1
	str	w0, [sp, 44]
L113:
	.loc 9 189 24
	ldr	x0, [sp, 24]
	ldr	w0, [x0]
	.loc 9 189 19
	ldr	w1, [sp, 44]
	cmp	w1, w0
	blt	L116
LBE51:
	.loc 9 194 9
	ldr	x0, [sp, 32]
	.loc 9 195 1
	ldp	x29, x30, [sp], 48
LCFI56:
	ret
LFE11627:
	.align	2
	.globl __Z11ClearMemoryP6matrix
__Z11ClearMemoryP6matrix:
LFB11628:
	.loc 9 198 30
	stp	x29, x30, [sp, -48]!
LCFI57:
	mov	x29, sp
	str	x0, [sp, 24]
LBB54:
	.loc 9 199 10
	str	wzr, [sp, 44]
	.loc 9 199 2
	b	L119
L121:
	.loc 9 200 15
	ldr	x0, [sp, 24]
	ldr	x1, [x0, 8]
	.loc 9 200 20
	ldrsw	x0, [sp, 44]
	.loc 9 200 21
	lsl	x0, x0, 3
	add	x0, x1, x0
	ldr	x0, [x0]
	.loc 9 200 3
	cmp	x0, 0
	beq	L120
	.loc 9 200 15
	ldr	x0, [sp, 24]
	ldr	x1, [x0, 8]
	.loc 9 200 20
	ldrsw	x0, [sp, 44]
	.loc 9 200 21
	lsl	x0, x0, 3
	add	x0, x1, x0
	ldr	x0, [x0]
	bl	__ZdaPv
L120:
	.loc 9 199 2
	ldr	w0, [sp, 44]
	add	w0, w0, 1
	str	w0, [sp, 44]
L119:
	.loc 9 199 24
	ldr	x0, [sp, 24]
	ldr	w0, [x0]
	.loc 9 199 19
	ldr	w1, [sp, 44]
	cmp	w1, w0
	blt	L121
LBE54:
	.loc 9 202 14
	ldr	x0, [sp, 24]
	ldr	x0, [x0, 8]
	.loc 9 202 2
	cmp	x0, 0
	beq	L122
	.loc 9 202 14
	ldr	x0, [sp, 24]
	ldr	x0, [x0, 8]
	bl	__ZdaPv
L122:
	.loc 9 203 2
	ldr	x0, [sp, 24]
	cmp	x0, 0
	beq	L124
	.loc 9 203 11
	ldr	x0, [sp, 24]
	bl	__ZdaPv
L124:
	.loc 9 204 1
	nop
	ldp	x29, x30, [sp], 48
LCFI58:
	ret
LFE11628:
	.align	2
	.globl __Z10det_matrixP6matrix
__Z10det_matrixP6matrix:
LFB11629:
	.loc 9 211 28
	stp	x29, x30, [sp, -80]!
LCFI59:
	mov	x29, sp
	str	d8, [sp, 16]
LCFI60:
	str	x0, [sp, 40]
LBB55:
	.loc 9 212 8
	ldr	x0, [sp, 40]
	ldr	w0, [x0]
	.loc 9 212 2
	cmp	w0, 1
	bne	L126
	.loc 9 213 13
	ldr	x0, [sp, 40]
	ldr	x0, [x0, 8]
	.loc 9 213 22
	ldr	x0, [x0]
	ldr	d0, [x0]
	fcvtzs	w0, d0
	b	L127
L126:
LBB56:
LBB57:
	.loc 9 214 15
	ldr	x0, [sp, 40]
	ldr	w0, [x0]
	.loc 9 214 9
	cmp	w0, 2
	bne	L128
	.loc 9 215 13
	ldr	x0, [sp, 40]
	ldr	x0, [x0, 8]
	.loc 9 215 22
	ldr	x0, [x0]
	ldr	d1, [x0]
	.loc 9 215 27
	ldr	x0, [sp, 40]
	ldr	x0, [x0, 8]
	.loc 9 215 33
	add	x0, x0, 8
	ldr	x0, [x0]
	.loc 9 215 36
	add	x0, x0, 8
	ldr	d0, [x0]
	.loc 9 215 23
	fmul	d1, d1, d0
	.loc 9 215 41
	ldr	x0, [sp, 40]
	ldr	x0, [x0, 8]
	.loc 9 215 47
	ldr	x0, [x0]
	.loc 9 215 50
	add	x0, x0, 8
	ldr	d2, [x0]
	.loc 9 215 55
	ldr	x0, [sp, 40]
	ldr	x0, [x0, 8]
	.loc 9 215 61
	add	x0, x0, 8
	.loc 9 215 64
	ldr	x0, [x0]
	ldr	d0, [x0]
	.loc 9 215 51
	fmul	d0, d2, d0
	.loc 9 215 37
	fsub	d0, d1, d0
	.loc 9 215 64
	fcvtzs	w0, d0
	b	L127
L128:
LBB58:
	.loc 9 217 7
	str	wzr, [sp, 76]
	.loc 9 218 7
	mov	w0, 1
	str	w0, [sp, 72]
LBB59:
	.loc 9 219 12
	str	wzr, [sp, 68]
	.loc 9 219 3
	b	L129
L136:
LBB60:
	.loc 9 220 40
	ldr	x0, [sp, 40]
	ldr	w0, [x0]
	.loc 9 220 36
	sub	w0, w0, #1
	bl	__Z11init_matrixi
	str	x0, [sp, 48]
LBB61:
	.loc 9 223 22
	mov	w0, 1
	str	w0, [sp, 64]
	.loc 9 223 13
	b	L130
L135:
LBB62:
	.loc 9 224 21
	str	wzr, [sp, 60]
LBB63:
	.loc 9 225 26
	str	wzr, [sp, 56]
	.loc 9 225 17
	b	L131
L134:
	.loc 9 226 21
	ldr	w1, [sp, 56]
	ldr	w0, [sp, 68]
	cmp	w1, w0
	beq	L137
	.loc 9 228 42
	ldr	x0, [sp, 40]
	ldr	x1, [x0, 8]
	.loc 9 228 47
	ldrsw	x0, [sp, 64]
	.loc 9 228 48
	lsl	x0, x0, 3
	add	x0, x1, x0
	ldr	x1, [x0]
	.loc 9 228 50
	ldrsw	x0, [sp, 56]
	.loc 9 228 51
	lsl	x0, x0, 3
	add	x1, x1, x0
	.loc 9 228 24
	ldr	x0, [sp, 48]
	ldr	x2, [x0, 8]
	.loc 9 228 29
	ldrsw	x0, [sp, 64]
	.loc 9 228 32
	lsl	x0, x0, 3
	sub	x0, x0, #8
	add	x0, x2, x0
	ldr	x2, [x0]
	.loc 9 228 34
	ldrsw	x0, [sp, 60]
	.loc 9 228 35
	lsl	x0, x0, 3
	add	x0, x2, x0
	.loc 9 228 51
	ldr	d0, [x1]
	.loc 9 228 37
	str	d0, [x0]
	.loc 9 229 22
	ldr	w0, [sp, 60]
	add	w0, w0, 1
	str	w0, [sp, 60]
	b	L133
L137:
	.loc 9 227 25
	nop
L133:
	.loc 9 225 17
	ldr	w0, [sp, 56]
	add	w0, w0, 1
	str	w0, [sp, 56]
L131:
	.loc 9 225 40
	ldr	x0, [sp, 40]
	ldr	w0, [x0]
	.loc 9 225 35
	ldr	w1, [sp, 56]
	cmp	w1, w0
	blt	L134
LBE63:
LBE62:
	.loc 9 223 13
	ldr	w0, [sp, 64]
	add	w0, w0, 1
	str	w0, [sp, 64]
L130:
	.loc 9 223 36
	ldr	x0, [sp, 40]
	ldr	w0, [x0]
	.loc 9 223 31
	ldr	w1, [sp, 64]
	cmp	w1, w0
	blt	L135
LBE61:
	.loc 9 232 24
	ldr	w0, [sp, 72]
	scvtf	d1, w0
	.loc 9 232 29
	ldr	x0, [sp, 40]
	ldr	x0, [x0, 8]
	.loc 9 232 35
	ldr	x1, [x0]
	.loc 9 232 37
	ldrsw	x0, [sp, 68]
	.loc 9 232 38
	lsl	x0, x0, 3
	add	x0, x1, x0
	ldr	d0, [x0]
	.loc 9 232 24
	fmul	d8, d1, d0
	.loc 9 232 52
	ldr	x0, [sp, 48]
	bl	__Z10det_matrixP6matrix
	.loc 9 232 40
	scvtf	d0, w0
	fmul	d1, d8, d0
	.loc 9 232 17
	ldr	w0, [sp, 76]
	scvtf	d0, w0
	fadd	d0, d1, d0
	fcvtzs	w0, d0
	str	w0, [sp, 76]
	.loc 9 233 24
	ldr	x0, [sp, 48]
	bl	__Z11ClearMemoryP6matrix
	.loc 9 234 17
	ldr	w0, [sp, 72]
	neg	w0, w0
	str	w0, [sp, 72]
LBE60:
	.loc 9 219 3
	ldr	w0, [sp, 68]
	add	w0, w0, 1
	str	w0, [sp, 68]
L129:
	.loc 9 219 26
	ldr	x0, [sp, 40]
	ldr	w0, [x0]
	.loc 9 219 21
	ldr	w1, [sp, 68]
	cmp	w1, w0
	blt	L136
LBE59:
	.loc 9 236 16
	ldr	w0, [sp, 76]
L127:
LBE58:
LBE57:
LBE56:
LBE55:
	.loc 9 238 1
	ldr	d8, [sp, 16]
	ldp	x29, x30, [sp], 80
LCFI61:
	ret
LFE11629:
	.align	2
	.globl __Z6AlgDopP6matrix
__Z6AlgDopP6matrix:
LFB11630:
	.loc 9 243 29
	stp	x29, x30, [sp, -96]!
LCFI62:
	mov	x29, sp
	str	x0, [sp, 24]
	.loc 9 245 28
	ldr	x0, [sp, 24]
	ldr	w0, [x0]
	bl	__Z11init_matrixi
	str	x0, [sp, 56]
	.loc 9 247 6
	mov	w0, 1
	str	w0, [sp, 92]
LBB64:
	.loc 9 248 10
	str	wzr, [sp, 88]
	.loc 9 248 2
	b	L139
L153:
LBB65:
LBB66:
	.loc 9 249 11
	str	wzr, [sp, 84]
	.loc 9 249 3
	b	L140
L152:
LBB67:
	.loc 9 251 32
	ldr	x0, [sp, 24]
	ldr	w0, [x0]
	.loc 9 251 28
	sub	w0, w0, #1
	bl	__Z11init_matrixi
	str	x0, [sp, 48]
	.loc 9 255 9
	strb	wzr, [sp, 83]
LBB68:
	.loc 9 256 12
	str	wzr, [sp, 76]
	.loc 9 256 4
	b	L141
L151:
LBB69:
	.loc 9 257 10
	strb	wzr, [sp, 75]
LBB70:
	.loc 9 258 13
	str	wzr, [sp, 68]
	.loc 9 258 5
	b	L142
L150:
LBB71:
	.loc 9 259 6
	ldr	w1, [sp, 88]
	ldr	w0, [sp, 76]
	cmp	w1, w0
	bne	L143
	.loc 9 260 14
	mov	w0, 1
	strb	w0, [sp, 83]
	.loc 9 261 7
	b	L144
L143:
	.loc 9 263 6
	ldr	w1, [sp, 84]
	ldr	w0, [sp, 68]
	cmp	w1, w0
	bne	L145
	.loc 9 264 14
	mov	w0, 1
	strb	w0, [sp, 75]
	.loc 9 265 7
	b	L144
L145:
	.loc 9 268 20
	ldrb	w0, [sp, 83]
	cmp	w0, 0
	beq	L146
	.loc 9 268 20 is_stmt 0
	ldr	w0, [sp, 76]
	sub	w0, w0, #1
	b	L147
L146:
	.loc 9 268 20
	ldr	w0, [sp, 76]
L147:
	.loc 9 268 12 is_stmt 1
	str	w0, [sp, 44]
	.loc 9 269 20
	ldrb	w0, [sp, 75]
	cmp	w0, 0
	beq	L148
	.loc 9 269 20 is_stmt 0
	ldr	w0, [sp, 68]
	sub	w0, w0, #1
	b	L149
L148:
	.loc 9 269 20
	ldr	w0, [sp, 68]
L149:
	.loc 9 269 12 is_stmt 1
	str	w0, [sp, 40]
	.loc 9 270 33
	ldr	x0, [sp, 24]
	ldr	x1, [x0, 8]
	.loc 9 270 38
	ldrsw	x0, [sp, 76]
	.loc 9 270 39
	lsl	x0, x0, 3
	add	x0, x1, x0
	ldr	x1, [x0]
	.loc 9 270 41
	ldrsw	x0, [sp, 68]
	.loc 9 270 42
	lsl	x0, x0, 3
	add	x1, x1, x0
	.loc 9 270 9
	ldr	x0, [sp, 48]
	ldr	x2, [x0, 8]
	.loc 9 270 14
	ldrsw	x0, [sp, 44]
	.loc 9 270 19
	lsl	x0, x0, 3
	add	x0, x2, x0
	ldr	x2, [x0]
	.loc 9 270 21
	ldrsw	x0, [sp, 40]
	.loc 9 270 26
	lsl	x0, x0, 3
	add	x0, x2, x0
	.loc 9 270 42
	ldr	d0, [x1]
	.loc 9 270 28
	str	d0, [x0]
L144:
LBE71:
	.loc 9 258 5
	ldr	w0, [sp, 68]
	add	w0, w0, 1
	str	w0, [sp, 68]
L142:
	.loc 9 258 27
	ldr	x0, [sp, 24]
	ldr	w0, [x0]
	.loc 9 258 22
	ldr	w1, [sp, 68]
	cmp	w1, w0
	blt	L150
LBE70:
LBE69:
	.loc 9 256 4
	ldr	w0, [sp, 76]
	add	w0, w0, 1
	str	w0, [sp, 76]
L141:
	.loc 9 256 26
	ldr	x0, [sp, 24]
	ldr	w0, [x0]
	.loc 9 256 21
	ldr	w1, [sp, 76]
	cmp	w1, w0
	blt	L151
LBE68:
	.loc 9 273 38
	ldr	x0, [sp, 48]
	bl	__Z10det_matrixP6matrix
	mov	w1, w0
	.loc 9 273 26
	ldr	w0, [sp, 92]
	mul	w1, w1, w0
	.loc 9 273 9
	ldr	x0, [sp, 56]
	ldr	x2, [x0, 8]
	.loc 9 273 14
	ldrsw	x0, [sp, 88]
	.loc 9 273 15
	lsl	x0, x0, 3
	add	x0, x2, x0
	ldr	x2, [x0]
	.loc 9 273 17
	ldrsw	x0, [sp, 84]
	.loc 9 273 18
	lsl	x0, x0, 3
	add	x0, x2, x0
	.loc 9 273 20
	scvtf	d0, w1
	str	d0, [x0]
	.loc 9 274 8
	ldr	w0, [sp, 92]
	neg	w0, w0
	str	w0, [sp, 92]
	.loc 9 275 15
	ldr	x0, [sp, 48]
	bl	__Z11ClearMemoryP6matrix
LBE67:
	.loc 9 249 3
	ldr	w0, [sp, 84]
	add	w0, w0, 1
	str	w0, [sp, 84]
L140:
	.loc 9 249 25
	ldr	x0, [sp, 24]
	ldr	w0, [x0]
	.loc 9 249 20
	ldr	w1, [sp, 84]
	cmp	w1, w0
	blt	L152
LBE66:
LBE65:
	.loc 9 248 2
	ldr	w0, [sp, 88]
	add	w0, w0, 1
	str	w0, [sp, 88]
L139:
	.loc 9 248 24
	ldr	x0, [sp, 24]
	ldr	w0, [x0]
	.loc 9 248 19
	ldr	w1, [sp, 88]
	cmp	w1, w0
	blt	L153
LBE64:
	.loc 9 278 9
	ldr	x0, [sp, 56]
	.loc 9 279 1
	ldp	x29, x30, [sp], 96
LCFI63:
	ret
LFE11630:
	.align	2
	.globl __Z14reverse_matrixP6matrix
__Z14reverse_matrixP6matrix:
LFB11631:
	.loc 9 287 37
	stp	x29, x30, [sp, -64]!
LCFI64:
	mov	x29, sp
	str	x0, [sp, 24]
	.loc 9 288 22
	ldr	x0, [sp, 24]
	bl	__Z10det_matrixP6matrix
	str	w0, [sp, 52]
	.loc 9 289 28
	ldr	x0, [sp, 24]
	ldr	w0, [x0]
	bl	__Z11init_matrixi
	str	x0, [sp, 40]
	.loc 9 290 24
	ldr	x0, [sp, 24]
	bl	__Z16transpose_matrixP6matrix
	str	x0, [sp, 40]
	.loc 9 291 14
	ldr	x0, [sp, 40]
	bl	__Z6AlgDopP6matrix
	str	x0, [sp, 40]
LBB72:
	.loc 9 292 10
	str	wzr, [sp, 60]
	.loc 9 292 2
	b	L156
L159:
LBB73:
LBB74:
	.loc 9 293 11
	str	wzr, [sp, 56]
	.loc 9 293 3
	b	L157
L158:
	.loc 9 294 9
	ldr	x0, [sp, 40]
	ldr	x1, [x0, 8]
	.loc 9 294 14
	ldrsw	x0, [sp, 60]
	.loc 9 294 15
	lsl	x0, x0, 3
	add	x0, x1, x0
	ldr	x1, [x0]
	.loc 9 294 20
	ldrsw	x0, [sp, 56]
	lsl	x0, x0, 3
	add	x0, x1, x0
	ldr	d1, [x0]
	ldr	w0, [sp, 52]
	scvtf	d0, w0
	.loc 9 294 9
	ldr	x0, [sp, 40]
	ldr	x1, [x0, 8]
	.loc 9 294 14
	ldrsw	x0, [sp, 60]
	.loc 9 294 15
	lsl	x0, x0, 3
	add	x0, x1, x0
	ldr	x1, [x0]
	.loc 9 294 20
	ldrsw	x0, [sp, 56]
	lsl	x0, x0, 3
	add	x0, x1, x0
	fdiv	d0, d1, d0
	str	d0, [x0]
	.loc 9 293 3
	ldr	w0, [sp, 56]
	add	w0, w0, 1
	str	w0, [sp, 56]
L157:
	.loc 9 293 25
	ldr	x0, [sp, 24]
	ldr	w0, [x0]
	.loc 9 293 20
	ldr	w1, [sp, 56]
	cmp	w1, w0
	blt	L158
LBE74:
LBE73:
	.loc 9 292 2
	ldr	w0, [sp, 60]
	add	w0, w0, 1
	str	w0, [sp, 60]
L156:
	.loc 9 292 24
	ldr	x0, [sp, 24]
	ldr	w0, [x0]
	.loc 9 292 19
	ldr	w1, [sp, 60]
	cmp	w1, w0
	blt	L159
LBE72:
	.loc 9 297 9
	ldr	x0, [sp, 40]
	.loc 9 298 1
	ldp	x29, x30, [sp], 64
LCFI65:
	ret
LFE11631:
	.align	2
	.globl __Z9print_oneIiEDaRKT_
	.weak_definition __Z9print_oneIiEDaRKT_
__Z9print_oneIiEDaRKT_:
LFB11634:
	.loc 7 7 6
	stp	x29, x30, [sp, -448]!
LCFI66:
	mov	x29, sp
	str	x19, [sp, 16]
LCFI67:
	mov	x19, x8
	str	x0, [sp, 40]
	.loc 7 8 20
	add	x0, sp, 56
LEHB12:
	bl	__ZNSt7__cxx1118basic_stringstreamIcSt11char_traitsIcESaIcEEC1Ev
LEHE12:
	.loc 7 9 3
	ldr	x0, [sp, 40]
	ldr	w1, [x0]
	add	x0, sp, 56
	add	x0, x0, 16
LEHB13:
	bl	__ZNSolsEi
	.loc 7 10 15
	add	x0, sp, 56
	mov	x8, x19
	bl	__ZNKRSt7__cxx1118basic_stringstreamIcSt11char_traitsIcESaIcEE3strEv
LEHE13:
	nop
	.loc 7 11 1
	add	x0, sp, 56
	bl	__ZNSt7__cxx1118basic_stringstreamIcSt11char_traitsIcESaIcEED1Ev
	.loc 7 10 15
	b	L165
L164:
	.loc 7 11 1
	mov	x19, x0
	add	x0, sp, 56
	bl	__ZNSt7__cxx1118basic_stringstreamIcSt11char_traitsIcESaIcEED1Ev
	mov	x0, x19
LEHB14:
	bl	__Unwind_Resume
LEHE14:
L165:
	mov	x0, x19
	ldr	x19, [sp, 16]
	ldp	x29, x30, [sp], 448
LCFI68:
	ret
LFE11634:
	.section __DATA,__gcc_except_tab
_GCC_except_table4:
LLSDA11634:
	.byte	0xff
	.byte	0xff
	.byte	0x1
	.uleb128 LLSDACSE11634-LLSDACSB11634
LLSDACSB11634:
	.uleb128 LEHB12-LFB11634
	.uleb128 LEHE12-LEHB12
	.uleb128 0
	.uleb128 0
	.uleb128 LEHB13-LFB11634
	.uleb128 LEHE13-LEHB13
	.uleb128 L164-LFB11634
	.uleb128 0
	.uleb128 LEHB14-LFB11634
	.uleb128 LEHE14-LEHB14
	.uleb128 0
	.uleb128 0
LLSDACSE11634:
	.text
	.align	2
	.globl __ZNK9__gnu_cxx17__normal_iteratorIPNSt7__cxx1112basic_stringIcSt11char_traitsIcESaIcEEESt6vectorIS6_SaIS6_EEE4baseEv
	.weak_definition __ZNK9__gnu_cxx17__normal_iteratorIPNSt7__cxx1112basic_stringIcSt11char_traitsIcESaIcEEESt6vectorIS6_SaIS6_EEE4baseEv
__ZNK9__gnu_cxx17__normal_iteratorIPNSt7__cxx1112basic_stringIcSt11char_traitsIcESaIcEEESt6vectorIS6_SaIS6_EEE4baseEv:
LFB11635:
	.loc 8 1085 7
	sub	sp, sp, #16
LCFI69:
	str	x0, [sp, 8]
	.loc 8 1086 16
	ldr	x0, [sp, 8]
	.loc 8 1086 28
	add	sp, sp, 16
LCFI70:
	ret
LFE11635:
	.align	2
	.globl __ZN9__gnu_cxx17__normal_iteratorIPNSt7__cxx1112basic_stringIcSt11char_traitsIcESaIcEEESt6vectorIS6_SaIS6_EEEppEv
	.weak_definition __ZN9__gnu_cxx17__normal_iteratorIPNSt7__cxx1112basic_stringIcSt11char_traitsIcESaIcEEESt6vectorIS6_SaIS6_EEEppEv
__ZN9__gnu_cxx17__normal_iteratorIPNSt7__cxx1112basic_stringIcSt11char_traitsIcESaIcEEESt6vectorIS6_SaIS6_EEEppEv:
LFB11636:
	.loc 8 1032 7
	sub	sp, sp, #16
LCFI71:
	str	x0, [sp, 8]
	.loc 8 1034 4
	ldr	x0, [sp, 8]
	ldr	x0, [x0]
	.loc 8 1034 2
	add	x1, x0, 32
	ldr	x0, [sp, 8]
	str	x1, [x0]
	.loc 8 1035 10
	ldr	x0, [sp, 8]
	.loc 8 1036 7
	add	sp, sp, 16
LCFI72:
	ret
LFE11636:
	.align	2
	.globl __ZNK9__gnu_cxx17__normal_iteratorIPNSt7__cxx1112basic_stringIcSt11char_traitsIcESaIcEEESt6vectorIS6_SaIS6_EEEdeEv
	.weak_definition __ZNK9__gnu_cxx17__normal_iteratorIPNSt7__cxx1112basic_stringIcSt11char_traitsIcESaIcEEESt6vectorIS6_SaIS6_EEEdeEv
__ZNK9__gnu_cxx17__normal_iteratorIPNSt7__cxx1112basic_stringIcSt11char_traitsIcESaIcEEESt6vectorIS6_SaIS6_EEEdeEv:
LFB11637:
	.loc 8 1022 7
	sub	sp, sp, #16
LCFI73:
	str	x0, [sp, 8]
	.loc 8 1023 17
	ldr	x0, [sp, 8]
	ldr	x0, [x0]
	.loc 8 1023 29
	add	sp, sp, 16
LCFI74:
	ret
LFE11637:
	.align	2
	.globl __Z5printIJiEEDaDpRKT_
	.weak_definition __Z5printIJiEEDaDpRKT_
__Z5printIJiEEDaDpRKT_:
LFB11633:
	.loc 7 63 6
	stp	x29, x30, [sp, -208]!
LCFI75:
	mov	x29, sp
	stp	x19, x20, [sp, 16]
	str	x21, [sp, 32]
LCFI76:
	str	x0, [sp, 56]
	.loc 7 64 7
	add	x0, sp, 144
	mov	x8, x0
	ldr	x0, [sp, 56]
LEHB15:
	bl	__Z9print_oneIiEDaRKT_
LEHE15:
	add	x0, sp, 144
	mov	x20, x0
	mov	x21, 1
	add	x0, sp, 176
	bl	__ZNSaINSt7__cxx1112basic_stringIcSt11char_traitsIcESaIcEEEEC1Ev
	add	x1, sp, 176
	add	x0, sp, 120
	mov	x3, x1
	mov	x1, x20
	mov	x2, x21
LEHB16:
	bl	__ZNSt6vectorINSt7__cxx1112basic_stringIcSt11char_traitsIcESaIcEEESaIS5_EEC1ESt16initializer_listIS5_ERKS6_
LEHE16:
	add	x0, sp, 176
	bl	__ZNSaINSt7__cxx1112basic_stringIcSt11char_traitsIcESaIcEEEED1Ev
	.loc 7 64 14
	add	x19, sp, 144
	add	x19, x19, 32
L174:
	add	x0, sp, 144
	cmp	x19, x0
	beq	L173
	.loc 7 64 14 is_stmt 0
	sub	x19, x19, #32
	mov	x0, x19
	bl	__ZNSt7__cxx1112basic_stringIcSt11char_traitsIcESaIcEED1Ev
	b	L174
L173:
	.loc 7 65 14 is_stmt 1
	add	x0, sp, 88
	bl	__ZNSt7__cxx1112basic_stringIcSt11char_traitsIcESaIcEEC1Ev
	.loc 7 66 6
	str	wzr, [sp, 204]
LBB75:
	.loc 7 67 2
	add	x0, sp, 120
	str	x0, [sp, 192]
	ldr	x0, [sp, 192]
	bl	__ZNSt6vectorINSt7__cxx1112basic_stringIcSt11char_traitsIcESaIcEEESaIS5_EE5beginEv
	str	x0, [sp, 80]
	ldr	x0, [sp, 192]
	bl	__ZNSt6vectorINSt7__cxx1112basic_stringIcSt11char_traitsIcESaIcEEESaIS5_EE3endEv
	str	x0, [sp, 72]
	b	L175
L178:
	.loc 7 67 2 is_stmt 0
	add	x0, sp, 80
	bl	__ZNK9__gnu_cxx17__normal_iteratorIPNSt7__cxx1112basic_stringIcSt11char_traitsIcESaIcEEESt6vectorIS6_SaIS6_EEEdeEv
	str	x0, [sp, 184]
	.loc 7 68 3 is_stmt 1
	ldr	w0, [sp, 204]
	cmp	w0, 0
	beq	L176
	.loc 7 69 7
	add	x2, sp, 88
	adrp	x0, lC2@GOTPAGE
	ldr	x1, [x0, lC2@GOTPAGEOFF];momd
	mov	x0, x2
LEHB17:
	bl	__ZNSt7__cxx1112basic_stringIcSt11char_traitsIcESaIcEEpLEPKc
	b	L177
L176:
	.loc 7 71 5
	mov	w0, 1
	str	w0, [sp, 204]
L177:
	.loc 7 73 6
	add	x0, sp, 88
	ldr	x1, [sp, 184]
	bl	__ZNSt7__cxx1112basic_stringIcSt11char_traitsIcESaIcEEpLERKS4_
	.loc 7 67 2
	add	x0, sp, 80
	bl	__ZN9__gnu_cxx17__normal_iteratorIPNSt7__cxx1112basic_stringIcSt11char_traitsIcESaIcEEESt6vectorIS6_SaIS6_EEEppEv
L175:
	.loc 7 67 2 is_stmt 0
	add	x1, sp, 72
	add	x0, sp, 80
	bl	__ZN9__gnu_cxxeqIPNSt7__cxx1112basic_stringIcSt11char_traitsIcESaIcEEES7_St6vectorIS6_SaIS6_EEEEbRKNS_17__normal_iteratorIT_T1_EERKNSB_IT0_SD_EE
	and	w0, w0, 255
	eor	w0, w0, 1
	and	w0, w0, 255
	cmp	w0, 0
	bne	L178
LBE75:
	.loc 7 75 11 is_stmt 1
	add	x0, sp, 88
	mov	x1, x0
	adrp	x0, __ZSt4cout@GOTPAGE
	ldr	x0, [x0, __ZSt4cout@GOTPAGEOFF];momd
	bl	__ZStlsIcSt11char_traitsIcESaIcEERSt13basic_ostreamIT_T0_ES7_RKNSt7__cxx1112basic_stringIS4_S5_T1_EE
	mov	x2, x0
	.loc 7 75 16
	adrp	x0, __ZSt4endlIcSt11char_traitsIcEERSt13basic_ostreamIT_T0_ES6_@GOTPAGE
	ldr	x1, [x0, __ZSt4endlIcSt11char_traitsIcEERSt13basic_ostreamIT_T0_ES6_@GOTPAGEOFF];momd
	mov	x0, x2
	bl	__ZNSolsEPFRSoS_E
LEHE17:
	.loc 7 76 1
	add	x0, sp, 88
	bl	__ZNSt7__cxx1112basic_stringIcSt11char_traitsIcESaIcEED1Ev
	add	x0, sp, 120
	bl	__ZNSt6vectorINSt7__cxx1112basic_stringIcSt11char_traitsIcESaIcEEESaIS5_EED1Ev
	b	L185
L183:
	mov	x19, x0
	add	x0, sp, 176
	bl	__ZNSaINSt7__cxx1112basic_stringIcSt11char_traitsIcESaIcEEEED1Ev
	mov	x20, x19
	.loc 7 64 14
	add	x19, sp, 144
	add	x19, x19, 32
L181:
	add	x0, sp, 144
	cmp	x19, x0
	beq	L180
	sub	x19, x19, #32
	mov	x0, x19
	bl	__ZNSt7__cxx1112basic_stringIcSt11char_traitsIcESaIcEED1Ev
	b	L181
L180:
	mov	x0, x20
LEHB18:
	bl	__Unwind_Resume
L184:
	.loc 7 76 1
	mov	x19, x0
	add	x0, sp, 88
	bl	__ZNSt7__cxx1112basic_stringIcSt11char_traitsIcESaIcEED1Ev
	add	x0, sp, 120
	bl	__ZNSt6vectorINSt7__cxx1112basic_stringIcSt11char_traitsIcESaIcEEESaIS5_EED1Ev
	mov	x0, x19
	bl	__Unwind_Resume
LEHE18:
L185:
	ldp	x19, x20, [sp, 16]
	ldr	x21, [sp, 32]
	ldp	x29, x30, [sp], 208
LCFI77:
	ret
LFE11633:
	.section __DATA,__gcc_except_tab
_GCC_except_table5:
LLSDA11633:
	.byte	0xff
	.byte	0xff
	.byte	0x1
	.uleb128 LLSDACSE11633-LLSDACSB11633
LLSDACSB11633:
	.uleb128 LEHB15-LFB11633
	.uleb128 LEHE15-LEHB15
	.uleb128 0
	.uleb128 0
	.uleb128 LEHB16-LFB11633
	.uleb128 LEHE16-LEHB16
	.uleb128 L183-LFB11633
	.uleb128 0
	.uleb128 LEHB17-LFB11633
	.uleb128 LEHE17-LEHB17
	.uleb128 L184-LFB11633
	.uleb128 0
	.uleb128 LEHB18-LFB11633
	.uleb128 LEHE18-LEHB18
	.uleb128 0
	.uleb128 0
LLSDACSE11633:
	.text
	.align	2
	.globl __Z9print_oneIP6matrixEDaRKT_
	.weak_definition __Z9print_oneIP6matrixEDaRKT_
__Z9print_oneIP6matrixEDaRKT_:
LFB11639:
	.loc 7 7 6
	stp	x29, x30, [sp, -448]!
LCFI78:
	mov	x29, sp
	str	x19, [sp, 16]
LCFI79:
	mov	x19, x8
	str	x0, [sp, 40]
	.loc 7 8 20
	add	x0, sp, 56
LEHB19:
	bl	__ZNSt7__cxx1118basic_stringstreamIcSt11char_traitsIcESaIcEEC1Ev
LEHE19:
	.loc 7 9 3
	ldr	x0, [sp, 40]
	ldr	x1, [x0]
	add	x0, sp, 56
	add	x0, x0, 16
LEHB20:
	bl	__ZlsRSoP6matrix
	.loc 7 10 15
	add	x0, sp, 56
	mov	x8, x19
	bl	__ZNKRSt7__cxx1118basic_stringstreamIcSt11char_traitsIcESaIcEE3strEv
LEHE20:
	nop
	.loc 7 11 1
	add	x0, sp, 56
	bl	__ZNSt7__cxx1118basic_stringstreamIcSt11char_traitsIcESaIcEED1Ev
	.loc 7 10 15
	b	L190
L189:
	.loc 7 11 1
	mov	x19, x0
	add	x0, sp, 56
	bl	__ZNSt7__cxx1118basic_stringstreamIcSt11char_traitsIcESaIcEED1Ev
	mov	x0, x19
LEHB21:
	bl	__Unwind_Resume
LEHE21:
L190:
	mov	x0, x19
	ldr	x19, [sp, 16]
	ldp	x29, x30, [sp], 448
LCFI80:
	ret
LFE11639:
	.section __DATA,__gcc_except_tab
_GCC_except_table6:
LLSDA11639:
	.byte	0xff
	.byte	0xff
	.byte	0x1
	.uleb128 LLSDACSE11639-LLSDACSB11639
LLSDACSB11639:
	.uleb128 LEHB19-LFB11639
	.uleb128 LEHE19-LEHB19
	.uleb128 0
	.uleb128 0
	.uleb128 LEHB20-LFB11639
	.uleb128 LEHE20-LEHB20
	.uleb128 L189-LFB11639
	.uleb128 0
	.uleb128 LEHB21-LFB11639
	.uleb128 LEHE21-LEHB21
	.uleb128 0
	.uleb128 0
LLSDACSE11639:
	.text
	.align	2
	.globl __Z5printIJP6matrixEEDaDpRKT_
	.weak_definition __Z5printIJP6matrixEEDaDpRKT_
__Z5printIJP6matrixEEDaDpRKT_:
LFB11638:
	.loc 7 63 6
	stp	x29, x30, [sp, -208]!
LCFI81:
	mov	x29, sp
	stp	x19, x20, [sp, 16]
	str	x21, [sp, 32]
LCFI82:
	str	x0, [sp, 56]
	.loc 7 64 7
	add	x0, sp, 144
	mov	x8, x0
	ldr	x0, [sp, 56]
LEHB22:
	bl	__Z9print_oneIP6matrixEDaRKT_
LEHE22:
	add	x0, sp, 144
	mov	x20, x0
	mov	x21, 1
	add	x0, sp, 176
	bl	__ZNSaINSt7__cxx1112basic_stringIcSt11char_traitsIcESaIcEEEEC1Ev
	add	x1, sp, 176
	add	x0, sp, 120
	mov	x3, x1
	mov	x1, x20
	mov	x2, x21
LEHB23:
	bl	__ZNSt6vectorINSt7__cxx1112basic_stringIcSt11char_traitsIcESaIcEEESaIS5_EEC1ESt16initializer_listIS5_ERKS6_
LEHE23:
	add	x0, sp, 176
	bl	__ZNSaINSt7__cxx1112basic_stringIcSt11char_traitsIcESaIcEEEED1Ev
	.loc 7 64 14
	add	x19, sp, 144
	add	x19, x19, 32
L193:
	add	x0, sp, 144
	cmp	x19, x0
	beq	L192
	.loc 7 64 14 is_stmt 0
	sub	x19, x19, #32
	mov	x0, x19
	bl	__ZNSt7__cxx1112basic_stringIcSt11char_traitsIcESaIcEED1Ev
	b	L193
L192:
	.loc 7 65 14 is_stmt 1
	add	x0, sp, 88
	bl	__ZNSt7__cxx1112basic_stringIcSt11char_traitsIcESaIcEEC1Ev
	.loc 7 66 6
	str	wzr, [sp, 204]
LBB76:
	.loc 7 67 2
	add	x0, sp, 120
	str	x0, [sp, 192]
	ldr	x0, [sp, 192]
	bl	__ZNSt6vectorINSt7__cxx1112basic_stringIcSt11char_traitsIcESaIcEEESaIS5_EE5beginEv
	str	x0, [sp, 80]
	ldr	x0, [sp, 192]
	bl	__ZNSt6vectorINSt7__cxx1112basic_stringIcSt11char_traitsIcESaIcEEESaIS5_EE3endEv
	str	x0, [sp, 72]
	b	L194
L197:
	.loc 7 67 2 is_stmt 0
	add	x0, sp, 80
	bl	__ZNK9__gnu_cxx17__normal_iteratorIPNSt7__cxx1112basic_stringIcSt11char_traitsIcESaIcEEESt6vectorIS6_SaIS6_EEEdeEv
	str	x0, [sp, 184]
	.loc 7 68 3 is_stmt 1
	ldr	w0, [sp, 204]
	cmp	w0, 0
	beq	L195
	.loc 7 69 7
	add	x2, sp, 88
	adrp	x0, lC2@GOTPAGE
	ldr	x1, [x0, lC2@GOTPAGEOFF];momd
	mov	x0, x2
LEHB24:
	bl	__ZNSt7__cxx1112basic_stringIcSt11char_traitsIcESaIcEEpLEPKc
	b	L196
L195:
	.loc 7 71 5
	mov	w0, 1
	str	w0, [sp, 204]
L196:
	.loc 7 73 6
	add	x0, sp, 88
	ldr	x1, [sp, 184]
	bl	__ZNSt7__cxx1112basic_stringIcSt11char_traitsIcESaIcEEpLERKS4_
	.loc 7 67 2
	add	x0, sp, 80
	bl	__ZN9__gnu_cxx17__normal_iteratorIPNSt7__cxx1112basic_stringIcSt11char_traitsIcESaIcEEESt6vectorIS6_SaIS6_EEEppEv
L194:
	.loc 7 67 2 is_stmt 0
	add	x1, sp, 72
	add	x0, sp, 80
	bl	__ZN9__gnu_cxxeqIPNSt7__cxx1112basic_stringIcSt11char_traitsIcESaIcEEES7_St6vectorIS6_SaIS6_EEEEbRKNS_17__normal_iteratorIT_T1_EERKNSB_IT0_SD_EE
	and	w0, w0, 255
	eor	w0, w0, 1
	and	w0, w0, 255
	cmp	w0, 0
	bne	L197
LBE76:
	.loc 7 75 11 is_stmt 1
	add	x0, sp, 88
	mov	x1, x0
	adrp	x0, __ZSt4cout@GOTPAGE
	ldr	x0, [x0, __ZSt4cout@GOTPAGEOFF];momd
	bl	__ZStlsIcSt11char_traitsIcESaIcEERSt13basic_ostreamIT_T0_ES7_RKNSt7__cxx1112basic_stringIS4_S5_T1_EE
	mov	x2, x0
	.loc 7 75 16
	adrp	x0, __ZSt4endlIcSt11char_traitsIcEERSt13basic_ostreamIT_T0_ES6_@GOTPAGE
	ldr	x1, [x0, __ZSt4endlIcSt11char_traitsIcEERSt13basic_ostreamIT_T0_ES6_@GOTPAGEOFF];momd
	mov	x0, x2
	bl	__ZNSolsEPFRSoS_E
LEHE24:
	.loc 7 76 1
	add	x0, sp, 88
	bl	__ZNSt7__cxx1112basic_stringIcSt11char_traitsIcESaIcEED1Ev
	add	x0, sp, 120
	bl	__ZNSt6vectorINSt7__cxx1112basic_stringIcSt11char_traitsIcESaIcEEESaIS5_EED1Ev
	b	L204
L202:
	mov	x19, x0
	add	x0, sp, 176
	bl	__ZNSaINSt7__cxx1112basic_stringIcSt11char_traitsIcESaIcEEEED1Ev
	mov	x20, x19
	.loc 7 64 14
	add	x19, sp, 144
	add	x19, x19, 32
L200:
	add	x0, sp, 144
	cmp	x19, x0
	beq	L199
	sub	x19, x19, #32
	mov	x0, x19
	bl	__ZNSt7__cxx1112basic_stringIcSt11char_traitsIcESaIcEED1Ev
	b	L200
L199:
	mov	x0, x20
LEHB25:
	bl	__Unwind_Resume
L203:
	.loc 7 76 1
	mov	x19, x0
	add	x0, sp, 88
	bl	__ZNSt7__cxx1112basic_stringIcSt11char_traitsIcESaIcEED1Ev
	add	x0, sp, 120
	bl	__ZNSt6vectorINSt7__cxx1112basic_stringIcSt11char_traitsIcESaIcEEESaIS5_EED1Ev
	mov	x0, x19
	bl	__Unwind_Resume
LEHE25:
L204:
	ldp	x19, x20, [sp, 16]
	ldr	x21, [sp, 32]
	ldp	x29, x30, [sp], 208
LCFI83:
	ret
LFE11638:
	.section __DATA,__gcc_except_tab
_GCC_except_table7:
LLSDA11638:
	.byte	0xff
	.byte	0xff
	.byte	0x1
	.uleb128 LLSDACSE11638-LLSDACSB11638
LLSDACSB11638:
	.uleb128 LEHB22-LFB11638
	.uleb128 LEHE22-LEHB22
	.uleb128 0
	.uleb128 0
	.uleb128 LEHB23-LFB11638
	.uleb128 LEHE23-LEHB23
	.uleb128 L202-LFB11638
	.uleb128 0
	.uleb128 LEHB24-LFB11638
	.uleb128 LEHE24-LEHB24
	.uleb128 L203-LFB11638
	.uleb128 0
	.uleb128 LEHB25-LFB11638
	.uleb128 LEHE25-LEHB25
	.uleb128 0
	.uleb128 0
LLSDACSE11638:
	.text
	.align	2
	.globl _main
_main:
LFB11632:
	.loc 9 301 11
	stp	x29, x30, [sp, -96]!
LCFI84:
	mov	x29, sp
	str	x19, [sp, 16]
LCFI85:
LBB77:
	.loc 9 302 24
	add	x0, sp, 56
	mov	x8, x0
	mov	x2, 1
	mov	x1, 17
	mov	x0, 4
LEHB26:
	bl	__Z5rangexxx
LEHE26:
	add	x0, sp, 56
	str	x0, [sp, 88]
	ldr	x0, [sp, 88]
	bl	__ZNSt6vectorIiSaIiEE5beginEv
	str	x0, [sp, 48]
	ldr	x0, [sp, 88]
	bl	__ZNSt6vectorIiSaIiEE3endEv
	str	x0, [sp, 40]
	.loc 9 302 2
	b	L206
L207:
LBB78:
	.loc 9 302 24
	add	x0, sp, 48
	bl	__ZNK9__gnu_cxx17__normal_iteratorIPiSt6vectorIiSaIiEEEdeEv
	ldr	w0, [x0]
	str	w0, [sp, 84]
	.loc 9 303 21
	ldr	w0, [sp, 84]
LEHB27:
	bl	__Z11init_matrixi
	.loc 9 303 23
	str	x0, [sp, 32]
	.loc 9 304 3
	add	x0, sp, 84
	bl	__Z5printIJiEEDaDpRKT_
	.loc 9 305 3
	add	x0, sp, 32
	bl	__Z5printIJP6matrixEEDaDpRKT_
LEHE27:
LBE78:
	.loc 9 302 24
	add	x0, sp, 48
	bl	__ZN9__gnu_cxx17__normal_iteratorIPiSt6vectorIiSaIiEEEppEv
L206:
	.loc 9 302 24 is_stmt 0
	add	x1, sp, 40
	add	x0, sp, 48
	bl	__ZN9__gnu_cxxeqIPiS1_St6vectorIiSaIiEEEEbRKNS_17__normal_iteratorIT_T1_EERKNS5_IT0_S7_EE
	and	w0, w0, 255
	eor	w0, w0, 1
	and	w0, w0, 255
	cmp	w0, 0
	bne	L207
	.loc 9 306 2 is_stmt 1
	add	x0, sp, 56
	bl	__ZNSt6vectorIiSaIiEED1Ev
LBE77:
	.loc 9 307 1
	mov	w0, 0
	b	L211
L210:
LBB79:
	.loc 9 306 2
	mov	x19, x0
	add	x0, sp, 56
	bl	__ZNSt6vectorIiSaIiEED1Ev
	mov	x0, x19
LEHB28:
	bl	__Unwind_Resume
LEHE28:
L211:
LBE79:
	.loc 9 307 1
	ldr	x19, [sp, 16]
	ldp	x29, x30, [sp], 96
LCFI86:
	ret
LFE11632:
	.section __DATA,__gcc_except_tab
_GCC_except_table8:
LLSDA11632:
	.byte	0xff
	.byte	0xff
	.byte	0x1
	.uleb128 LLSDACSE11632-LLSDACSB11632
LLSDACSB11632:
	.uleb128 LEHB26-LFB11632
	.uleb128 LEHE26-LEHB26
	.uleb128 0
	.uleb128 0
	.uleb128 LEHB27-LFB11632
	.uleb128 LEHE27-LEHB27
	.uleb128 L210-LFB11632
	.uleb128 0
	.uleb128 LEHB28-LFB11632
	.uleb128 LEHE28-LEHB28
	.uleb128 0
	.uleb128 0
LLSDACSE11632:
	.text
	.align	2
	.globl __ZN9__gnu_cxx11char_traitsIcE2eqERKcS3_
	.weak_definition __ZN9__gnu_cxx11char_traitsIcE2eqERKcS3_
__ZN9__gnu_cxx11char_traitsIcE2eqERKcS3_:
LFB11689:
	.loc 3 106 7
	sub	sp, sp, #16
LCFI87:
	str	x0, [sp, 8]
	str	x1, [sp]
	.loc 3 107 21
	ldr	x0, [sp, 8]
	ldrsb	w1, [x0]
	ldr	x0, [sp]
	ldrsb	w0, [x0]
	.loc 3 107 24
	cmp	w1, w0
	cset	w0, eq
	and	w0, w0, 255
	.loc 3 107 30
	add	sp, sp, 16
LCFI88:
	ret
LFE11689:
	.align	2
	.globl __ZN9__gnu_cxx11char_traitsIcE6lengthEPKc
	.weak_definition __ZN9__gnu_cxx11char_traitsIcE6lengthEPKc
__ZN9__gnu_cxx11char_traitsIcE6lengthEPKc:
LFB11688:
	.loc 3 167 5
	stp	x29, x30, [sp, -48]!
LCFI89:
	mov	x29, sp
	str	x0, [sp, 24]
	.loc 3 170 19
	str	xzr, [sp, 40]
	.loc 3 171 7
	b	L215
L216:
	.loc 3 172 9
	ldr	x0, [sp, 40]
	add	x0, x0, 1
	str	x0, [sp, 40]
L215:
	.loc 3 171 21
	ldr	x1, [sp, 24]
	ldr	x0, [sp, 40]
	add	x0, x1, x0
	.loc 3 171 17
	strb	wzr, [sp, 39]
	add	x1, sp, 39
	bl	__ZN9__gnu_cxx11char_traitsIcE2eqERKcS3_
	and	w0, w0, 255
	eor	w0, w0, 1
	and	w0, w0, 255
	cmp	w0, 0
	bne	L216
	.loc 3 173 14
	ldr	x0, [sp, 40]
	.loc 3 174 5
	ldp	x29, x30, [sp], 48
LCFI90:
	ret
LFE11688:
	.align	2
	.globl __ZSt4copyIPKcPcET0_T_S4_S3_
	.weak_definition __ZSt4copyIPKcPcET0_T_S4_S3_
__ZSt4copyIPKcPcET0_T_S4_S3_:
LFB11693:
	.loc 4 611 5
	stp	x29, x30, [sp, -64]!
LCFI91:
	mov	x29, sp
	str	x19, [sp, 16]
LCFI92:
	str	x0, [sp, 56]
	str	x1, [sp, 48]
	str	x2, [sp, 40]
	.loc 4 620 7
	ldr	x0, [sp, 56]
	bl	__ZSt12__miter_baseIPKcET_S2_
	mov	x19, x0
	ldr	x0, [sp, 48]
	bl	__ZSt12__miter_baseIPKcET_S2_
	ldr	x2, [sp, 40]
	mov	x1, x0
	mov	x0, x19
	bl	__ZSt13__copy_move_aILb0EPKcPcET1_T0_S4_S3_
	.loc 4 621 5
	ldr	x19, [sp, 16]
	ldp	x29, x30, [sp], 64
LCFI93:
	ret
LFE11693:
	.align	2
	.globl __ZN9__gnu_cxx11char_traitsIcE4copyEPcPKcm
	.weak_definition __ZN9__gnu_cxx11char_traitsIcE4copyEPcPKcm
__ZN9__gnu_cxx11char_traitsIcE4copyEPcPKcm:
LFB11694:
	.loc 3 212 5
	stp	x29, x30, [sp, -48]!
LCFI94:
	mov	x29, sp
	str	x0, [sp, 40]
	str	x1, [sp, 32]
	str	x2, [sp, 24]
	.loc 3 216 16
	ldr	x1, [sp, 32]
	ldr	x0, [sp, 24]
	add	x0, x1, x0
	ldr	x2, [sp, 40]
	mov	x1, x0
	ldr	x0, [sp, 32]
	bl	__ZSt4copyIPKcPcET0_T_S4_S3_
	.loc 3 217 14
	ldr	x0, [sp, 40]
	.loc 3 218 5
	ldp	x29, x30, [sp], 48
LCFI95:
	ret
LFE11694:
	.align	2
	.globl __ZNSt7__cxx1112basic_stringIcSt11char_traitsIcESaIcEE12_Alloc_hiderD1Ev
	.weak_definition __ZNSt7__cxx1112basic_stringIcSt11char_traitsIcESaIcEE12_Alloc_hiderD1Ev
__ZNSt7__cxx1112basic_stringIcSt11char_traitsIcESaIcEE12_Alloc_hiderD1Ev:
LFB11833:
	.file 10 "/opt/homebrew/Cellar/gcc/11.2.0/include/c++/11.1.0/bits/basic_string.h"
	.loc 10 150 14
	stp	x29, x30, [sp, -32]!
LCFI96:
	mov	x29, sp
	str	x0, [sp, 24]
LBB80:
	.loc 10 150 14
	ldr	x0, [sp, 24]
	bl	__ZNSaIcED2Ev
LBE80:
	nop
	ldp	x29, x30, [sp], 32
LCFI97:
	ret
LFE11833:
	.align	2
	.globl __ZNSt7__cxx1112basic_stringIcSt11char_traitsIcESaIcEED1Ev
	.weak_definition __ZNSt7__cxx1112basic_stringIcSt11char_traitsIcESaIcEED1Ev
__ZNSt7__cxx1112basic_stringIcSt11char_traitsIcESaIcEED1Ev:
LFB11838:
	.loc 10 657 7
	stp	x29, x30, [sp, -32]!
LCFI98:
	mov	x29, sp
	str	x0, [sp, 24]
LBB81:
	.loc 10 658 19
	ldr	x0, [sp, 24]
	bl	__ZNSt7__cxx1112basic_stringIcSt11char_traitsIcESaIcEE10_M_disposeEv
	.loc 10 658 23
	ldr	x0, [sp, 24]
	bl	__ZNSt7__cxx1112basic_stringIcSt11char_traitsIcESaIcEE12_Alloc_hiderD1Ev
LBE81:
	nop
	ldp	x29, x30, [sp], 32
LCFI99:
	ret
LFE11838:
	.section __DATA,__gcc_except_tab
_GCC_except_table9:
LLSDA11838:
	.byte	0xff
	.byte	0xff
	.byte	0x1
	.uleb128 LLSDACSE11838-LLSDACSB11838
LLSDACSB11838:
LLSDACSE11838:
	.text
	.align	2
	.globl __ZNKSt7__cxx1112basic_stringIcSt11char_traitsIcESaIcEE4sizeEv
	.weak_definition __ZNKSt7__cxx1112basic_stringIcSt11char_traitsIcESaIcEE4sizeEv
__ZNKSt7__cxx1112basic_stringIcSt11char_traitsIcESaIcEE4sizeEv:
LFB11844:
	.loc 10 906 7
	sub	sp, sp, #16
LCFI100:
	str	x0, [sp, 8]
	.loc 10 907 16
	ldr	x0, [sp, 8]
	ldr	x0, [x0, 8]
	.loc 10 907 34
	add	sp, sp, 16
LCFI101:
	ret
LFE11844:
	.align	2
	.globl __ZNKSt7__cxx1112basic_stringIcSt11char_traitsIcESaIcEE6lengthEv
	.weak_definition __ZNKSt7__cxx1112basic_stringIcSt11char_traitsIcESaIcEE6lengthEv
__ZNKSt7__cxx1112basic_stringIcSt11char_traitsIcESaIcEE6lengthEv:
LFB11929:
	.loc 10 912 7
	sub	sp, sp, #16
LCFI102:
	str	x0, [sp, 8]
	.loc 10 913 16
	ldr	x0, [sp, 8]
	ldr	x0, [x0, 8]
	.loc 10 913 34
	add	sp, sp, 16
LCFI103:
	ret
LFE11929:
	.align	2
	.globl __ZSt3maxImERKT_S2_S2_
	.weak_definition __ZSt3maxImERKT_S2_S2_
__ZSt3maxImERKT_S2_S2_:
LFB12000:
	.loc 4 254 5
	sub	sp, sp, #16
LCFI104:
	str	x0, [sp, 8]
	str	x1, [sp]
	.loc 4 259 15
	ldr	x0, [sp, 8]
	ldr	x1, [x0]
	ldr	x0, [sp]
	ldr	x0, [x0]
	.loc 4 259 7
	cmp	x1, x0
	bcs	L229
	.loc 4 260 9
	ldr	x0, [sp]
	b	L230
L229:
	.loc 4 261 14
	ldr	x0, [sp, 8]
L230:
	.loc 4 262 5
	add	sp, sp, 16
LCFI105:
	ret
LFE12000:
	.align	2
	.globl __ZSt7forwardIiEOT_RNSt16remove_referenceIS0_E4typeE
	.weak_definition __ZSt7forwardIiEOT_RNSt16remove_referenceIS0_E4typeE
__ZSt7forwardIiEOT_RNSt16remove_referenceIS0_E4typeE:
LFB12005:
	.file 11 "/opt/homebrew/Cellar/gcc/11.2.0/include/c++/11.1.0/bits/move.h"
	.loc 11 77 5
	sub	sp, sp, #16
LCFI106:
	str	x0, [sp, 8]
	.loc 11 78 36
	ldr	x0, [sp, 8]
	.loc 11 78 39
	add	sp, sp, 16
LCFI107:
	ret
LFE12005:
	.align	2
	.globl __ZNSt7__cxx1112basic_stringIcSt11char_traitsIcESaIcEEC1Ev
	.weak_definition __ZNSt7__cxx1112basic_stringIcSt11char_traitsIcESaIcEEC1Ev
__ZNSt7__cxx1112basic_stringIcSt11char_traitsIcESaIcEEC1Ev:
LFB12437:
	.loc 10 431 7
	stp	x29, x30, [sp, -64]!
LCFI108:
	mov	x29, sp
	stp	x19, x20, [sp, 16]
LCFI109:
	str	x0, [sp, 40]
LBB82:
	.loc 10 433 9
	ldr	x19, [sp, 40]
	ldr	x0, [sp, 40]
	bl	__ZNSt7__cxx1112basic_stringIcSt11char_traitsIcESaIcEE13_M_local_dataEv
	mov	x20, x0
	add	x0, sp, 56
	bl	__ZNSaIcEC1Ev
	add	x0, sp, 56
	mov	x2, x0
	mov	x1, x20
	mov	x0, x19
	bl	__ZNSt7__cxx1112basic_stringIcSt11char_traitsIcESaIcEE12_Alloc_hiderC1EPcOS3_
	add	x0, sp, 56
	bl	__ZNSaIcED1Ev
	.loc 10 434 22
	mov	x1, 0
	ldr	x0, [sp, 40]
	bl	__ZNSt7__cxx1112basic_stringIcSt11char_traitsIcESaIcEE13_M_set_lengthEm
LBE82:
	.loc 10 434 27
	nop
	ldp	x19, x20, [sp, 16]
	ldp	x29, x30, [sp], 64
LCFI110:
	ret
LFE12437:
	.align	2
	.globl __ZNSt7__cxx1112basic_stringIcSt11char_traitsIcESaIcEEC1ERKS4_
	.weak_definition __ZNSt7__cxx1112basic_stringIcSt11char_traitsIcESaIcEEC1ERKS4_
__ZNSt7__cxx1112basic_stringIcSt11char_traitsIcESaIcEEC1ERKS4_:
LFB12450:
	.loc 10 448 7
	stp	x29, x30, [sp, -64]!
LCFI111:
	mov	x29, sp
	stp	x19, x20, [sp, 16]
LCFI112:
	str	x0, [sp, 40]
	str	x1, [sp, 32]
LBB83:
	.loc 10 449 9
	ldr	x19, [sp, 40]
	ldr	x0, [sp, 40]
	bl	__ZNSt7__cxx1112basic_stringIcSt11char_traitsIcESaIcEE13_M_local_dataEv
	mov	x20, x0
	.loc 10 450 62
	ldr	x0, [sp, 32]
	bl	__ZNKSt7__cxx1112basic_stringIcSt11char_traitsIcESaIcEE16_M_get_allocatorEv
	mov	x1, x0
	.loc 10 449 9
	add	x0, sp, 56
	mov	x8, x0
	mov	x0, x1
LEHB29:
	bl	__ZN9__gnu_cxx14__alloc_traitsISaIcEcE17_S_select_on_copyERKS1_
LEHE29:
	add	x0, sp, 56
	mov	x2, x0
	mov	x1, x20
	mov	x0, x19
	bl	__ZNSt7__cxx1112basic_stringIcSt11char_traitsIcESaIcEE12_Alloc_hiderC1EPcOS3_
	add	x0, sp, 56
	bl	__ZNSaIcED1Ev
	.loc 10 451 21
	ldr	x0, [sp, 32]
	bl	__ZNKSt7__cxx1112basic_stringIcSt11char_traitsIcESaIcEE7_M_dataEv
	mov	x20, x0
	.loc 10 451 52
	ldr	x0, [sp, 32]
	bl	__ZNKSt7__cxx1112basic_stringIcSt11char_traitsIcESaIcEE7_M_dataEv
	mov	x19, x0
	.loc 10 451 69
	ldr	x0, [sp, 32]
	bl	__ZNKSt7__cxx1112basic_stringIcSt11char_traitsIcESaIcEE6lengthEv
	.loc 10 451 21
	add	x0, x19, x0
	mov	x2, x0
	mov	x1, x20
	ldr	x0, [sp, 40]
LEHB30:
	bl	__ZNSt7__cxx1112basic_stringIcSt11char_traitsIcESaIcEE12_M_constructIPcEEvT_S7_
LEHE30:
LBE83:
	.loc 10 451 74
	b	L237
L236:
LBB84:
	mov	x19, x0
	ldr	x0, [sp, 40]
	bl	__ZNSt7__cxx1112basic_stringIcSt11char_traitsIcESaIcEE12_Alloc_hiderD1Ev
	mov	x0, x19
LEHB31:
	bl	__Unwind_Resume
LEHE31:
L237:
LBE84:
	ldp	x19, x20, [sp, 16]
	ldp	x29, x30, [sp], 64
LCFI113:
	ret
LFE12450:
	.section __DATA,__gcc_except_tab
_GCC_except_table10:
LLSDA12450:
	.byte	0xff
	.byte	0xff
	.byte	0x1
	.uleb128 LLSDACSE12450-LLSDACSB12450
LLSDACSB12450:
	.uleb128 LEHB29-LFB12450
	.uleb128 LEHE29-LEHB29
	.uleb128 0
	.uleb128 0
	.uleb128 LEHB30-LFB12450
	.uleb128 LEHE30-LEHB30
	.uleb128 L236-LFB12450
	.uleb128 0
	.uleb128 LEHB31-LFB12450
	.uleb128 LEHE31-LEHB31
	.uleb128 0
	.uleb128 0
LLSDACSE12450:
	.text
	.align	2
	.globl __ZSt11__addressofINSt7__cxx1112basic_stringIcSt11char_traitsIcESaIcEEEEPT_RS6_
	.weak_definition __ZSt11__addressofINSt7__cxx1112basic_stringIcSt11char_traitsIcESaIcEEEEPT_RS6_
__ZSt11__addressofINSt7__cxx1112basic_stringIcSt11char_traitsIcESaIcEEEEPT_RS6_:
LFB12460:
	.loc 11 49 5
	sub	sp, sp, #16
LCFI114:
	str	x0, [sp, 8]
	.loc 11 50 37
	ldr	x0, [sp, 8]
	.loc 11 50 40
	add	sp, sp, 16
LCFI115:
	ret
LFE12460:
	.align	2
	.globl __ZSt7forwardIRKNSt7__cxx1112basic_stringIcSt11char_traitsIcESaIcEEEEOT_RNSt16remove_referenceIS8_E4typeE
	.weak_definition __ZSt7forwardIRKNSt7__cxx1112basic_stringIcSt11char_traitsIcESaIcEEEEOT_RNSt16remove_referenceIS8_E4typeE
__ZSt7forwardIRKNSt7__cxx1112basic_stringIcSt11char_traitsIcESaIcEEEEOT_RNSt16remove_referenceIS8_E4typeE:
LFB12467:
	.loc 11 77 5
	sub	sp, sp, #16
LCFI116:
	str	x0, [sp, 8]
	.loc 11 78 36
	ldr	x0, [sp, 8]
	.loc 11 78 39
	add	sp, sp, 16
LCFI117:
	ret
LFE12467:
	.align	2
	.globl __ZNSt12_Vector_baseIiSaIiEE12_Vector_implC1Ev
	.weak_definition __ZNSt12_Vector_baseIiSaIiEE12_Vector_implC1Ev
__ZNSt12_Vector_baseIiSaIiEE12_Vector_implC1Ev:
LFB12520:
	.loc 5 131 2
	stp	x29, x30, [sp, -32]!
LCFI118:
	mov	x29, sp
	str	x0, [sp, 24]
LBB85:
	.loc 5 133 19
	ldr	x0, [sp, 24]
	bl	__ZNSaIiEC2Ev
	ldr	x0, [sp, 24]
	bl	__ZNSt12_Vector_baseIiSaIiEE17_Vector_impl_dataC2Ev
LBE85:
	.loc 5 134 4
	nop
	ldp	x29, x30, [sp], 32
LCFI119:
	ret
LFE12520:
	.align	2
	.globl __ZNSaIiED2Ev
	.weak_definition __ZNSaIiED2Ev
__ZNSaIiED2Ev:
LFB12522:
	.file 12 "/opt/homebrew/Cellar/gcc/11.2.0/include/c++/11.1.0/bits/allocator.h"
	.loc 12 162 7
	sub	sp, sp, #16
LCFI120:
	str	x0, [sp, 8]
	.loc 12 162 39
	nop
	add	sp, sp, 16
LCFI121:
	ret
LFE12522:
	.align	2
	.globl __ZNSt12_Vector_baseIiSaIiEED2Ev
	.weak_definition __ZNSt12_Vector_baseIiSaIiEED2Ev
__ZNSt12_Vector_baseIiSaIiEED2Ev:
LFB12525:
	.loc 5 333 7
	stp	x29, x30, [sp, -32]!
LCFI122:
	mov	x29, sp
	str	x0, [sp, 24]
LBB86:
	.loc 5 335 15
	ldr	x0, [sp, 24]
	ldr	x3, [x0]
	.loc 5 336 17
	ldr	x0, [sp, 24]
	ldr	x1, [x0, 16]
	.loc 5 336 45
	ldr	x0, [sp, 24]
	ldr	x0, [x0]
	.loc 5 336 35
	sub	x0, x1, x0
	asr	x0, x0, 2
	.loc 5 335 15
	mov	x2, x0
	mov	x1, x3
	ldr	x0, [sp, 24]
	bl	__ZNSt12_Vector_baseIiSaIiEE13_M_deallocateEPim
	.loc 5 337 7
	ldr	x0, [sp, 24]
	bl	__ZNSt12_Vector_baseIiSaIiEE12_Vector_implD1Ev
LBE86:
	nop
	ldp	x29, x30, [sp], 32
LCFI123:
	ret
LFE12525:
	.section __DATA,__gcc_except_tab
_GCC_except_table11:
LLSDA12525:
	.byte	0xff
	.byte	0xff
	.byte	0x1
	.uleb128 LLSDACSE12525-LLSDACSB12525
LLSDACSB12525:
LLSDACSE12525:
	.text
	.align	2
	.globl __ZNSt6vectorIiSaIiEED1Ev
	.weak_definition __ZNSt6vectorIiSaIiEED1Ev
__ZNSt6vectorIiSaIiEED1Ev:
LFB12529:
	.loc 5 678 7
	stp	x29, x30, [sp, -48]!
LCFI124:
	mov	x29, sp
	stp	x19, x20, [sp, 16]
LCFI125:
	str	x0, [sp, 40]
LBB87:
	.loc 5 680 15
	ldr	x0, [sp, 40]
	ldr	x19, [x0]
	ldr	x0, [sp, 40]
	ldr	x20, [x0, 8]
	.loc 5 681 28
	ldr	x0, [sp, 40]
	bl	__ZNSt12_Vector_baseIiSaIiEE19_M_get_Tp_allocatorEv
	.loc 5 680 15
	mov	x2, x0
	mov	x1, x20
	mov	x0, x19
	bl	__ZSt8_DestroyIPiiEvT_S1_RSaIT0_E
	.loc 5 683 7
	ldr	x0, [sp, 40]
	bl	__ZNSt12_Vector_baseIiSaIiEED2Ev
LBE87:
	nop
	ldp	x19, x20, [sp, 16]
	ldp	x29, x30, [sp], 48
LCFI126:
	ret
LFE12529:
	.section __DATA,__gcc_except_tab
_GCC_except_table12:
LLSDA12529:
	.byte	0xff
	.byte	0xff
	.byte	0x1
	.uleb128 LLSDACSE12529-LLSDACSB12529
LLSDACSB12529:
LLSDACSE12529:
	.text
	.align	2
	.globl __ZNSt6vectorIiSaIiEE9push_backEOi
	.weak_definition __ZNSt6vectorIiSaIiEE9push_backEOi
__ZNSt6vectorIiSaIiEE9push_backEOi:
LFB12530:
	.loc 5 1203 7
	stp	x29, x30, [sp, -32]!
LCFI127:
	mov	x29, sp
	str	x0, [sp, 24]
	str	x1, [sp, 16]
	.loc 5 1204 31
	ldr	x0, [sp, 16]
	bl	__ZSt4moveIRiEONSt16remove_referenceIT_E4typeEOS2_
	.loc 5 1204 21
	mov	x1, x0
	ldr	x0, [sp, 24]
	bl	__ZNSt6vectorIiSaIiEE12emplace_backIJiEEERiDpOT_
	.loc 5 1204 39
	nop
	ldp	x29, x30, [sp], 32
LCFI128:
	ret
LFE12530:
	.align	2
	.globl __ZNSt6vectorIiSaIiEE5beginEv
	.weak_definition __ZNSt6vectorIiSaIiEE5beginEv
__ZNSt6vectorIiSaIiEE5beginEv:
LFB12547:
	.loc 5 811 7
	stp	x29, x30, [sp, -48]!
LCFI129:
	mov	x29, sp
	str	x0, [sp, 24]
	.loc 5 812 39
	ldr	x1, [sp, 24]
	.loc 5 812 16
	add	x0, sp, 40
	bl	__ZN9__gnu_cxx17__normal_iteratorIPiSt6vectorIiSaIiEEEC1ERKS1_
	.loc 5 812 47
	ldr	x0, [sp, 40]
	.loc 5 812 50
	ldp	x29, x30, [sp], 48
LCFI130:
	ret
LFE12547:
	.align	2
	.globl __ZNSt6vectorIiSaIiEE3endEv
	.weak_definition __ZNSt6vectorIiSaIiEE3endEv
__ZNSt6vectorIiSaIiEE3endEv:
LFB12548:
	.loc 5 829 7
	stp	x29, x30, [sp, -48]!
LCFI131:
	mov	x29, sp
	str	x0, [sp, 24]
	.loc 5 830 39
	ldr	x0, [sp, 24]
	add	x1, x0, 8
	.loc 5 830 16
	add	x0, sp, 40
	bl	__ZN9__gnu_cxx17__normal_iteratorIPiSt6vectorIiSaIiEEEC1ERKS1_
	.loc 5 830 48
	ldr	x0, [sp, 40]
	.loc 5 830 51
	ldp	x29, x30, [sp], 48
LCFI132:
	ret
LFE12548:
	.align	2
	.globl __ZNSaINSt7__cxx1112basic_stringIcSt11char_traitsIcESaIcEEEEC1Ev
	.weak_definition __ZNSaINSt7__cxx1112basic_stringIcSt11char_traitsIcESaIcEEEEC1Ev
__ZNSaINSt7__cxx1112basic_stringIcSt11char_traitsIcESaIcEEEEC1Ev:
LFB12556:
	.loc 12 144 7
	stp	x29, x30, [sp, -32]!
LCFI133:
	mov	x29, sp
	str	x0, [sp, 24]
LBB88:
	.loc 12 144 36
	ldr	x0, [sp, 24]
	bl	__ZN9__gnu_cxx13new_allocatorINSt7__cxx1112basic_stringIcSt11char_traitsIcESaIcEEEEC2Ev
LBE88:
	.loc 12 144 38
	nop
	ldp	x29, x30, [sp], 32
LCFI134:
	ret
LFE12556:
	.align	2
	.globl __ZNSaINSt7__cxx1112basic_stringIcSt11char_traitsIcESaIcEEEED2Ev
	.weak_definition __ZNSaINSt7__cxx1112basic_stringIcSt11char_traitsIcESaIcEEEED2Ev
__ZNSaINSt7__cxx1112basic_stringIcSt11char_traitsIcESaIcEEEED2Ev:
LFB12558:
	.loc 12 162 7
	sub	sp, sp, #16
LCFI135:
	str	x0, [sp, 8]
	.loc 12 162 39
	nop
	add	sp, sp, 16
LCFI136:
	ret
LFE12558:
	.align	2
	.globl __ZNSaINSt7__cxx1112basic_stringIcSt11char_traitsIcESaIcEEEED1Ev
	.weak_definition __ZNSaINSt7__cxx1112basic_stringIcSt11char_traitsIcESaIcEEEED1Ev
__ZNSaINSt7__cxx1112basic_stringIcSt11char_traitsIcESaIcEEEED1Ev:
LFB12559:
	.loc 12 162 7
	sub	sp, sp, #16
LCFI137:
	str	x0, [sp, 8]
	.loc 12 162 39
	nop
	add	sp, sp, 16
LCFI138:
	ret
LFE12559:
	.align	2
	.globl __ZNSt6vectorINSt7__cxx1112basic_stringIcSt11char_traitsIcESaIcEEESaIS5_EEC1ESt16initializer_listIS5_ERKS6_
	.weak_definition __ZNSt6vectorINSt7__cxx1112basic_stringIcSt11char_traitsIcESaIcEEESaIS5_EEC1ESt16initializer_listIS5_ERKS6_
__ZNSt6vectorINSt7__cxx1112basic_stringIcSt11char_traitsIcESaIcEEESaIS5_EEC1ESt16initializer_listIS5_ERKS6_:
LFB12562:
	.loc 5 625 7
	stp	x29, x30, [sp, -80]!
LCFI139:
	mov	x29, sp
	stp	x19, x20, [sp, 16]
LCFI140:
	str	x0, [sp, 56]
	stp	x1, x2, [sp, 40]
	str	x3, [sp, 32]
LBB89:
	.loc 5 627 18
	ldr	x0, [sp, 56]
	ldr	x1, [sp, 32]
	bl	__ZNSt12_Vector_baseINSt7__cxx1112basic_stringIcSt11char_traitsIcESaIcEEESaIS5_EEC2ERKS6_
	.loc 5 629 21
	add	x0, sp, 40
	bl	__ZNKSt16initializer_listINSt7__cxx1112basic_stringIcSt11char_traitsIcESaIcEEEE5beginEv
	mov	x19, x0
	add	x0, sp, 40
	bl	__ZNKSt16initializer_listINSt7__cxx1112basic_stringIcSt11char_traitsIcESaIcEEEE3endEv
	mov	w3, w20
	mov	x2, x0
	mov	x1, x19
	ldr	x0, [sp, 56]
LEHB32:
	bl	__ZNSt6vectorINSt7__cxx1112basic_stringIcSt11char_traitsIcESaIcEEESaIS5_EE19_M_range_initializeIPKS5_EEvT_SB_St20forward_iterator_tag
LEHE32:
LBE89:
	.loc 5 631 7
	b	L257
L256:
LBB90:
	mov	x19, x0
	ldr	x0, [sp, 56]
	bl	__ZNSt12_Vector_baseINSt7__cxx1112basic_stringIcSt11char_traitsIcESaIcEEESaIS5_EED2Ev
	mov	x0, x19
LEHB33:
	bl	__Unwind_Resume
LEHE33:
L257:
LBE90:
	ldp	x19, x20, [sp, 16]
	ldp	x29, x30, [sp], 80
LCFI141:
	ret
LFE12562:
	.section __DATA,__gcc_except_tab
_GCC_except_table13:
LLSDA12562:
	.byte	0xff
	.byte	0xff
	.byte	0x1
	.uleb128 LLSDACSE12562-LLSDACSB12562
LLSDACSB12562:
	.uleb128 LEHB32-LFB12562
	.uleb128 LEHE32-LEHB32
	.uleb128 L256-LFB12562
	.uleb128 0
	.uleb128 LEHB33-LFB12562
	.uleb128 LEHE33-LEHB33
	.uleb128 0
	.uleb128 0
LLSDACSE12562:
	.text
	.align	2
	.globl __ZNSt6vectorINSt7__cxx1112basic_stringIcSt11char_traitsIcESaIcEEESaIS5_EED1Ev
	.weak_definition __ZNSt6vectorINSt7__cxx1112basic_stringIcSt11char_traitsIcESaIcEEESaIS5_EED1Ev
__ZNSt6vectorINSt7__cxx1112basic_stringIcSt11char_traitsIcESaIcEEESaIS5_EED1Ev:
LFB12565:
	.loc 5 678 7
	stp	x29, x30, [sp, -48]!
LCFI142:
	mov	x29, sp
	stp	x19, x20, [sp, 16]
LCFI143:
	str	x0, [sp, 40]
LBB91:
	.loc 5 680 15
	ldr	x0, [sp, 40]
	ldr	x19, [x0]
	ldr	x0, [sp, 40]
	ldr	x20, [x0, 8]
	.loc 5 681 28
	ldr	x0, [sp, 40]
	bl	__ZNSt12_Vector_baseINSt7__cxx1112basic_stringIcSt11char_traitsIcESaIcEEESaIS5_EE19_M_get_Tp_allocatorEv
	.loc 5 680 15
	mov	x2, x0
	mov	x1, x20
	mov	x0, x19
	bl	__ZSt8_DestroyIPNSt7__cxx1112basic_stringIcSt11char_traitsIcESaIcEEES5_EvT_S7_RSaIT0_E
	.loc 5 683 7
	ldr	x0, [sp, 40]
	bl	__ZNSt12_Vector_baseINSt7__cxx1112basic_stringIcSt11char_traitsIcESaIcEEESaIS5_EED2Ev
LBE91:
	nop
	ldp	x19, x20, [sp, 16]
	ldp	x29, x30, [sp], 48
LCFI144:
	ret
LFE12565:
	.section __DATA,__gcc_except_tab
_GCC_except_table14:
LLSDA12565:
	.byte	0xff
	.byte	0xff
	.byte	0x1
	.uleb128 LLSDACSE12565-LLSDACSB12565
LLSDACSB12565:
LLSDACSE12565:
	.text
	.align	2
	.globl __ZNSt6vectorINSt7__cxx1112basic_stringIcSt11char_traitsIcESaIcEEESaIS5_EE5beginEv
	.weak_definition __ZNSt6vectorINSt7__cxx1112basic_stringIcSt11char_traitsIcESaIcEEESaIS5_EE5beginEv
__ZNSt6vectorINSt7__cxx1112basic_stringIcSt11char_traitsIcESaIcEEESaIS5_EE5beginEv:
LFB12566:
	.loc 5 811 7
	stp	x29, x30, [sp, -48]!
LCFI145:
	mov	x29, sp
	str	x0, [sp, 24]
	.loc 5 812 39
	ldr	x1, [sp, 24]
	.loc 5 812 16
	add	x0, sp, 40
	bl	__ZN9__gnu_cxx17__normal_iteratorIPNSt7__cxx1112basic_stringIcSt11char_traitsIcESaIcEEESt6vectorIS6_SaIS6_EEEC1ERKS7_
	.loc 5 812 47
	ldr	x0, [sp, 40]
	.loc 5 812 50
	ldp	x29, x30, [sp], 48
LCFI146:
	ret
LFE12566:
	.align	2
	.globl __ZNSt6vectorINSt7__cxx1112basic_stringIcSt11char_traitsIcESaIcEEESaIS5_EE3endEv
	.weak_definition __ZNSt6vectorINSt7__cxx1112basic_stringIcSt11char_traitsIcESaIcEEESaIS5_EE3endEv
__ZNSt6vectorINSt7__cxx1112basic_stringIcSt11char_traitsIcESaIcEEESaIS5_EE3endEv:
LFB12567:
	.loc 5 829 7
	stp	x29, x30, [sp, -48]!
LCFI147:
	mov	x29, sp
	str	x0, [sp, 24]
	.loc 5 830 39
	ldr	x0, [sp, 24]
	add	x1, x0, 8
	.loc 5 830 16
	add	x0, sp, 40
	bl	__ZN9__gnu_cxx17__normal_iteratorIPNSt7__cxx1112basic_stringIcSt11char_traitsIcESaIcEEESt6vectorIS6_SaIS6_EEEC1ERKS7_
	.loc 5 830 48
	ldr	x0, [sp, 40]
	.loc 5 830 51
	ldp	x29, x30, [sp], 48
LCFI148:
	ret
LFE12567:
	.align	2
	.globl __ZN9__gnu_cxxeqIPNSt7__cxx1112basic_stringIcSt11char_traitsIcESaIcEEES7_St6vectorIS6_SaIS6_EEEEbRKNS_17__normal_iteratorIT_T1_EERKNSB_IT0_SD_EE
	.weak_definition __ZN9__gnu_cxxeqIPNSt7__cxx1112basic_stringIcSt11char_traitsIcESaIcEEES7_St6vectorIS6_SaIS6_EEEEbRKNS_17__normal_iteratorIT_T1_EERKNSB_IT0_SD_EE
__ZN9__gnu_cxxeqIPNSt7__cxx1112basic_stringIcSt11char_traitsIcESaIcEEES7_St6vectorIS6_SaIS6_EEEEbRKNS_17__normal_iteratorIT_T1_EERKNSB_IT0_SD_EE:
LFB12568:
	.loc 8 1102 5
	stp	x29, x30, [sp, -48]!
LCFI149:
	mov	x29, sp
	str	x19, [sp, 16]
LCFI150:
	str	x0, [sp, 40]
	str	x1, [sp, 32]
	.loc 8 1105 24
	ldr	x0, [sp, 40]
	bl	__ZNK9__gnu_cxx17__normal_iteratorIPNSt7__cxx1112basic_stringIcSt11char_traitsIcESaIcEEESt6vectorIS6_SaIS6_EEE4baseEv
	.loc 8 1105 27
	ldr	x19, [x0]
	.loc 8 1105 40
	ldr	x0, [sp, 32]
	bl	__ZNK9__gnu_cxx17__normal_iteratorIPNSt7__cxx1112basic_stringIcSt11char_traitsIcESaIcEEESt6vectorIS6_SaIS6_EEE4baseEv
	.loc 8 1105 27
	ldr	x0, [x0]
	.loc 8 1105 41
	cmp	x19, x0
	cset	w0, eq
	and	w0, w0, 255
	.loc 8 1105 44
	ldr	x19, [sp, 16]
	ldp	x29, x30, [sp], 48
LCFI151:
	ret
LFE12568:
	.align	2
	.globl __ZNSt7__cxx1112basic_stringIcSt11char_traitsIcESaIcEEpLEPKc
	.weak_definition __ZNSt7__cxx1112basic_stringIcSt11char_traitsIcESaIcEEpLEPKc
__ZNSt7__cxx1112basic_stringIcSt11char_traitsIcESaIcEEpLEPKc:
LFB12569:
	.loc 10 1155 7
	stp	x29, x30, [sp, -32]!
LCFI152:
	mov	x29, sp
	str	x0, [sp, 24]
	str	x1, [sp, 16]
	.loc 10 1156 28
	ldr	x1, [sp, 16]
	ldr	x0, [sp, 24]
	bl	__ZNSt7__cxx1112basic_stringIcSt11char_traitsIcESaIcEE6appendEPKc
	.loc 10 1156 35
	ldp	x29, x30, [sp], 32
LCFI153:
	ret
LFE12569:
	.align	2
	.globl __ZNSt7__cxx1112basic_stringIcSt11char_traitsIcESaIcEEpLERKS4_
	.weak_definition __ZNSt7__cxx1112basic_stringIcSt11char_traitsIcESaIcEEpLERKS4_
__ZNSt7__cxx1112basic_stringIcSt11char_traitsIcESaIcEEpLERKS4_:
LFB12570:
	.loc 10 1146 7
	stp	x29, x30, [sp, -32]!
LCFI154:
	mov	x29, sp
	str	x0, [sp, 24]
	str	x1, [sp, 16]
	.loc 10 1147 28
	ldr	x1, [sp, 16]
	ldr	x0, [sp, 24]
	bl	__ZNSt7__cxx1112basic_stringIcSt11char_traitsIcESaIcEE6appendERKS4_
	.loc 10 1147 37
	ldp	x29, x30, [sp], 32
LCFI155:
	ret
LFE12570:
	.align	2
	.globl __ZSt12__miter_baseIPKcET_S2_
	.weak_definition __ZSt12__miter_baseIPKcET_S2_
__ZSt12__miter_baseIPKcET_S2_:
LFB12610:
	.file 13 "/opt/homebrew/Cellar/gcc/11.2.0/include/c++/11.1.0/bits/cpp_type_traits.h"
	.loc 13 560 5
	sub	sp, sp, #16
LCFI156:
	str	x0, [sp, 8]
	.loc 13 561 14
	ldr	x0, [sp, 8]
	.loc 13 561 20
	add	sp, sp, 16
LCFI157:
	ret
LFE12610:
	.align	2
	.globl __ZSt13__copy_move_aILb0EPKcPcET1_T0_S4_S3_
	.weak_definition __ZSt13__copy_move_aILb0EPKcPcET1_T0_S4_S3_
__ZSt13__copy_move_aILb0EPKcPcET1_T0_S4_S3_:
LFB12612:
	.loc 4 527 5
	stp	x29, x30, [sp, -64]!
LCFI158:
	mov	x29, sp
	stp	x19, x20, [sp, 16]
LCFI159:
	str	x0, [sp, 56]
	str	x1, [sp, 48]
	str	x2, [sp, 40]
	.loc 4 529 31
	ldr	x0, [sp, 56]
	bl	__ZSt12__niter_baseIPKcET_S2_
	mov	x19, x0
	ldr	x0, [sp, 48]
	bl	__ZSt12__niter_baseIPKcET_S2_
	mov	x20, x0
	ldr	x0, [sp, 40]
	bl	__ZSt12__niter_baseIPcET_S1_
	mov	x2, x0
	mov	x1, x20
	mov	x0, x19
	bl	__ZSt14__copy_move_a1ILb0EPKcPcET1_T0_S4_S3_
	mov	x1, x0
	add	x0, sp, 40
	bl	__ZSt12__niter_wrapIPcET_RKS1_S1_
	.loc 4 533 5
	ldp	x19, x20, [sp, 16]
	ldp	x29, x30, [sp], 64
LCFI160:
	ret
LFE12612:
	.align	2
	.globl __ZSt19__iterator_categoryIPcENSt15iterator_traitsIT_E17iterator_categoryERKS2_
	.weak_definition __ZSt19__iterator_categoryIPcENSt15iterator_traitsIT_E17iterator_categoryERKS2_
__ZSt19__iterator_categoryIPcENSt15iterator_traitsIT_E17iterator_categoryERKS2_:
LFB12613:
	.file 14 "/opt/homebrew/Cellar/gcc/11.2.0/include/c++/11.1.0/bits/stl_iterator_base_types.h"
	.loc 14 238 5
	sub	sp, sp, #16
LCFI161:
	str	x0, [sp, 8]
	.loc 14 239 65
	mov	w0, w1
	.loc 14 239 68
	add	sp, sp, 16
LCFI162:
	ret
LFE12613:
	.align	2
	.globl __ZNKSt7__cxx1112basic_stringIcSt11char_traitsIcESaIcEE7_M_dataEv
	.weak_definition __ZNKSt7__cxx1112basic_stringIcSt11char_traitsIcESaIcEE7_M_dataEv
__ZNKSt7__cxx1112basic_stringIcSt11char_traitsIcESaIcEE7_M_dataEv:
LFB12639:
	.loc 10 186 7
	sub	sp, sp, #16
LCFI163:
	str	x0, [sp, 8]
	.loc 10 187 28
	ldr	x0, [sp, 8]
	ldr	x0, [x0]
	.loc 10 187 34
	add	sp, sp, 16
LCFI164:
	ret
LFE12639:
	.align	2
	.globl __ZNSt7__cxx1112basic_stringIcSt11char_traitsIcESaIcEE13_M_local_dataEv
	.weak_definition __ZNSt7__cxx1112basic_stringIcSt11char_traitsIcESaIcEE13_M_local_dataEv
__ZNSt7__cxx1112basic_stringIcSt11char_traitsIcESaIcEE13_M_local_dataEv:
LFB12643:
	.loc 10 190 7
	stp	x29, x30, [sp, -32]!
LCFI165:
	mov	x29, sp
	str	x0, [sp, 24]
	.loc 10 193 51
	ldr	x0, [sp, 24]
	add	x0, x0, 16
	.loc 10 193 49
	bl	__ZNSt14pointer_traitsIPcE10pointer_toERc
	.loc 10 197 7
	ldp	x29, x30, [sp], 32
LCFI166:
	ret
LFE12643:
	.align	2
	.globl __ZNSt7__cxx1112basic_stringIcSt11char_traitsIcESaIcEE10_M_disposeEv
	.weak_definition __ZNSt7__cxx1112basic_stringIcSt11char_traitsIcESaIcEE10_M_disposeEv
__ZNSt7__cxx1112basic_stringIcSt11char_traitsIcESaIcEE10_M_disposeEv:
LFB12648:
	.loc 10 229 7
	stp	x29, x30, [sp, -32]!
LCFI167:
	mov	x29, sp
	str	x0, [sp, 24]
	.loc 10 231 18
	ldr	x0, [sp, 24]
	bl	__ZNKSt7__cxx1112basic_stringIcSt11char_traitsIcESaIcEE11_M_is_localEv
	and	w0, w0, 255
	eor	w0, w0, 1
	and	w0, w0, 255
	.loc 10 231 2
	cmp	w0, 0
	beq	L281
	.loc 10 232 14
	ldr	x0, [sp, 24]
	ldr	x0, [x0, 16]
	mov	x1, x0
	ldr	x0, [sp, 24]
	bl	__ZNSt7__cxx1112basic_stringIcSt11char_traitsIcESaIcEE10_M_destroyEm
L281:
	.loc 10 233 7
	nop
	ldp	x29, x30, [sp], 32
LCFI168:
	ret
LFE12648:
	.align	2
	.globl __ZNSt7__cxx1112basic_stringIcSt11char_traitsIcESaIcEE16_M_get_allocatorEv
	.weak_definition __ZNSt7__cxx1112basic_stringIcSt11char_traitsIcESaIcEE16_M_get_allocatorEv
__ZNSt7__cxx1112basic_stringIcSt11char_traitsIcESaIcEE16_M_get_allocatorEv:
LFB12649:
	.loc 10 286 7
	sub	sp, sp, #16
LCFI169:
	str	x0, [sp, 8]
	.loc 10 287 16
	ldr	x0, [sp, 8]
	.loc 10 287 29
	add	sp, sp, 16
LCFI170:
	ret
LFE12649:
	.align	2
	.globl __ZSt4moveIRSaIcEEONSt16remove_referenceIT_E4typeEOS3_
	.weak_definition __ZSt4moveIRSaIcEEONSt16remove_referenceIT_E4typeEOS3_
__ZSt4moveIRSaIcEEONSt16remove_referenceIT_E4typeEOS3_:
LFB12650:
	.loc 11 104 5
	sub	sp, sp, #16
LCFI171:
	str	x0, [sp, 8]
	.loc 11 105 74
	ldr	x0, [sp, 8]
	.loc 11 105 77
	add	sp, sp, 16
LCFI172:
	ret
LFE12650:
	.align	2
	.globl __ZNSt7__cxx1112basic_stringIcSt11char_traitsIcESaIcEE12_Alloc_hiderC1EPcOS3_
	.weak_definition __ZNSt7__cxx1112basic_stringIcSt11char_traitsIcESaIcEE12_Alloc_hiderC1EPcOS3_
__ZNSt7__cxx1112basic_stringIcSt11char_traitsIcESaIcEE12_Alloc_hiderC1EPcOS3_:
LFB12653:
	.loc 10 159 2
	stp	x29, x30, [sp, -48]!
LCFI173:
	mov	x29, sp
	str	x0, [sp, 40]
	str	x1, [sp, 32]
	str	x2, [sp, 24]
LBB92:
	.loc 10 160 28
	ldr	x0, [sp, 24]
	bl	__ZSt4moveIRSaIcEEONSt16remove_referenceIT_E4typeEOS3_
	.loc 10 160 46
	mov	x1, x0
	ldr	x0, [sp, 40]
	bl	__ZNSaIcEC2ERKS_
	.loc 10 160 36
	ldr	x0, [sp, 40]
	ldr	x1, [sp, 32]
	str	x1, [x0]
LBE92:
	.loc 10 160 50
	nop
	ldp	x29, x30, [sp], 48
LCFI174:
	ret
LFE12653:
	.align	2
	.globl __ZNKSt7__cxx1112basic_stringIcSt11char_traitsIcESaIcEE11_M_is_localEv
	.weak_definition __ZNKSt7__cxx1112basic_stringIcSt11char_traitsIcESaIcEE11_M_is_localEv
__ZNKSt7__cxx1112basic_stringIcSt11char_traitsIcESaIcEE11_M_is_localEv:
LFB12654:
	.loc 10 221 7
	stp	x29, x30, [sp, -48]!
LCFI175:
	mov	x29, sp
	str	x19, [sp, 16]
LCFI176:
	str	x0, [sp, 40]
	.loc 10 222 23
	ldr	x0, [sp, 40]
	bl	__ZNKSt7__cxx1112basic_stringIcSt11char_traitsIcESaIcEE7_M_dataEv
	mov	x19, x0
	.loc 10 222 42
	ldr	x0, [sp, 40]
	bl	__ZNKSt7__cxx1112basic_stringIcSt11char_traitsIcESaIcEE13_M_local_dataEv
	.loc 10 222 43
	cmp	x19, x0
	cset	w0, eq
	and	w0, w0, 255
	.loc 10 222 46
	ldr	x19, [sp, 16]
	ldp	x29, x30, [sp], 48
LCFI177:
	ret
LFE12654:
	.align	2
	.globl __ZNSt7__cxx1112basic_stringIcSt11char_traitsIcESaIcEE7_M_dataEPc
	.weak_definition __ZNSt7__cxx1112basic_stringIcSt11char_traitsIcESaIcEE7_M_dataEPc
__ZNSt7__cxx1112basic_stringIcSt11char_traitsIcESaIcEE7_M_dataEPc:
LFB12655:
	.loc 10 178 7
	sub	sp, sp, #16
LCFI178:
	str	x0, [sp, 8]
	str	x1, [sp]
	.loc 10 179 26
	ldr	x0, [sp, 8]
	ldr	x1, [sp]
	str	x1, [x0]
	.loc 10 179 33
	nop
	add	sp, sp, 16
LCFI179:
	ret
LFE12655:
	.align	2
	.globl __ZNSt7__cxx1112basic_stringIcSt11char_traitsIcESaIcEE11_M_capacityEm
	.weak_definition __ZNSt7__cxx1112basic_stringIcSt11char_traitsIcESaIcEE11_M_capacityEm
__ZNSt7__cxx1112basic_stringIcSt11char_traitsIcESaIcEE11_M_capacityEm:
LFB12656:
	.loc 10 210 7
	sub	sp, sp, #16
LCFI180:
	str	x0, [sp, 8]
	str	x1, [sp]
	.loc 10 211 31
	ldr	x0, [sp, 8]
	ldr	x1, [sp]
	str	x1, [x0, 16]
	.loc 10 211 45
	nop
	add	sp, sp, 16
LCFI181:
	ret
LFE12656:
	.align	2
	.globl __ZNSt7__cxx1112basic_stringIcSt11char_traitsIcESaIcEE9_M_lengthEm
	.weak_definition __ZNSt7__cxx1112basic_stringIcSt11char_traitsIcESaIcEE9_M_lengthEm
__ZNSt7__cxx1112basic_stringIcSt11char_traitsIcESaIcEE9_M_lengthEm:
LFB12657:
	.loc 10 182 7
	sub	sp, sp, #16
LCFI182:
	str	x0, [sp, 8]
	str	x1, [sp]
	.loc 10 183 26
	ldr	x0, [sp, 8]
	ldr	x1, [sp]
	str	x1, [x0, 8]
	.loc 10 183 38
	nop
	add	sp, sp, 16
LCFI183:
	ret
LFE12657:
	.align	2
	.globl __ZNSt7__cxx1112basic_stringIcSt11char_traitsIcESaIcEE13_M_set_lengthEm
	.weak_definition __ZNSt7__cxx1112basic_stringIcSt11char_traitsIcESaIcEE13_M_set_lengthEm
__ZNSt7__cxx1112basic_stringIcSt11char_traitsIcESaIcEE13_M_set_lengthEm:
LFB12658:
	.loc 10 214 7
	stp	x29, x30, [sp, -48]!
LCFI184:
	mov	x29, sp
	str	x0, [sp, 24]
	str	x1, [sp, 16]
	.loc 10 216 11
	ldr	x1, [sp, 16]
	ldr	x0, [sp, 24]
	bl	__ZNSt7__cxx1112basic_stringIcSt11char_traitsIcESaIcEE9_M_lengthEm
	.loc 10 217 29
	ldr	x0, [sp, 24]
	bl	__ZNKSt7__cxx1112basic_stringIcSt11char_traitsIcESaIcEE7_M_dataEv
	mov	x1, x0
	.loc 10 217 31
	ldr	x0, [sp, 16]
	add	x0, x1, x0
	.loc 10 217 21
	strb	wzr, [sp, 47]
	add	x1, sp, 47
	bl	__ZNSt11char_traitsIcE6assignERcRKc
	.loc 10 218 7
	nop
	ldp	x29, x30, [sp], 48
LCFI185:
	ret
LFE12658:
	.cstring
	.align	3
lC4:
	.ascii "basic_string::append\0"
	.text
	.align	2
	.globl __ZNSt7__cxx1112basic_stringIcSt11char_traitsIcESaIcEE6appendEPKc
	.weak_definition __ZNSt7__cxx1112basic_stringIcSt11char_traitsIcESaIcEE6appendEPKc
__ZNSt7__cxx1112basic_stringIcSt11char_traitsIcESaIcEE6appendEPKc:
LFB12706:
	.loc 10 1241 7
	stp	x29, x30, [sp, -48]!
LCFI186:
	mov	x29, sp
	str	x0, [sp, 24]
	str	x1, [sp, 16]
	.loc 10 1244 43
	ldr	x0, [sp, 16]
	bl	__ZNSt11char_traitsIcE6lengthEPKc
	str	x0, [sp, 40]
	.loc 10 1245 17
	adrp	x0, lC4@GOTPAGE
	ldr	x3, [x0, lC4@GOTPAGEOFF];momd
	ldr	x2, [sp, 40]
	mov	x1, 0
	ldr	x0, [sp, 24]
	bl	__ZNKSt7__cxx1112basic_stringIcSt11char_traitsIcESaIcEE15_M_check_lengthEmmPKc
	.loc 10 1246 18
	ldr	x2, [sp, 40]
	ldr	x1, [sp, 16]
	ldr	x0, [sp, 24]
	bl	__ZNSt7__cxx1112basic_stringIcSt11char_traitsIcESaIcEE9_M_appendEPKcm
	.loc 10 1247 7
	ldp	x29, x30, [sp], 48
LCFI187:
	ret
LFE12706:
	.align	2
	.globl __ZNKSt7__cxx1112basic_stringIcSt11char_traitsIcESaIcEE8capacityEv
	.weak_definition __ZNKSt7__cxx1112basic_stringIcSt11char_traitsIcESaIcEE8capacityEv
__ZNKSt7__cxx1112basic_stringIcSt11char_traitsIcESaIcEE8capacityEv:
LFB12707:
	.loc 10 962 7
	stp	x29, x30, [sp, -32]!
LCFI188:
	mov	x29, sp
	str	x0, [sp, 24]
	.loc 10 964 20
	ldr	x0, [sp, 24]
	bl	__ZNKSt7__cxx1112basic_stringIcSt11char_traitsIcESaIcEE11_M_is_localEv
	and	w0, w0, 255
	.loc 10 964 23
	cmp	w0, 0
	beq	L296
	.loc 10 964 23 is_stmt 0
	mov	x0, 15
	.loc 10 965 25 is_stmt 1
	b	L298
L296:
	.loc 10 964 23
	ldr	x0, [sp, 24]
	ldr	x0, [x0, 16]
L298:
	.loc 10 966 7
	ldp	x29, x30, [sp], 32
LCFI189:
	ret
LFE12707:
	.align	2
	.globl __ZNSt7__cxx1112basic_stringIcSt11char_traitsIcESaIcEE6appendERKS4_
	.weak_definition __ZNSt7__cxx1112basic_stringIcSt11char_traitsIcESaIcEE6appendERKS4_
__ZNSt7__cxx1112basic_stringIcSt11char_traitsIcESaIcEE6appendERKS4_:
LFB12709:
	.loc 10 1199 7
	stp	x29, x30, [sp, -48]!
LCFI190:
	mov	x29, sp
	str	x19, [sp, 16]
LCFI191:
	str	x0, [sp, 40]
	str	x1, [sp, 32]
	.loc 10 1200 39
	ldr	x0, [sp, 32]
	bl	__ZNKSt7__cxx1112basic_stringIcSt11char_traitsIcESaIcEE7_M_dataEv
	mov	x19, x0
	.loc 10 1200 25
	ldr	x0, [sp, 32]
	bl	__ZNKSt7__cxx1112basic_stringIcSt11char_traitsIcESaIcEE4sizeEv
	mov	x2, x0
	mov	x1, x19
	ldr	x0, [sp, 40]
	bl	__ZNSt7__cxx1112basic_stringIcSt11char_traitsIcESaIcEE9_M_appendEPKcm
	.loc 10 1200 58
	ldr	x19, [sp, 16]
	ldp	x29, x30, [sp], 48
LCFI192:
	ret
LFE12709:
	.align	2
	.globl __ZN9__gnu_cxx14__alloc_traitsISaIcEcE17_S_select_on_copyERKS1_
	.weak_definition __ZN9__gnu_cxx14__alloc_traitsISaIcEcE17_S_select_on_copyERKS1_
__ZN9__gnu_cxx14__alloc_traitsISaIcEcE17_S_select_on_copyERKS1_:
LFB12943:
	.file 15 "/opt/homebrew/Cellar/gcc/11.2.0/include/c++/11.1.0/ext/alloc_traits.h"
	.loc 15 97 29
	stp	x29, x30, [sp, -48]!
LCFI193:
	mov	x29, sp
	str	x19, [sp, 16]
LCFI194:
	mov	x19, x8
	str	x0, [sp, 40]
	.loc 15 98 67
	mov	x8, x19
	ldr	x0, [sp, 40]
	bl	__ZNSt16allocator_traitsISaIcEE37select_on_container_copy_constructionERKS0_
	.loc 15 98 70
	mov	x0, x19
	ldr	x19, [sp, 16]
	ldp	x29, x30, [sp], 48
LCFI195:
	ret
LFE12943:
	.align	2
	.globl __ZNKSt7__cxx1112basic_stringIcSt11char_traitsIcESaIcEE16_M_get_allocatorEv
	.weak_definition __ZNKSt7__cxx1112basic_stringIcSt11char_traitsIcESaIcEE16_M_get_allocatorEv
__ZNKSt7__cxx1112basic_stringIcSt11char_traitsIcESaIcEE16_M_get_allocatorEv:
LFB12944:
	.loc 10 290 7
	sub	sp, sp, #16
LCFI196:
	str	x0, [sp, 8]
	.loc 10 291 16
	ldr	x0, [sp, 8]
	.loc 10 291 29
	add	sp, sp, 16
LCFI197:
	ret
LFE12944:
	.align	2
	.globl __ZNSt7__cxx1112basic_stringIcSt11char_traitsIcESaIcEE12_M_constructIPcEEvT_S7_
	.weak_definition __ZNSt7__cxx1112basic_stringIcSt11char_traitsIcESaIcEE12_M_constructIPcEEvT_S7_
__ZNSt7__cxx1112basic_stringIcSt11char_traitsIcESaIcEE12_M_constructIPcEEvT_S7_:
LFB12945:
	.loc 10 263 9
	stp	x29, x30, [sp, -48]!
LCFI198:
	mov	x29, sp
	str	x0, [sp, 40]
	str	x1, [sp, 32]
	str	x2, [sp, 24]
	.loc 10 266 20
	ldr	x2, [sp, 24]
	ldr	x1, [sp, 32]
	ldr	x0, [sp, 40]
	bl	__ZNSt7__cxx1112basic_stringIcSt11char_traitsIcESaIcEE16_M_construct_auxIPcEEvT_S7_St12__false_type
	.loc 10 267 9
	nop
	ldp	x29, x30, [sp], 48
LCFI199:
	ret
LFE12945:
	.align	2
	.globl __ZNSt7__cxx1112basic_stringIcSt11char_traitsIcESaIcEE10_M_destroyEm
	.weak_definition __ZNSt7__cxx1112basic_stringIcSt11char_traitsIcESaIcEE10_M_destroyEm
__ZNSt7__cxx1112basic_stringIcSt11char_traitsIcESaIcEE10_M_destroyEm:
LFB12957:
	.loc 10 236 7
	stp	x29, x30, [sp, -48]!
LCFI200:
	mov	x29, sp
	str	x19, [sp, 16]
LCFI201:
	str	x0, [sp, 40]
	str	x1, [sp, 32]
	.loc 10 237 51
	ldr	x0, [sp, 40]
	bl	__ZNSt7__cxx1112basic_stringIcSt11char_traitsIcESaIcEE16_M_get_allocatorEv
	mov	x19, x0
	.loc 10 237 34
	ldr	x0, [sp, 40]
	bl	__ZNKSt7__cxx1112basic_stringIcSt11char_traitsIcESaIcEE7_M_dataEv
	mov	x1, x0
	ldr	x0, [sp, 32]
	add	x0, x0, 1
	mov	x2, x0
	mov	x0, x19
	bl	__ZNSt16allocator_traitsISaIcEE10deallocateERS0_Pcm
	.loc 10 237 79
	nop
	ldr	x19, [sp, 16]
	ldp	x29, x30, [sp], 48
LCFI202:
	ret
LFE12957:
	.section __DATA,__gcc_except_tab
_GCC_except_table15:
LLSDA12957:
	.byte	0xff
	.byte	0xff
	.byte	0x1
	.uleb128 LLSDACSE12957-LLSDACSB12957
LLSDACSB12957:
LLSDACSE12957:
	.text
	.align	2
	.globl __ZNSt7__cxx1112basic_stringIcSt11char_traitsIcESaIcEE7_S_copyEPcPKcm
	.weak_definition __ZNSt7__cxx1112basic_stringIcSt11char_traitsIcESaIcEE7_S_copyEPcPKcm
__ZNSt7__cxx1112basic_stringIcSt11char_traitsIcESaIcEE7_S_copyEPcPKcm:
LFB12959:
	.loc 10 346 7
	stp	x29, x30, [sp, -48]!
LCFI203:
	mov	x29, sp
	str	x0, [sp, 40]
	str	x1, [sp, 32]
	str	x2, [sp, 24]
	.loc 10 348 2
	ldr	x0, [sp, 24]
	cmp	x0, 1
	bne	L308
	.loc 10 349 23
	ldr	x1, [sp, 32]
	ldr	x0, [sp, 40]
	bl	__ZNSt11char_traitsIcE6assignERcRKc
	.loc 10 352 7
	b	L310
L308:
	.loc 10 351 21
	ldr	x2, [sp, 24]
	ldr	x1, [sp, 32]
	ldr	x0, [sp, 40]
	bl	__ZNSt11char_traitsIcE4copyEPcPKcm
L310:
	.loc 10 352 7
	nop
	ldp	x29, x30, [sp], 48
LCFI204:
	ret
LFE12959:
	.align	2
	.globl __ZNSt16allocator_traitsISaIcEE8allocateERS0_m
	.weak_definition __ZNSt16allocator_traitsISaIcEE8allocateERS0_m
__ZNSt16allocator_traitsISaIcEE8allocateERS0_m:
LFB12962:
	.file 16 "/opt/homebrew/Cellar/gcc/11.2.0/include/c++/11.1.0/bits/alloc_traits.h"
	.loc 16 459 7
	stp	x29, x30, [sp, -48]!
LCFI205:
	mov	x29, sp
	str	x0, [sp, 24]
	str	x1, [sp, 16]
	ldr	x0, [sp, 24]
	str	x0, [sp, 40]
	ldr	x0, [sp, 16]
	str	x0, [sp, 32]
LBB93:
LBB94:
	.loc 12 170 32
	bl	__ZSt21is_constant_evaluatedv
	and	w0, w0, 255
	.loc 12 170 2
	cmp	w0, 0
	beq	L312
	.loc 12 171 43
	ldr	x0, [sp, 32]
	bl	__Znwm
	.loc 12 171 62
	b	L313
L312:
	.loc 12 173 40
	mov	x2, 0
	ldr	x1, [sp, 32]
	ldr	x0, [sp, 40]
	bl	__ZN9__gnu_cxx13new_allocatorIcE8allocateEmPKv
	.loc 12 173 47
	nop
L313:
LBE94:
LBE93:
	.loc 16 460 35
	ldp	x29, x30, [sp], 48
LCFI206:
	ret
LFE12962:
	.align	2
	.globl __ZNSaIiEC2Ev
	.weak_definition __ZNSaIiEC2Ev
__ZNSaIiEC2Ev:
LFB13035:
	.loc 12 144 7
	stp	x29, x30, [sp, -32]!
LCFI207:
	mov	x29, sp
	str	x0, [sp, 24]
LBB95:
	.loc 12 144 36
	ldr	x0, [sp, 24]
	bl	__ZN9__gnu_cxx13new_allocatorIiEC2Ev
LBE95:
	.loc 12 144 38
	nop
	ldp	x29, x30, [sp], 32
LCFI208:
	ret
LFE13035:
	.align	2
	.globl __ZNSt12_Vector_baseIiSaIiEE17_Vector_impl_dataC2Ev
	.weak_definition __ZNSt12_Vector_baseIiSaIiEE17_Vector_impl_dataC2Ev
__ZNSt12_Vector_baseIiSaIiEE17_Vector_impl_dataC2Ev:
LFB13038:
	.loc 5 97 2
	sub	sp, sp, #16
LCFI209:
	str	x0, [sp, 8]
LBB96:
	.loc 5 98 4
	ldr	x0, [sp, 8]
	str	xzr, [x0]
	.loc 5 98 16
	ldr	x0, [sp, 8]
	str	xzr, [x0, 8]
	.loc 5 98 29
	ldr	x0, [sp, 8]
	str	xzr, [x0, 16]
LBE96:
	.loc 5 99 4
	nop
	add	sp, sp, 16
LCFI210:
	ret
LFE13038:
	.align	2
	.globl __ZNSt12_Vector_baseIiSaIiEE13_M_deallocateEPim
	.weak_definition __ZNSt12_Vector_baseIiSaIiEE13_M_deallocateEPim
__ZNSt12_Vector_baseIiSaIiEE13_M_deallocateEPim:
LFB13040:
	.loc 5 350 7
	stp	x29, x30, [sp, -48]!
LCFI211:
	mov	x29, sp
	str	x0, [sp, 40]
	str	x1, [sp, 32]
	str	x2, [sp, 24]
	.loc 5 353 2
	ldr	x0, [sp, 32]
	cmp	x0, 0
	beq	L319
	.loc 5 354 20
	ldr	x0, [sp, 40]
	.loc 5 354 19
	ldr	x2, [sp, 24]
	ldr	x1, [sp, 32]
	bl	__ZNSt16allocator_traitsISaIiEE10deallocateERS0_Pim
L319:
	.loc 5 355 7
	nop
	ldp	x29, x30, [sp], 48
LCFI212:
	ret
LFE13040:
	.align	2
	.globl __ZNSt12_Vector_baseIiSaIiEE19_M_get_Tp_allocatorEv
	.weak_definition __ZNSt12_Vector_baseIiSaIiEE19_M_get_Tp_allocatorEv
__ZNSt12_Vector_baseIiSaIiEE19_M_get_Tp_allocatorEv:
LFB13041:
	.loc 5 276 7
	sub	sp, sp, #16
LCFI213:
	str	x0, [sp, 8]
	.loc 5 277 22
	ldr	x0, [sp, 8]
	.loc 5 277 31
	add	sp, sp, 16
LCFI214:
	ret
LFE13041:
	.align	2
	.globl __ZSt8_DestroyIPiiEvT_S1_RSaIT0_E
	.weak_definition __ZSt8_DestroyIPiiEvT_S1_RSaIT0_E
__ZSt8_DestroyIPiiEvT_S1_RSaIT0_E:
LFB13042:
	.loc 16 743 5
	stp	x29, x30, [sp, -48]!
LCFI215:
	mov	x29, sp
	str	x0, [sp, 40]
	str	x1, [sp, 32]
	str	x2, [sp, 24]
	.loc 16 746 15
	ldr	x1, [sp, 32]
	ldr	x0, [sp, 40]
	bl	__ZSt8_DestroyIPiEvT_S1_
	.loc 16 747 5
	nop
	ldp	x29, x30, [sp], 48
LCFI216:
	ret
LFE13042:
	.align	2
	.globl __ZSt4moveIRiEONSt16remove_referenceIT_E4typeEOS2_
	.weak_definition __ZSt4moveIRiEONSt16remove_referenceIT_E4typeEOS2_
__ZSt4moveIRiEONSt16remove_referenceIT_E4typeEOS2_:
LFB13043:
	.loc 11 104 5
	sub	sp, sp, #16
LCFI217:
	str	x0, [sp, 8]
	.loc 11 105 74
	ldr	x0, [sp, 8]
	.loc 11 105 77
	add	sp, sp, 16
LCFI218:
	ret
LFE13043:
	.align	2
	.globl __ZNSt6vectorIiSaIiEE12emplace_backIJiEEERiDpOT_
	.weak_definition __ZNSt6vectorIiSaIiEE12emplace_backIJiEEERiDpOT_
__ZNSt6vectorIiSaIiEE12emplace_backIJiEEERiDpOT_:
LFB13044:
	.file 17 "/opt/homebrew/Cellar/gcc/11.2.0/include/c++/11.1.0/bits/vector.tcc"
	.loc 17 109 7
	stp	x29, x30, [sp, -48]!
LCFI219:
	mov	x29, sp
	stp	x19, x20, [sp, 16]
LCFI220:
	str	x0, [sp, 40]
	str	x1, [sp, 32]
	.loc 17 112 20
	ldr	x0, [sp, 40]
	ldr	x1, [x0, 8]
	.loc 17 112 47
	ldr	x0, [sp, 40]
	ldr	x0, [x0, 16]
	.loc 17 112 2
	cmp	x1, x0
	beq	L326
	.loc 17 115 37
	ldr	x19, [sp, 40]
	.loc 17 115 30
	ldr	x0, [sp, 40]
	ldr	x20, [x0, 8]
	ldr	x0, [sp, 32]
	bl	__ZSt7forwardIiEOT_RNSt16remove_referenceIS0_E4typeE
	mov	x2, x0
	mov	x1, x20
	mov	x0, x19
	bl	__ZNSt16allocator_traitsISaIiEE9constructIiJiEEEvRS0_PT_DpOT0_
	.loc 17 117 22
	ldr	x0, [sp, 40]
	ldr	x0, [x0, 8]
	.loc 17 117 6
	add	x1, x0, 4
	ldr	x0, [sp, 40]
	str	x1, [x0, 8]
	b	L327
L326:
	.loc 17 121 21
	ldr	x0, [sp, 40]
	bl	__ZNSt6vectorIiSaIiEE3endEv
	mov	x19, x0
	ldr	x0, [sp, 32]
	bl	__ZSt7forwardIiEOT_RNSt16remove_referenceIS0_E4typeE
	mov	x2, x0
	mov	x1, x19
	ldr	x0, [sp, 40]
	bl	__ZNSt6vectorIiSaIiEE17_M_realloc_insertIJiEEEvN9__gnu_cxx17__normal_iteratorIPiS1_EEDpOT_
L327:
	.loc 17 123 13
	ldr	x0, [sp, 40]
	bl	__ZNSt6vectorIiSaIiEE4backEv
	.loc 17 125 7
	ldp	x19, x20, [sp, 16]
	ldp	x29, x30, [sp], 48
LCFI221:
	ret
LFE13044:
	.align	2
	.globl __ZN9__gnu_cxx17__normal_iteratorIPiSt6vectorIiSaIiEEEC1ERKS1_
	.weak_definition __ZN9__gnu_cxx17__normal_iteratorIPiSt6vectorIiSaIiEEEC1ERKS1_
__ZN9__gnu_cxx17__normal_iteratorIPiSt6vectorIiSaIiEEEC1ERKS1_:
LFB13077:
	.loc 8 1007 7
	sub	sp, sp, #16
LCFI222:
	str	x0, [sp, 8]
	str	x1, [sp]
LBB97:
	.loc 8 1008 9
	ldr	x0, [sp]
	ldr	x1, [x0]
	ldr	x0, [sp, 8]
	str	x1, [x0]
LBE97:
	.loc 8 1008 27
	nop
	add	sp, sp, 16
LCFI223:
	ret
LFE13077:
	.align	2
	.globl __ZN9__gnu_cxx13new_allocatorINSt7__cxx1112basic_stringIcSt11char_traitsIcESaIcEEEEC2Ev
	.weak_definition __ZN9__gnu_cxx13new_allocatorINSt7__cxx1112basic_stringIcSt11char_traitsIcESaIcEEEEC2Ev
__ZN9__gnu_cxx13new_allocatorINSt7__cxx1112basic_stringIcSt11char_traitsIcESaIcEEEEC2Ev:
LFB13081:
	.file 18 "/opt/homebrew/Cellar/gcc/11.2.0/include/c++/11.1.0/ext/new_allocator.h"
	.loc 18 79 7
	sub	sp, sp, #16
LCFI224:
	str	x0, [sp, 8]
	.loc 18 79 47
	nop
	add	sp, sp, 16
LCFI225:
	ret
LFE13081:
	.align	2
	.globl __ZNSt12_Vector_baseINSt7__cxx1112basic_stringIcSt11char_traitsIcESaIcEEESaIS5_EE12_Vector_implD1Ev
	.weak_definition __ZNSt12_Vector_baseINSt7__cxx1112basic_stringIcSt11char_traitsIcESaIcEEESaIS5_EE12_Vector_implD1Ev
__ZNSt12_Vector_baseINSt7__cxx1112basic_stringIcSt11char_traitsIcESaIcEEESaIS5_EE12_Vector_implD1Ev:
LFB13086:
	.loc 5 128 14
	stp	x29, x30, [sp, -32]!
LCFI226:
	mov	x29, sp
	str	x0, [sp, 24]
LBB98:
	.loc 5 128 14
	ldr	x0, [sp, 24]
	bl	__ZNSaINSt7__cxx1112basic_stringIcSt11char_traitsIcESaIcEEEED2Ev
LBE98:
	nop
	ldp	x29, x30, [sp], 32
LCFI227:
	ret
LFE13086:
	.align	2
	.globl __ZNSt12_Vector_baseINSt7__cxx1112basic_stringIcSt11char_traitsIcESaIcEEESaIS5_EEC2ERKS6_
	.weak_definition __ZNSt12_Vector_baseINSt7__cxx1112basic_stringIcSt11char_traitsIcESaIcEEESaIS5_EEC2ERKS6_
__ZNSt12_Vector_baseINSt7__cxx1112basic_stringIcSt11char_traitsIcESaIcEEESaIS5_EEC2ERKS6_:
LFB13087:
	.loc 5 293 7
	stp	x29, x30, [sp, -32]!
LCFI228:
	mov	x29, sp
	str	x0, [sp, 24]
	str	x1, [sp, 16]
LBB99:
	.loc 5 294 9
	ldr	x0, [sp, 24]
	ldr	x1, [sp, 16]
	bl	__ZNSt12_Vector_baseINSt7__cxx1112basic_stringIcSt11char_traitsIcESaIcEEESaIS5_EE12_Vector_implC1ERKS6_
LBE99:
	.loc 5 294 24
	nop
	ldp	x29, x30, [sp], 32
LCFI229:
	ret
LFE13087:
	.align	2
	.globl __ZNSt12_Vector_baseINSt7__cxx1112basic_stringIcSt11char_traitsIcESaIcEEESaIS5_EED2Ev
	.weak_definition __ZNSt12_Vector_baseINSt7__cxx1112basic_stringIcSt11char_traitsIcESaIcEEESaIS5_EED2Ev
__ZNSt12_Vector_baseINSt7__cxx1112basic_stringIcSt11char_traitsIcESaIcEEESaIS5_EED2Ev:
LFB13090:
	.loc 5 333 7
	stp	x29, x30, [sp, -32]!
LCFI230:
	mov	x29, sp
	str	x0, [sp, 24]
LBB100:
	.loc 5 335 15
	ldr	x0, [sp, 24]
	ldr	x3, [x0]
	.loc 5 336 17
	ldr	x0, [sp, 24]
	ldr	x1, [x0, 16]
	.loc 5 336 45
	ldr	x0, [sp, 24]
	ldr	x0, [x0]
	.loc 5 336 35
	sub	x0, x1, x0
	asr	x0, x0, 5
	.loc 5 335 15
	mov	x2, x0
	mov	x1, x3
	ldr	x0, [sp, 24]
	bl	__ZNSt12_Vector_baseINSt7__cxx1112basic_stringIcSt11char_traitsIcESaIcEEESaIS5_EE13_M_deallocateEPS5_m
	.loc 5 337 7
	ldr	x0, [sp, 24]
	bl	__ZNSt12_Vector_baseINSt7__cxx1112basic_stringIcSt11char_traitsIcESaIcEEESaIS5_EE12_Vector_implD1Ev
LBE100:
	nop
	ldp	x29, x30, [sp], 32
LCFI231:
	ret
LFE13090:
	.section __DATA,__gcc_except_tab
_GCC_except_table16:
LLSDA13090:
	.byte	0xff
	.byte	0xff
	.byte	0x1
	.uleb128 LLSDACSE13090-LLSDACSB13090
LLSDACSB13090:
LLSDACSE13090:
	.text
	.align	2
	.globl __ZNKSt16initializer_listINSt7__cxx1112basic_stringIcSt11char_traitsIcESaIcEEEE5beginEv
	.weak_definition __ZNKSt16initializer_listINSt7__cxx1112basic_stringIcSt11char_traitsIcESaIcEEEE5beginEv
__ZNKSt16initializer_listINSt7__cxx1112basic_stringIcSt11char_traitsIcESaIcEEEE5beginEv:
LFB13092:
	.file 19 "/opt/homebrew/Cellar/gcc/11.2.0/include/c++/11.1.0/initializer_list"
	.loc 19 75 7
	sub	sp, sp, #16
LCFI232:
	str	x0, [sp, 8]
	.loc 19 75 39
	ldr	x0, [sp, 8]
	ldr	x0, [x0]
	.loc 19 75 49
	add	sp, sp, 16
LCFI233:
	ret
LFE13092:
	.align	2
	.globl __ZNKSt16initializer_listINSt7__cxx1112basic_stringIcSt11char_traitsIcESaIcEEEE3endEv
	.weak_definition __ZNKSt16initializer_listINSt7__cxx1112basic_stringIcSt11char_traitsIcESaIcEEEE3endEv
__ZNKSt16initializer_listINSt7__cxx1112basic_stringIcSt11char_traitsIcESaIcEEEE3endEv:
LFB13093:
	.loc 19 79 7
	stp	x29, x30, [sp, -48]!
LCFI234:
	mov	x29, sp
	str	x19, [sp, 16]
LCFI235:
	str	x0, [sp, 40]
	.loc 19 79 42
	ldr	x0, [sp, 40]
	bl	__ZNKSt16initializer_listINSt7__cxx1112basic_stringIcSt11char_traitsIcESaIcEEEE5beginEv
	mov	x19, x0
	.loc 19 79 51
	ldr	x0, [sp, 40]
	bl	__ZNKSt16initializer_listINSt7__cxx1112basic_stringIcSt11char_traitsIcESaIcEEEE4sizeEv
	.loc 19 79 45
	lsl	x0, x0, 5
	.loc 19 79 52
	add	x0, x19, x0
	.loc 19 79 55
	ldr	x19, [sp, 16]
	ldp	x29, x30, [sp], 48
LCFI236:
	ret
LFE13093:
	.align	2
	.globl __ZSt8distanceIPKNSt7__cxx1112basic_stringIcSt11char_traitsIcESaIcEEEENSt15iterator_traitsIT_E15difference_typeES9_S9_
	.weak_definition __ZSt8distanceIPKNSt7__cxx1112basic_stringIcSt11char_traitsIcESaIcEEEENSt15iterator_traitsIT_E15difference_typeES9_S9_
__ZSt8distanceIPKNSt7__cxx1112basic_stringIcSt11char_traitsIcESaIcEEEENSt15iterator_traitsIT_E15difference_typeES9_S9_:
LFB13095:
	.file 20 "/opt/homebrew/Cellar/gcc/11.2.0/include/c++/11.1.0/bits/stl_iterator_base_funcs.h"
	.loc 20 138 5
	stp	x29, x30, [sp, -48]!
LCFI237:
	mov	x29, sp
	stp	x19, x20, [sp, 16]
LCFI238:
	str	x0, [sp, 40]
	str	x1, [sp, 32]
	.loc 20 141 29
	ldr	x19, [sp, 40]
	.loc 20 142 33
	add	x0, sp, 40
	bl	__ZSt19__iterator_categoryIPKNSt7__cxx1112basic_stringIcSt11char_traitsIcESaIcEEEENSt15iterator_traitsIT_E17iterator_categoryERKS9_
	.loc 20 141 29
	mov	w2, w20
	ldr	x1, [sp, 32]
	mov	x0, x19
	bl	__ZSt10__distanceIPKNSt7__cxx1112basic_stringIcSt11char_traitsIcESaIcEEEENSt15iterator_traitsIT_E15difference_typeES9_S9_St26random_access_iterator_tag
	.loc 20 143 5
	ldp	x19, x20, [sp, 16]
	ldp	x29, x30, [sp], 48
LCFI239:
	ret
LFE13095:
	.align	2
	.globl __ZNSt6vectorINSt7__cxx1112basic_stringIcSt11char_traitsIcESaIcEEESaIS5_EE19_M_range_initializeIPKS5_EEvT_SB_St20forward_iterator_tag
	.weak_definition __ZNSt6vectorINSt7__cxx1112basic_stringIcSt11char_traitsIcESaIcEEESaIS5_EE19_M_range_initializeIPKS5_EEvT_SB_St20forward_iterator_tag
__ZNSt6vectorINSt7__cxx1112basic_stringIcSt11char_traitsIcESaIcEEESaIS5_EE19_M_range_initializeIPKS5_EEvT_SB_St20forward_iterator_tag:
LFB13094:
	.loc 5 1577 2
	stp	x29, x30, [sp, -80]!
LCFI240:
	mov	x29, sp
	str	x19, [sp, 16]
LCFI241:
	str	x0, [sp, 56]
	str	x1, [sp, 48]
	str	x2, [sp, 40]
	strb	w3, [sp, 32]
	.loc 5 1580 39
	ldr	x1, [sp, 40]
	ldr	x0, [sp, 48]
	bl	__ZSt8distanceIPKNSt7__cxx1112basic_stringIcSt11char_traitsIcESaIcEEEENSt15iterator_traitsIT_E15difference_typeES9_S9_
	.loc 5 1580 20
	str	x0, [sp, 72]
	.loc 5 1582 25
	ldr	x19, [sp, 56]
	.loc 5 1582 68
	ldr	x0, [sp, 56]
	bl	__ZNSt12_Vector_baseINSt7__cxx1112basic_stringIcSt11char_traitsIcESaIcEEESaIS5_EE19_M_get_Tp_allocatorEv
	.loc 5 1582 25
	mov	x1, x0
	ldr	x0, [sp, 72]
	bl	__ZNSt6vectorINSt7__cxx1112basic_stringIcSt11char_traitsIcESaIcEEESaIS5_EE17_S_check_init_lenEmRKS6_
	mov	x1, x0
	mov	x0, x19
	bl	__ZNSt12_Vector_baseINSt7__cxx1112basic_stringIcSt11char_traitsIcESaIcEEESaIS5_EE11_M_allocateEm
	mov	x1, x0
	.loc 5 1582 6
	ldr	x0, [sp, 56]
	str	x1, [x0]
	.loc 5 1583 52
	ldr	x0, [sp, 56]
	ldr	x1, [x0]
	.loc 5 1583 61
	ldr	x0, [sp, 72]
	lsl	x0, x0, 5
	add	x1, x1, x0
	.loc 5 1583 36
	ldr	x0, [sp, 56]
	str	x1, [x0, 16]
	.loc 5 1585 33
	ldr	x0, [sp, 56]
	ldr	x19, [x0]
	.loc 5 1587 25
	ldr	x0, [sp, 56]
	bl	__ZNSt12_Vector_baseINSt7__cxx1112basic_stringIcSt11char_traitsIcESaIcEEESaIS5_EE19_M_get_Tp_allocatorEv
	.loc 5 1585 33
	mov	x3, x0
	mov	x2, x19
	ldr	x1, [sp, 40]
	ldr	x0, [sp, 48]
	bl	__ZSt22__uninitialized_copy_aIPKNSt7__cxx1112basic_stringIcSt11char_traitsIcESaIcEEEPS5_S5_ET0_T_SA_S9_RSaIT1_E
	mov	x1, x0
	.loc 5 1584 28
	ldr	x0, [sp, 56]
	str	x1, [x0, 8]
	.loc 5 1588 2
	nop
	ldr	x19, [sp, 16]
	ldp	x29, x30, [sp], 80
LCFI242:
	ret
LFE13094:
	.align	2
	.globl __ZNSt12_Vector_baseINSt7__cxx1112basic_stringIcSt11char_traitsIcESaIcEEESaIS5_EE19_M_get_Tp_allocatorEv
	.weak_definition __ZNSt12_Vector_baseINSt7__cxx1112basic_stringIcSt11char_traitsIcESaIcEEESaIS5_EE19_M_get_Tp_allocatorEv
__ZNSt12_Vector_baseINSt7__cxx1112basic_stringIcSt11char_traitsIcESaIcEEESaIS5_EE19_M_get_Tp_allocatorEv:
LFB13096:
	.loc 5 276 7
	sub	sp, sp, #16
LCFI243:
	str	x0, [sp, 8]
	.loc 5 277 22
	ldr	x0, [sp, 8]
	.loc 5 277 31
	add	sp, sp, 16
LCFI244:
	ret
LFE13096:
	.align	2
	.globl __ZSt8_DestroyIPNSt7__cxx1112basic_stringIcSt11char_traitsIcESaIcEEES5_EvT_S7_RSaIT0_E
	.weak_definition __ZSt8_DestroyIPNSt7__cxx1112basic_stringIcSt11char_traitsIcESaIcEEES5_EvT_S7_RSaIT0_E
__ZSt8_DestroyIPNSt7__cxx1112basic_stringIcSt11char_traitsIcESaIcEEES5_EvT_S7_RSaIT0_E:
LFB13097:
	.loc 16 743 5
	stp	x29, x30, [sp, -48]!
LCFI245:
	mov	x29, sp
	str	x0, [sp, 40]
	str	x1, [sp, 32]
	str	x2, [sp, 24]
	.loc 16 746 15
	ldr	x1, [sp, 32]
	ldr	x0, [sp, 40]
	bl	__ZSt8_DestroyIPNSt7__cxx1112basic_stringIcSt11char_traitsIcESaIcEEEEvT_S7_
	.loc 16 747 5
	nop
	ldp	x29, x30, [sp], 48
LCFI246:
	ret
LFE13097:
	.align	2
	.globl __ZN9__gnu_cxx17__normal_iteratorIPNSt7__cxx1112basic_stringIcSt11char_traitsIcESaIcEEESt6vectorIS6_SaIS6_EEEC1ERKS7_
	.weak_definition __ZN9__gnu_cxx17__normal_iteratorIPNSt7__cxx1112basic_stringIcSt11char_traitsIcESaIcEEESt6vectorIS6_SaIS6_EEEC1ERKS7_
__ZN9__gnu_cxx17__normal_iteratorIPNSt7__cxx1112basic_stringIcSt11char_traitsIcESaIcEEESt6vectorIS6_SaIS6_EEEC1ERKS7_:
LFB13100:
	.loc 8 1007 7
	sub	sp, sp, #16
LCFI247:
	str	x0, [sp, 8]
	str	x1, [sp]
LBB101:
	.loc 8 1008 9
	ldr	x0, [sp]
	ldr	x1, [x0]
	ldr	x0, [sp, 8]
	str	x1, [x0]
LBE101:
	.loc 8 1008 27
	nop
	add	sp, sp, 16
LCFI248:
	ret
LFE13100:
	.align	2
	.globl __ZSt12__niter_baseIPKcET_S2_
	.weak_definition __ZSt12__niter_baseIPKcET_S2_
__ZSt12__niter_baseIPKcET_S2_:
LFB13122:
	.loc 4 313 5
	sub	sp, sp, #16
LCFI249:
	str	x0, [sp, 8]
	.loc 4 315 14
	ldr	x0, [sp, 8]
	.loc 4 315 20
	add	sp, sp, 16
LCFI250:
	ret
LFE13122:
	.align	2
	.globl __ZSt12__niter_baseIPcET_S1_
	.weak_definition __ZSt12__niter_baseIPcET_S1_
__ZSt12__niter_baseIPcET_S1_:
LFB13123:
	.loc 4 313 5
	sub	sp, sp, #16
LCFI251:
	str	x0, [sp, 8]
	.loc 4 315 14
	ldr	x0, [sp, 8]
	.loc 4 315 20
	add	sp, sp, 16
LCFI252:
	ret
LFE13123:
	.align	2
	.globl __ZSt12__niter_wrapIPcET_RKS1_S1_
	.weak_definition __ZSt12__niter_wrapIPcET_RKS1_S1_
__ZSt12__niter_wrapIPcET_RKS1_S1_:
LFB13125:
	.loc 4 335 5
	sub	sp, sp, #16
LCFI253:
	str	x0, [sp, 8]
	str	x1, [sp]
	.loc 4 336 14
	ldr	x0, [sp]
	.loc 4 336 21
	add	sp, sp, 16
LCFI254:
	ret
LFE13125:
	.align	2
	.globl __ZSt14__copy_move_a1ILb0EPKcPcET1_T0_S4_S3_
	.weak_definition __ZSt14__copy_move_a1ILb0EPKcPcET1_T0_S4_S3_
__ZSt14__copy_move_a1ILb0EPKcPcET1_T0_S4_S3_:
LFB13126:
	.loc 4 521 5
	stp	x29, x30, [sp, -48]!
LCFI255:
	mov	x29, sp
	str	x0, [sp, 40]
	str	x1, [sp, 32]
	str	x2, [sp, 24]
	.loc 4 522 42
	ldr	x2, [sp, 24]
	ldr	x1, [sp, 32]
	ldr	x0, [sp, 40]
	bl	__ZSt14__copy_move_a2ILb0EPKcPcET1_T0_S4_S3_
	.loc 4 522 71
	ldp	x29, x30, [sp], 48
LCFI256:
	ret
LFE13126:
	.align	2
	.globl __ZNSt14pointer_traitsIPcE10pointer_toERc
	.weak_definition __ZNSt14pointer_traitsIPcE10pointer_toERc
__ZNSt14pointer_traitsIPcE10pointer_toERc:
LFB13150:
	.file 21 "/opt/homebrew/Cellar/gcc/11.2.0/include/c++/11.1.0/bits/ptr_traits.h"
	.loc 21 146 7
	stp	x29, x30, [sp, -32]!
LCFI257:
	mov	x29, sp
	str	x0, [sp, 24]
	.loc 21 147 30
	ldr	x0, [sp, 24]
	bl	__ZSt9addressofIcEPT_RS0_
	.loc 21 147 37
	ldp	x29, x30, [sp], 32
LCFI258:
	ret
LFE13150:
	.cstring
	.align	3
lC5:
	.ascii "basic_string::_M_create\0"
	.text
	.align	2
	.globl __ZNSt7__cxx1112basic_stringIcSt11char_traitsIcESaIcEE9_M_createERmm
	.weak_definition __ZNSt7__cxx1112basic_stringIcSt11char_traitsIcESaIcEE9_M_createERmm
__ZNSt7__cxx1112basic_stringIcSt11char_traitsIcESaIcEE9_M_createERmm:
LFB13154:
	.file 22 "/opt/homebrew/Cellar/gcc/11.2.0/include/c++/11.1.0/bits/basic_string.tcc"
	.loc 22 132 5
	stp	x29, x30, [sp, -64]!
LCFI259:
	mov	x29, sp
	str	x19, [sp, 16]
LCFI260:
	str	x0, [sp, 56]
	str	x1, [sp, 48]
	str	x2, [sp, 40]
	.loc 22 137 22
	ldr	x0, [sp, 48]
	ldr	x19, [x0]
	.loc 22 137 32
	ldr	x0, [sp, 56]
	bl	__ZNKSt7__cxx1112basic_stringIcSt11char_traitsIcESaIcEE8max_sizeEv
	.loc 22 137 22
	cmp	x19, x0
	cset	w0, hi
	and	w0, w0, 255
	.loc 22 137 7
	cmp	w0, 0
	beq	L356
	.loc 22 138 27
	adrp	x0, lC5@GOTPAGE
	ldr	x0, [x0, lC5@GOTPAGEOFF];momd
	bl	__ZSt20__throw_length_errorPKc
L356:
	.loc 22 143 22
	ldr	x0, [sp, 48]
	ldr	x0, [x0]
	.loc 22 143 7
	ldr	x1, [sp, 40]
	cmp	x1, x0
	bcs	L357
	.loc 22 143 53
	ldr	x0, [sp, 48]
	ldr	x1, [x0]
	.loc 22 143 57
	ldr	x0, [sp, 40]
	lsl	x0, x0, 1
	.loc 22 143 39
	cmp	x1, x0
	bcs	L357
	.loc 22 145 19
	ldr	x0, [sp, 40]
	lsl	x1, x0, 1
	.loc 22 145 15
	ldr	x0, [sp, 48]
	str	x1, [x0]
	.loc 22 147 19
	ldr	x0, [sp, 48]
	ldr	x19, [x0]
	.loc 22 147 29
	ldr	x0, [sp, 56]
	bl	__ZNKSt7__cxx1112basic_stringIcSt11char_traitsIcESaIcEE8max_sizeEv
	.loc 22 147 19
	cmp	x19, x0
	cset	w0, hi
	and	w0, w0, 255
	.loc 22 147 4
	cmp	w0, 0
	beq	L357
	.loc 22 148 27
	ldr	x0, [sp, 56]
	bl	__ZNKSt7__cxx1112basic_stringIcSt11char_traitsIcESaIcEE8max_sizeEv
	mov	x1, x0
	.loc 22 148 17
	ldr	x0, [sp, 48]
	str	x1, [x0]
L357:
	.loc 22 153 54
	ldr	x0, [sp, 56]
	bl	__ZNSt7__cxx1112basic_stringIcSt11char_traitsIcESaIcEE16_M_get_allocatorEv
	mov	x2, x0
	.loc 22 153 37
	ldr	x0, [sp, 48]
	ldr	x0, [x0]
	add	x0, x0, 1
	mov	x1, x0
	mov	x0, x2
	bl	__ZNSt16allocator_traitsISaIcEE8allocateERS0_m
	.loc 22 154 5
	ldr	x19, [sp, 16]
	ldp	x29, x30, [sp], 64
LCFI261:
	ret
LFE13154:
	.align	2
	.globl __ZNKSt7__cxx1112basic_stringIcSt11char_traitsIcESaIcEE13_M_local_dataEv
	.weak_definition __ZNKSt7__cxx1112basic_stringIcSt11char_traitsIcESaIcEE13_M_local_dataEv
__ZNKSt7__cxx1112basic_stringIcSt11char_traitsIcESaIcEE13_M_local_dataEv:
LFB13156:
	.loc 10 200 7
	stp	x29, x30, [sp, -32]!
LCFI262:
	mov	x29, sp
	str	x0, [sp, 24]
	.loc 10 203 57
	ldr	x0, [sp, 24]
	add	x0, x0, 16
	.loc 10 203 55
	bl	__ZNSt14pointer_traitsIPKcE10pointer_toERS0_
	.loc 10 207 7
	ldp	x29, x30, [sp], 32
LCFI263:
	ret
LFE13156:
	.align	2
	.globl __ZNKSt7__cxx1112basic_stringIcSt11char_traitsIcESaIcEE15_M_check_lengthEmmPKc
	.weak_definition __ZNKSt7__cxx1112basic_stringIcSt11char_traitsIcESaIcEE15_M_check_lengthEmmPKc
__ZNKSt7__cxx1112basic_stringIcSt11char_traitsIcESaIcEE15_M_check_lengthEmmPKc:
LFB13187:
	.loc 10 320 7
	stp	x29, x30, [sp, -64]!
LCFI264:
	mov	x29, sp
	str	x19, [sp, 16]
LCFI265:
	str	x0, [sp, 56]
	str	x1, [sp, 48]
	str	x2, [sp, 40]
	str	x3, [sp, 32]
	.loc 10 322 20
	ldr	x0, [sp, 56]
	bl	__ZNKSt7__cxx1112basic_stringIcSt11char_traitsIcESaIcEE8max_sizeEv
	mov	x19, x0
	.loc 10 322 36
	ldr	x0, [sp, 56]
	bl	__ZNKSt7__cxx1112basic_stringIcSt11char_traitsIcESaIcEE4sizeEv
	mov	x1, x0
	.loc 10 322 39
	ldr	x0, [sp, 48]
	sub	x0, x0, x1
	.loc 10 322 23
	add	x0, x19, x0
	.loc 10 322 47
	ldr	x1, [sp, 40]
	cmp	x1, x0
	cset	w0, hi
	and	w0, w0, 255
	.loc 10 322 2
	cmp	w0, 0
	beq	L363
	.loc 10 323 24
	ldr	x0, [sp, 32]
	bl	__ZSt20__throw_length_errorPKc
L363:
	.loc 10 324 7
	nop
	ldr	x19, [sp, 16]
	ldp	x29, x30, [sp], 64
LCFI266:
	ret
LFE13187:
	.align	2
	.globl __ZNSt7__cxx1112basic_stringIcSt11char_traitsIcESaIcEE9_M_appendEPKcm
	.weak_definition __ZNSt7__cxx1112basic_stringIcSt11char_traitsIcESaIcEE9_M_appendEPKcm
__ZNSt7__cxx1112basic_stringIcSt11char_traitsIcESaIcEE9_M_appendEPKcm:
LFB13188:
	.loc 22 384 5
	stp	x29, x30, [sp, -80]!
LCFI267:
	mov	x29, sp
	str	x19, [sp, 16]
LCFI268:
	str	x0, [sp, 56]
	str	x1, [sp, 48]
	str	x2, [sp, 40]
	.loc 22 387 47
	ldr	x0, [sp, 56]
	bl	__ZNKSt7__cxx1112basic_stringIcSt11char_traitsIcESaIcEE4sizeEv
	mov	x1, x0
	.loc 22 387 23
	ldr	x0, [sp, 40]
	add	x0, x0, x1
	str	x0, [sp, 72]
	.loc 22 389 34
	ldr	x0, [sp, 56]
	bl	__ZNKSt7__cxx1112basic_stringIcSt11char_traitsIcESaIcEE8capacityEv
	mov	x1, x0
	.loc 22 389 17
	ldr	x0, [sp, 72]
	cmp	x0, x1
	cset	w0, ls
	and	w0, w0, 255
	.loc 22 389 7
	cmp	w0, 0
	beq	L365
	.loc 22 391 4
	ldr	x0, [sp, 40]
	cmp	x0, 0
	beq	L366
	.loc 22 392 33
	ldr	x0, [sp, 56]
	bl	__ZNKSt7__cxx1112basic_stringIcSt11char_traitsIcESaIcEE7_M_dataEv
	mov	x19, x0
	.loc 22 392 48
	ldr	x0, [sp, 56]
	bl	__ZNKSt7__cxx1112basic_stringIcSt11char_traitsIcESaIcEE4sizeEv
	.loc 22 392 19
	add	x0, x19, x0
	ldr	x2, [sp, 40]
	ldr	x1, [sp, 48]
	bl	__ZNSt7__cxx1112basic_stringIcSt11char_traitsIcESaIcEE7_S_copyEPcPKcm
	b	L366
L365:
	.loc 22 395 17
	ldr	x0, [sp, 56]
	bl	__ZNKSt7__cxx1112basic_stringIcSt11char_traitsIcESaIcEE4sizeEv
	ldr	x4, [sp, 40]
	ldr	x3, [sp, 48]
	mov	x2, 0
	mov	x1, x0
	ldr	x0, [sp, 56]
	bl	__ZNSt7__cxx1112basic_stringIcSt11char_traitsIcESaIcEE9_M_mutateEmmPKcm
L366:
	.loc 22 397 26
	ldr	x1, [sp, 72]
	ldr	x0, [sp, 56]
	bl	__ZNSt7__cxx1112basic_stringIcSt11char_traitsIcESaIcEE13_M_set_lengthEm
	.loc 22 398 15
	ldr	x0, [sp, 56]
	.loc 22 399 5
	ldr	x19, [sp, 16]
	ldp	x29, x30, [sp], 80
LCFI269:
	ret
LFE13188:
	.align	2
	.globl __ZNSt16allocator_traitsISaIcEE37select_on_container_copy_constructionERKS0_
	.weak_definition __ZNSt16allocator_traitsISaIcEE37select_on_container_copy_constructionERKS0_
__ZNSt16allocator_traitsISaIcEE37select_on_container_copy_constructionERKS0_:
LFB13309:
	.loc 16 558 7
	stp	x29, x30, [sp, -48]!
LCFI270:
	mov	x29, sp
	str	x19, [sp, 16]
LCFI271:
	mov	x19, x8
	str	x0, [sp, 40]
	.loc 16 559 16
	ldr	x1, [sp, 40]
	mov	x0, x19
	bl	__ZNSaIcEC1ERKS_
	.loc 16 559 23
	mov	x0, x19
	ldr	x19, [sp, 16]
	ldp	x29, x30, [sp], 48
LCFI272:
	ret
LFE13309:
	.align	2
	.globl __ZNSt7__cxx1112basic_stringIcSt11char_traitsIcESaIcEE16_M_construct_auxIPcEEvT_S7_St12__false_type
	.weak_definition __ZNSt7__cxx1112basic_stringIcSt11char_traitsIcESaIcEE16_M_construct_auxIPcEEvT_S7_St12__false_type
__ZNSt7__cxx1112basic_stringIcSt11char_traitsIcESaIcEE16_M_construct_auxIPcEEvT_S7_St12__false_type:
LFB13310:
	.loc 10 243 9
	stp	x29, x30, [sp, -64]!
LCFI273:
	mov	x29, sp
	str	x0, [sp, 40]
	str	x1, [sp, 32]
	str	x2, [sp, 24]
	strb	w3, [sp, 16]
	.loc 10 247 23
	mov	w3, w4
	ldr	x2, [sp, 24]
	ldr	x1, [sp, 32]
	ldr	x0, [sp, 40]
	bl	__ZNSt7__cxx1112basic_stringIcSt11char_traitsIcESaIcEE12_M_constructIPcEEvT_S7_St20forward_iterator_tag
	.loc 10 248 2
	nop
	ldp	x29, x30, [sp], 64
LCFI274:
	ret
LFE13310:
	.align	2
	.globl __ZNSt16allocator_traitsISaIcEE10deallocateERS0_Pcm
	.weak_definition __ZNSt16allocator_traitsISaIcEE10deallocateERS0_Pcm
__ZNSt16allocator_traitsISaIcEE10deallocateERS0_Pcm:
LFB13314:
	.loc 16 491 7
	stp	x29, x30, [sp, -80]!
LCFI275:
	mov	x29, sp
	str	x0, [sp, 40]
	str	x1, [sp, 32]
	str	x2, [sp, 24]
	ldr	x0, [sp, 40]
	str	x0, [sp, 72]
	ldr	x0, [sp, 32]
	str	x0, [sp, 64]
	ldr	x0, [sp, 24]
	str	x0, [sp, 56]
LBB102:
LBB103:
	.loc 12 181 32
	bl	__ZSt21is_constant_evaluatedv
	and	w0, w0, 255
	.loc 12 181 2
	cmp	w0, 0
	beq	L372
	.loc 12 183 23
	ldr	x0, [sp, 64]
	bl	__ZdlPv
	.loc 12 184 6
	b	L373
L372:
	.loc 12 187 37
	ldr	x2, [sp, 56]
	ldr	x1, [sp, 64]
	ldr	x0, [sp, 72]
	bl	__ZN9__gnu_cxx13new_allocatorIcE10deallocateEPcm
LBE103:
LBE102:
	.loc 16 492 35
	nop
L373:
	nop
	ldp	x29, x30, [sp], 80
LCFI276:
	ret
LFE13314:
	.align	2
	.globl __ZN9__gnu_cxx13new_allocatorIiEC2Ev
	.weak_definition __ZN9__gnu_cxx13new_allocatorIiEC2Ev
__ZN9__gnu_cxx13new_allocatorIiEC2Ev:
LFB13357:
	.loc 18 79 7
	sub	sp, sp, #16
LCFI277:
	str	x0, [sp, 8]
	.loc 18 79 47
	nop
	add	sp, sp, 16
LCFI278:
	ret
LFE13357:
	.align	2
	.globl __ZNSt16allocator_traitsISaIiEE10deallocateERS0_Pim
	.weak_definition __ZNSt16allocator_traitsISaIiEE10deallocateERS0_Pim
__ZNSt16allocator_traitsISaIiEE10deallocateERS0_Pim:
LFB13359:
	.loc 16 491 7
	stp	x29, x30, [sp, -80]!
LCFI279:
	mov	x29, sp
	str	x0, [sp, 40]
	str	x1, [sp, 32]
	str	x2, [sp, 24]
	ldr	x0, [sp, 40]
	str	x0, [sp, 72]
	ldr	x0, [sp, 32]
	str	x0, [sp, 64]
	ldr	x0, [sp, 24]
	str	x0, [sp, 56]
LBB104:
LBB105:
	.loc 12 181 32
	bl	__ZSt21is_constant_evaluatedv
	and	w0, w0, 255
	.loc 12 181 2
	cmp	w0, 0
	beq	L376
	.loc 12 183 23
	ldr	x0, [sp, 64]
	bl	__ZdlPv
	.loc 12 184 6
	b	L377
L376:
	.loc 12 187 37
	ldr	x2, [sp, 56]
	ldr	x1, [sp, 64]
	ldr	x0, [sp, 72]
	bl	__ZN9__gnu_cxx13new_allocatorIiE10deallocateEPim
LBE105:
LBE104:
	.loc 16 492 35
	nop
L377:
	nop
	ldp	x29, x30, [sp], 80
LCFI280:
	ret
LFE13359:
	.align	2
	.globl __ZSt8_DestroyIPiEvT_S1_
	.weak_definition __ZSt8_DestroyIPiEvT_S1_
__ZSt8_DestroyIPiEvT_S1_:
LFB13360:
	.file 23 "/opt/homebrew/Cellar/gcc/11.2.0/include/c++/11.1.0/bits/stl_construct.h"
	.loc 23 171 5
	stp	x29, x30, [sp, -32]!
LCFI281:
	mov	x29, sp
	str	x0, [sp, 24]
	str	x1, [sp, 16]
	.loc 23 181 37
	bl	__ZSt21is_constant_evaluatedv
	and	w0, w0, 255
	.loc 23 181 7
	cmp	w0, 0
	beq	L379
	.loc 23 182 39
	ldr	x1, [sp, 16]
	ldr	x0, [sp, 24]
	bl	__ZNSt12_Destroy_auxILb0EE9__destroyIPiEEvT_S3_
	.loc 23 182 55
	b	L378
L379:
	.loc 23 185 11
	ldr	x1, [sp, 16]
	ldr	x0, [sp, 24]
	bl	__ZNSt12_Destroy_auxILb1EE9__destroyIPiEEvT_S3_
L378:
	.loc 23 186 5
	ldp	x29, x30, [sp], 32
LCFI282:
	ret
LFE13360:
	.align	2
	.globl __ZSt12construct_atIiJiEEDTgsnwcvPvLi0E_T_pispcl7declvalIT0_EEEEPS1_DpOS2_
	.weak_definition __ZSt12construct_atIiJiEEDTgsnwcvPvLi0E_T_pispcl7declvalIT0_EEEEPS1_DpOS2_
__ZSt12construct_atIiJiEEDTgsnwcvPvLi0E_T_pispcl7declvalIT0_EEEEPS1_DpOS2_:
LFB13362:
	.loc 23 94 5
	stp	x29, x30, [sp, -48]!
LCFI283:
	mov	x29, sp
	str	x19, [sp, 16]
LCFI284:
	str	x0, [sp, 40]
	str	x1, [sp, 32]
	.loc 23 97 62
	ldr	x0, [sp, 32]
	bl	__ZSt7forwardIiEOT_RNSt16remove_referenceIS0_E4typeE
	.loc 23 97 73
	ldr	w19, [x0]
	.loc 23 97 20
	ldr	x0, [sp, 40]
	.loc 23 97 14
	mov	x1, x0
	mov	x0, 4
	bl	__ZnwmPv
	str	w19, [x0]
	.loc 23 97 76
	ldr	x19, [sp, 16]
	ldp	x29, x30, [sp], 48
LCFI285:
	ret
LFE13362:
	.align	2
	.globl __ZNSt16allocator_traitsISaIiEE9constructIiJiEEEvRS0_PT_DpOT0_
	.weak_definition __ZNSt16allocator_traitsISaIiEE9constructIiJiEEEvRS0_PT_DpOT0_
__ZNSt16allocator_traitsISaIiEE9constructIiJiEEEvRS0_PT_DpOT0_:
LFB13361:
	.loc 16 507 2
	stp	x29, x30, [sp, -48]!
LCFI286:
	mov	x29, sp
	str	x0, [sp, 40]
	str	x1, [sp, 32]
	str	x2, [sp, 24]
	.loc 16 514 21
	ldr	x0, [sp, 24]
	bl	__ZSt7forwardIiEOT_RNSt16remove_referenceIS0_E4typeE
	mov	x1, x0
	ldr	x0, [sp, 32]
	bl	__ZSt12construct_atIiJiEEDTgsnwcvPvLi0E_T_pispcl7declvalIT0_EEEEPS1_DpOS2_
	.loc 16 516 2
	nop
	ldp	x29, x30, [sp], 48
LCFI287:
	ret
LFE13361:
	.cstring
	.align	3
lC6:
	.ascii "vector::_M_realloc_insert\0"
	.text
	.align	2
	.globl __ZNSt6vectorIiSaIiEE17_M_realloc_insertIJiEEEvN9__gnu_cxx17__normal_iteratorIPiS1_EEDpOT_
	.weak_definition __ZNSt6vectorIiSaIiEE17_M_realloc_insertIJiEEEvN9__gnu_cxx17__normal_iteratorIPiS1_EEDpOT_
__ZNSt6vectorIiSaIiEE17_M_realloc_insertIJiEEEvN9__gnu_cxx17__normal_iteratorIPiS1_EEDpOT_:
LFB13363:
	.loc 17 426 7
	stp	x29, x30, [sp, -128]!
LCFI288:
	mov	x29, sp
	stp	x19, x20, [sp, 16]
LCFI289:
	str	x0, [sp, 56]
	str	x1, [sp, 48]
	str	x2, [sp, 40]
	.loc 17 436 14
	adrp	x0, lC6@GOTPAGE
	ldr	x2, [x0, lC6@GOTPAGEOFF];momd
	mov	x1, 1
	ldr	x0, [sp, 56]
	bl	__ZNKSt6vectorIiSaIiEE12_M_check_lenEmPKc
	str	x0, [sp, 120]
	.loc 17 437 15
	ldr	x0, [sp, 56]
	ldr	x0, [x0]
	str	x0, [sp, 112]
	.loc 17 438 15
	ldr	x0, [sp, 56]
	ldr	x0, [x0, 8]
	str	x0, [sp, 104]
	.loc 17 439 58
	ldr	x0, [sp, 56]
	bl	__ZNSt6vectorIiSaIiEE5beginEv
	str	x0, [sp, 72]
	.loc 17 439 51
	add	x1, sp, 72
	add	x0, sp, 48
	bl	__ZN9__gnu_cxxmiIPiSt6vectorIiSaIiEEEENS_17__normal_iteratorIT_T0_E15difference_typeERKS8_SB_
	.loc 17 439 23
	str	x0, [sp, 96]
	.loc 17 440 44
	ldr	x0, [sp, 56]
	ldr	x1, [sp, 120]
	bl	__ZNSt12_Vector_baseIiSaIiEE11_M_allocateEm
	str	x0, [sp, 88]
	.loc 17 441 15
	ldr	x0, [sp, 88]
	str	x0, [sp, 80]
	.loc 17 449 35
	ldr	x19, [sp, 56]
	.loc 17 450 20
	ldr	x0, [sp, 96]
	lsl	x0, x0, 2
	.loc 17 449 28
	ldr	x1, [sp, 88]
	add	x20, x1, x0
	ldr	x0, [sp, 40]
	bl	__ZSt7forwardIiEOT_RNSt16remove_referenceIS0_E4typeE
	mov	x2, x0
	mov	x1, x20
	mov	x0, x19
	bl	__ZNSt16allocator_traitsISaIiEE9constructIiJiEEEvRS0_PT_DpOT0_
	.loc 17 456 17
	str	xzr, [sp, 80]
	.loc 17 461 63
	add	x0, sp, 48
	bl	__ZNK9__gnu_cxx17__normal_iteratorIPiSt6vectorIiSaIiEEE4baseEv
	.loc 17 461 34
	ldr	x19, [x0]
	.loc 17 462 39
	ldr	x0, [sp, 56]
	bl	__ZNSt12_Vector_baseIiSaIiEE19_M_get_Tp_allocatorEv
	.loc 17 461 34
	mov	x3, x0
	ldr	x2, [sp, 88]
	mov	x1, x19
	ldr	x0, [sp, 112]
	bl	__ZNSt6vectorIiSaIiEE11_S_relocateEPiS2_S2_RS0_
	str	x0, [sp, 80]
	.loc 17 464 8
	ldr	x0, [sp, 80]
	add	x0, x0, 4
	str	x0, [sp, 80]
	.loc 17 466 50
	add	x0, sp, 48
	bl	__ZNK9__gnu_cxx17__normal_iteratorIPiSt6vectorIiSaIiEEE4baseEv
	.loc 17 466 34
	ldr	x19, [x0]
	.loc 17 467 40
	ldr	x0, [sp, 56]
	bl	__ZNSt12_Vector_baseIiSaIiEE19_M_get_Tp_allocatorEv
	.loc 17 466 34
	mov	x3, x0
	ldr	x2, [sp, 80]
	ldr	x1, [sp, 104]
	mov	x0, x19
	bl	__ZNSt6vectorIiSaIiEE11_S_relocateEPiS2_S2_RS0_
	str	x0, [sp, 80]
	.loc 17 500 20
	ldr	x3, [sp, 56]
	.loc 17 501 21
	ldr	x0, [sp, 56]
	ldr	x1, [x0, 16]
	.loc 17 501 39
	ldr	x0, [sp, 112]
	sub	x0, x1, x0
	asr	x0, x0, 2
	.loc 17 500 20
	mov	x2, x0
	ldr	x1, [sp, 112]
	mov	x0, x3
	bl	__ZNSt12_Vector_baseIiSaIiEE13_M_deallocateEPim
	.loc 17 502 30
	ldr	x0, [sp, 56]
	ldr	x1, [sp, 88]
	str	x1, [x0]
	.loc 17 503 31
	ldr	x0, [sp, 56]
	ldr	x1, [sp, 80]
	str	x1, [x0, 8]
	.loc 17 504 53
	ldr	x0, [sp, 120]
	lsl	x0, x0, 2
	ldr	x1, [sp, 88]
	add	x1, x1, x0
	.loc 17 504 39
	ldr	x0, [sp, 56]
	str	x1, [x0, 16]
	.loc 17 505 5
	nop
	ldp	x19, x20, [sp, 16]
	ldp	x29, x30, [sp], 128
LCFI290:
	ret
LFE13363:
	.align	2
	.globl __ZNSt6vectorIiSaIiEE4backEv
	.weak_definition __ZNSt6vectorIiSaIiEE4backEv
__ZNSt6vectorIiSaIiEE4backEv:
LFB13367:
	.loc 5 1143 7
	stp	x29, x30, [sp, -48]!
LCFI291:
	mov	x29, sp
	str	x0, [sp, 24]
	.loc 5 1146 14
	ldr	x0, [sp, 24]
	bl	__ZNSt6vectorIiSaIiEE3endEv
	str	x0, [sp, 40]
	.loc 5 1146 17
	add	x0, sp, 40
	mov	x1, 1
	bl	__ZNK9__gnu_cxx17__normal_iteratorIPiSt6vectorIiSaIiEEEmiEl
	str	x0, [sp, 32]
	.loc 5 1146 9
	add	x0, sp, 32
	bl	__ZNK9__gnu_cxx17__normal_iteratorIPiSt6vectorIiSaIiEEEdeEv
	.loc 5 1147 7
	ldp	x29, x30, [sp], 48
LCFI292:
	ret
LFE13367:
	.align	2
	.globl __ZNSt12_Vector_baseINSt7__cxx1112basic_stringIcSt11char_traitsIcESaIcEEESaIS5_EE12_Vector_implC1ERKS6_
	.weak_definition __ZNSt12_Vector_baseINSt7__cxx1112basic_stringIcSt11char_traitsIcESaIcEEESaIS5_EE12_Vector_implC1ERKS6_
__ZNSt12_Vector_baseINSt7__cxx1112basic_stringIcSt11char_traitsIcESaIcEEESaIS5_EE12_Vector_implC1ERKS6_:
LFB13397:
	.loc 5 136 2
	stp	x29, x30, [sp, -32]!
LCFI293:
	mov	x29, sp
	str	x0, [sp, 24]
	str	x1, [sp, 16]
LBB106:
	.loc 5 137 22
	ldr	x1, [sp, 16]
	ldr	x0, [sp, 24]
	bl	__ZNSaINSt7__cxx1112basic_stringIcSt11char_traitsIcESaIcEEEEC2ERKS5_
	ldr	x0, [sp, 24]
	bl	__ZNSt12_Vector_baseINSt7__cxx1112basic_stringIcSt11char_traitsIcESaIcEEESaIS5_EE17_Vector_impl_dataC2Ev
LBE106:
	.loc 5 138 4
	nop
	ldp	x29, x30, [sp], 32
LCFI294:
	ret
LFE13397:
	.align	2
	.globl __ZNSt12_Vector_baseINSt7__cxx1112basic_stringIcSt11char_traitsIcESaIcEEESaIS5_EE13_M_deallocateEPS5_m
	.weak_definition __ZNSt12_Vector_baseINSt7__cxx1112basic_stringIcSt11char_traitsIcESaIcEEESaIS5_EE13_M_deallocateEPS5_m
__ZNSt12_Vector_baseINSt7__cxx1112basic_stringIcSt11char_traitsIcESaIcEEESaIS5_EE13_M_deallocateEPS5_m:
LFB13398:
	.loc 5 350 7
	stp	x29, x30, [sp, -48]!
LCFI295:
	mov	x29, sp
	str	x0, [sp, 40]
	str	x1, [sp, 32]
	str	x2, [sp, 24]
	.loc 5 353 2
	ldr	x0, [sp, 32]
	cmp	x0, 0
	beq	L390
	.loc 5 354 20
	ldr	x0, [sp, 40]
	.loc 5 354 19
	ldr	x2, [sp, 24]
	ldr	x1, [sp, 32]
	bl	__ZNSt16allocator_traitsISaINSt7__cxx1112basic_stringIcSt11char_traitsIcESaIcEEEEE10deallocateERS6_PS5_m
L390:
	.loc 5 355 7
	nop
	ldp	x29, x30, [sp], 48
LCFI296:
	ret
LFE13398:
	.align	2
	.globl __ZNKSt16initializer_listINSt7__cxx1112basic_stringIcSt11char_traitsIcESaIcEEEE4sizeEv
	.weak_definition __ZNKSt16initializer_listINSt7__cxx1112basic_stringIcSt11char_traitsIcESaIcEEEE4sizeEv
__ZNKSt16initializer_listINSt7__cxx1112basic_stringIcSt11char_traitsIcESaIcEEEE4sizeEv:
LFB13399:
	.loc 19 71 7
	sub	sp, sp, #16
LCFI297:
	str	x0, [sp, 8]
	.loc 19 71 38
	ldr	x0, [sp, 8]
	ldr	x0, [x0, 8]
	.loc 19 71 46
	add	sp, sp, 16
LCFI298:
	ret
LFE13399:
	.align	2
	.globl __ZSt19__iterator_categoryIPKNSt7__cxx1112basic_stringIcSt11char_traitsIcESaIcEEEENSt15iterator_traitsIT_E17iterator_categoryERKS9_
	.weak_definition __ZSt19__iterator_categoryIPKNSt7__cxx1112basic_stringIcSt11char_traitsIcESaIcEEEENSt15iterator_traitsIT_E17iterator_categoryERKS9_
__ZSt19__iterator_categoryIPKNSt7__cxx1112basic_stringIcSt11char_traitsIcESaIcEEEENSt15iterator_traitsIT_E17iterator_categoryERKS9_:
LFB13400:
	.loc 14 238 5
	sub	sp, sp, #16
LCFI299:
	str	x0, [sp, 8]
	.loc 14 239 65
	mov	w0, w1
	.loc 14 239 68
	add	sp, sp, 16
LCFI300:
	ret
LFE13400:
	.align	2
	.globl __ZSt10__distanceIPKNSt7__cxx1112basic_stringIcSt11char_traitsIcESaIcEEEENSt15iterator_traitsIT_E15difference_typeES9_S9_St26random_access_iterator_tag
	.weak_definition __ZSt10__distanceIPKNSt7__cxx1112basic_stringIcSt11char_traitsIcESaIcEEEENSt15iterator_traitsIT_E15difference_typeES9_S9_St26random_access_iterator_tag
__ZSt10__distanceIPKNSt7__cxx1112basic_stringIcSt11char_traitsIcESaIcEEEENSt15iterator_traitsIT_E15difference_typeES9_S9_St26random_access_iterator_tag:
LFB13401:
	.loc 20 98 5
	sub	sp, sp, #32
LCFI301:
	str	x0, [sp, 24]
	str	x1, [sp, 16]
	strb	w2, [sp, 8]
	.loc 20 104 21
	ldr	x1, [sp, 16]
	ldr	x0, [sp, 24]
	sub	x0, x1, x0
	.loc 20 104 23
	asr	x0, x0, 5
	.loc 20 105 5
	add	sp, sp, 32
LCFI302:
	ret
LFE13401:
	.cstring
	.align	3
lC7:
	.ascii "cannot create std::vector larger than max_size()\0"
	.text
	.align	2
	.globl __ZNSt6vectorINSt7__cxx1112basic_stringIcSt11char_traitsIcESaIcEEESaIS5_EE17_S_check_init_lenEmRKS6_
	.weak_definition __ZNSt6vectorINSt7__cxx1112basic_stringIcSt11char_traitsIcESaIcEEESaIS5_EE17_S_check_init_lenEmRKS6_
__ZNSt6vectorINSt7__cxx1112basic_stringIcSt11char_traitsIcESaIcEEESaIS5_EE17_S_check_init_lenEmRKS6_:
LFB13402:
	.loc 5 1767 7
	stp	x29, x30, [sp, -64]!
LCFI303:
	mov	x29, sp
	str	x19, [sp, 16]
LCFI304:
	str	x0, [sp, 40]
	str	x1, [sp, 32]
	.loc 5 1769 24
	add	x0, sp, 56
	ldr	x1, [sp, 32]
	bl	__ZNSaINSt7__cxx1112basic_stringIcSt11char_traitsIcESaIcEEEEC1ERKS5_
	.loc 5 1769 23
	add	x0, sp, 56
	bl	__ZNSt6vectorINSt7__cxx1112basic_stringIcSt11char_traitsIcESaIcEEESaIS5_EE11_S_max_sizeERKS6_
	mov	x1, x0
	.loc 5 1769 10
	ldr	x0, [sp, 40]
	cmp	x0, x1
	cset	w0, hi
	and	w19, w0, 255
	.loc 5 1769 24
	add	x0, sp, 56
	bl	__ZNSaINSt7__cxx1112basic_stringIcSt11char_traitsIcESaIcEEEED1Ev
	.loc 5 1769 2
	cmp	w19, 0
	beq	L398
	.loc 5 1770 24
	adrp	x0, lC7@GOTPAGE
	ldr	x0, [x0, lC7@GOTPAGEOFF];momd
	bl	__ZSt20__throw_length_errorPKc
L398:
	.loc 5 1772 9
	ldr	x0, [sp, 40]
	.loc 5 1773 7
	ldr	x19, [sp, 16]
	ldp	x29, x30, [sp], 64
LCFI305:
	ret
LFE13402:
	.align	2
	.globl __ZNSt12_Vector_baseINSt7__cxx1112basic_stringIcSt11char_traitsIcESaIcEEESaIS5_EE11_M_allocateEm
	.weak_definition __ZNSt12_Vector_baseINSt7__cxx1112basic_stringIcSt11char_traitsIcESaIcEEESaIS5_EE11_M_allocateEm
__ZNSt12_Vector_baseINSt7__cxx1112basic_stringIcSt11char_traitsIcESaIcEEESaIS5_EE11_M_allocateEm:
LFB13403:
	.loc 5 343 7
	stp	x29, x30, [sp, -32]!
LCFI306:
	mov	x29, sp
	str	x0, [sp, 24]
	str	x1, [sp, 16]
	.loc 5 346 18
	ldr	x0, [sp, 16]
	cmp	x0, 0
	beq	L401
	.loc 5 346 34
	ldr	x0, [sp, 24]
	.loc 5 346 33
	ldr	x1, [sp, 16]
	bl	__ZNSt16allocator_traitsISaINSt7__cxx1112basic_stringIcSt11char_traitsIcESaIcEEEEE8allocateERS6_m
	.loc 5 346 58
	b	L403
L401:
	.loc 5 346 18
	mov	x0, 0
L403:
	.loc 5 347 7
	ldp	x29, x30, [sp], 32
LCFI307:
	ret
LFE13403:
	.align	2
	.globl __ZSt22__uninitialized_copy_aIPKNSt7__cxx1112basic_stringIcSt11char_traitsIcESaIcEEEPS5_S5_ET0_T_SA_S9_RSaIT1_E
	.weak_definition __ZSt22__uninitialized_copy_aIPKNSt7__cxx1112basic_stringIcSt11char_traitsIcESaIcEEEPS5_S5_ET0_T_SA_S9_RSaIT1_E
__ZSt22__uninitialized_copy_aIPKNSt7__cxx1112basic_stringIcSt11char_traitsIcESaIcEEEPS5_S5_ET0_T_SA_S9_RSaIT1_E:
LFB13404:
	.file 24 "/opt/homebrew/Cellar/gcc/11.2.0/include/c++/11.1.0/bits/stl_uninitialized.h"
	.loc 24 331 5
	stp	x29, x30, [sp, -48]!
LCFI308:
	mov	x29, sp
	str	x0, [sp, 40]
	str	x1, [sp, 32]
	str	x2, [sp, 24]
	str	x3, [sp, 16]
	.loc 24 333 37
	ldr	x2, [sp, 24]
	ldr	x1, [sp, 32]
	ldr	x0, [sp, 40]
	bl	__ZSt18uninitialized_copyIPKNSt7__cxx1112basic_stringIcSt11char_traitsIcESaIcEEEPS5_ET0_T_SA_S9_
	.loc 24 333 66
	ldp	x29, x30, [sp], 48
LCFI309:
	ret
LFE13404:
	.align	2
	.globl __ZSt8_DestroyIPNSt7__cxx1112basic_stringIcSt11char_traitsIcESaIcEEEEvT_S7_
	.weak_definition __ZSt8_DestroyIPNSt7__cxx1112basic_stringIcSt11char_traitsIcESaIcEEEEvT_S7_
__ZSt8_DestroyIPNSt7__cxx1112basic_stringIcSt11char_traitsIcESaIcEEEEvT_S7_:
LFB13405:
	.loc 23 171 5
	stp	x29, x30, [sp, -32]!
LCFI310:
	mov	x29, sp
	str	x0, [sp, 24]
	str	x1, [sp, 16]
	.loc 23 181 37
	bl	__ZSt21is_constant_evaluatedv
	and	w0, w0, 255
	.loc 23 181 7
	cmp	w0, 0
	beq	L407
	.loc 23 182 39
	ldr	x1, [sp, 16]
	ldr	x0, [sp, 24]
	bl	__ZNSt12_Destroy_auxILb0EE9__destroyIPNSt7__cxx1112basic_stringIcSt11char_traitsIcESaIcEEEEEvT_S9_
	.loc 23 182 55
	b	L406
L407:
	.loc 23 185 11
	ldr	x1, [sp, 16]
	ldr	x0, [sp, 24]
	bl	__ZNSt12_Destroy_auxILb0EE9__destroyIPNSt7__cxx1112basic_stringIcSt11char_traitsIcESaIcEEEEEvT_S9_
L406:
	.loc 23 186 5
	ldp	x29, x30, [sp], 32
LCFI311:
	ret
LFE13405:
	.align	2
	.globl __ZSt14__copy_move_a2ILb0EPKcPcET1_T0_S4_S3_
	.weak_definition __ZSt14__copy_move_a2ILb0EPKcPcET1_T0_S4_S3_
__ZSt14__copy_move_a2ILb0EPKcPcET1_T0_S4_S3_:
LFB13418:
	.loc 4 486 5
	stp	x29, x30, [sp, -48]!
LCFI312:
	mov	x29, sp
	str	x0, [sp, 40]
	str	x1, [sp, 32]
	str	x2, [sp, 24]
	.loc 4 490 37
	bl	__ZSt21is_constant_evaluatedv
	and	w0, w0, 255
	.loc 4 490 7
	cmp	w0, 0
	beq	L410
	.loc 4 492 12
	ldr	x2, [sp, 24]
	ldr	x1, [sp, 32]
	ldr	x0, [sp, 40]
	bl	__ZNSt11__copy_moveILb0ELb0ESt26random_access_iterator_tagE8__copy_mIPKcPcEET0_T_S7_S6_
	.loc 4 492 38
	b	L411
L410:
	.loc 4 495 30
	ldr	x2, [sp, 24]
	ldr	x1, [sp, 32]
	ldr	x0, [sp, 40]
	bl	__ZNSt11__copy_moveILb0ELb1ESt26random_access_iterator_tagE8__copy_mIcEEPT_PKS3_S6_S4_
	.loc 4 495 56
	nop
L411:
	.loc 4 496 5
	ldp	x29, x30, [sp], 48
LCFI313:
	ret
LFE13418:
	.align	2
	.globl __ZSt9addressofIcEPT_RS0_
	.weak_definition __ZSt9addressofIcEPT_RS0_
__ZSt9addressofIcEPT_RS0_:
LFB13430:
	.loc 11 145 5
	stp	x29, x30, [sp, -32]!
LCFI314:
	mov	x29, sp
	str	x0, [sp, 24]
	.loc 11 146 30
	ldr	x0, [sp, 24]
	bl	__ZSt11__addressofIcEPT_RS0_
	.loc 11 146 37
	ldp	x29, x30, [sp], 32
LCFI315:
	ret
LFE13430:
	.align	2
	.globl __ZNKSt7__cxx1112basic_stringIcSt11char_traitsIcESaIcEE8max_sizeEv
	.weak_definition __ZNKSt7__cxx1112basic_stringIcSt11char_traitsIcESaIcEE8max_sizeEv
__ZNKSt7__cxx1112basic_stringIcSt11char_traitsIcESaIcEE8max_sizeEv:
LFB13434:
	.loc 10 917 7
	stp	x29, x30, [sp, -32]!
LCFI316:
	mov	x29, sp
	str	x0, [sp, 24]
	.loc 10 918 57
	ldr	x0, [sp, 24]
	bl	__ZNKSt7__cxx1112basic_stringIcSt11char_traitsIcESaIcEE16_M_get_allocatorEv
	.loc 10 918 40
	bl	__ZNSt16allocator_traitsISaIcEE8max_sizeERKS0_
	.loc 10 918 61
	sub	x0, x0, #1
	.loc 10 918 68
	lsr	x0, x0, 1
	.loc 10 918 71
	ldp	x29, x30, [sp], 32
LCFI317:
	ret
LFE13434:
	.align	2
	.globl __ZNSt14pointer_traitsIPKcE10pointer_toERS0_
	.weak_definition __ZNSt14pointer_traitsIPKcE10pointer_toERS0_
__ZNSt14pointer_traitsIPKcE10pointer_toERS0_:
LFB13435:
	.loc 21 146 7
	stp	x29, x30, [sp, -32]!
LCFI318:
	mov	x29, sp
	str	x0, [sp, 24]
	.loc 21 147 30
	ldr	x0, [sp, 24]
	bl	__ZSt9addressofIKcEPT_RS1_
	.loc 21 147 37
	ldp	x29, x30, [sp], 32
LCFI319:
	ret
LFE13435:
	.align	2
	.globl __ZNSt7__cxx1112basic_stringIcSt11char_traitsIcESaIcEE9_M_mutateEmmPKcm
	.weak_definition __ZNSt7__cxx1112basic_stringIcSt11char_traitsIcESaIcEE9_M_mutateEmmPKcm
__ZNSt7__cxx1112basic_stringIcSt11char_traitsIcESaIcEE9_M_mutateEmmPKcm:
LFB13475:
	.loc 22 300 5
	stp	x29, x30, [sp, -112]!
LCFI320:
	mov	x29, sp
	str	x19, [sp, 16]
LCFI321:
	str	x0, [sp, 72]
	str	x1, [sp, 64]
	str	x2, [sp, 56]
	str	x3, [sp, 48]
	str	x4, [sp, 40]
	.loc 22 304 42
	ldr	x0, [sp, 72]
	bl	__ZNKSt7__cxx1112basic_stringIcSt11char_traitsIcESaIcEE6lengthEv
	mov	x1, x0
	.loc 22 304 45
	ldr	x0, [sp, 64]
	sub	x1, x1, x0
	.loc 22 304 23
	ldr	x0, [sp, 56]
	sub	x0, x1, x0
	str	x0, [sp, 104]
	.loc 22 306 40
	ldr	x0, [sp, 72]
	bl	__ZNKSt7__cxx1112basic_stringIcSt11char_traitsIcESaIcEE6lengthEv
	mov	x1, x0
	.loc 22 306 43
	ldr	x0, [sp, 40]
	add	x1, x1, x0
	.loc 22 306 52
	ldr	x0, [sp, 56]
	sub	x0, x1, x0
	.loc 22 306 17
	str	x0, [sp, 88]
	.loc 22 307 30
	ldr	x0, [sp, 72]
	bl	__ZNKSt7__cxx1112basic_stringIcSt11char_traitsIcESaIcEE8capacityEv
	mov	x1, x0
	add	x0, sp, 88
	mov	x2, x1
	mov	x1, x0
	ldr	x0, [sp, 72]
	bl	__ZNSt7__cxx1112basic_stringIcSt11char_traitsIcESaIcEE9_M_createERmm
	str	x0, [sp, 96]
	.loc 22 309 7
	ldr	x0, [sp, 64]
	cmp	x0, 0
	beq	L419
	.loc 22 310 28
	ldr	x0, [sp, 72]
	bl	__ZNKSt7__cxx1112basic_stringIcSt11char_traitsIcESaIcEE7_M_dataEv
	.loc 22 310 15
	ldr	x2, [sp, 64]
	mov	x1, x0
	ldr	x0, [sp, 96]
	bl	__ZNSt7__cxx1112basic_stringIcSt11char_traitsIcESaIcEE7_S_copyEPcPKcm
L419:
	.loc 22 311 7
	ldr	x0, [sp, 48]
	cmp	x0, 0
	beq	L420
	.loc 22 311 15
	ldr	x0, [sp, 40]
	cmp	x0, 0
	beq	L420
	.loc 22 312 15
	ldr	x1, [sp, 96]
	ldr	x0, [sp, 64]
	add	x0, x1, x0
	ldr	x2, [sp, 40]
	ldr	x1, [sp, 48]
	bl	__ZNSt7__cxx1112basic_stringIcSt11char_traitsIcESaIcEE7_S_copyEPcPKcm
L420:
	.loc 22 313 7
	ldr	x0, [sp, 104]
	cmp	x0, 0
	beq	L421
	.loc 22 314 28
	ldr	x1, [sp, 64]
	ldr	x0, [sp, 40]
	add	x0, x1, x0
	.loc 22 314 15
	ldr	x1, [sp, 96]
	add	x19, x1, x0
	.loc 22 315 16
	ldr	x0, [sp, 72]
	bl	__ZNKSt7__cxx1112basic_stringIcSt11char_traitsIcESaIcEE7_M_dataEv
	mov	x2, x0
	.loc 22 315 27
	ldr	x1, [sp, 64]
	ldr	x0, [sp, 56]
	add	x0, x1, x0
	add	x0, x2, x0
	.loc 22 314 15
	ldr	x2, [sp, 104]
	mov	x1, x0
	mov	x0, x19
	bl	__ZNSt7__cxx1112basic_stringIcSt11char_traitsIcESaIcEE7_S_copyEPcPKcm
L421:
	.loc 22 317 17
	ldr	x0, [sp, 72]
	bl	__ZNSt7__cxx1112basic_stringIcSt11char_traitsIcESaIcEE10_M_disposeEv
	.loc 22 318 14
	ldr	x1, [sp, 96]
	ldr	x0, [sp, 72]
	bl	__ZNSt7__cxx1112basic_stringIcSt11char_traitsIcESaIcEE7_M_dataEPc
	.loc 22 319 18
	ldr	x0, [sp, 88]
	mov	x1, x0
	ldr	x0, [sp, 72]
	bl	__ZNSt7__cxx1112basic_stringIcSt11char_traitsIcESaIcEE11_M_capacityEm
	.loc 22 320 5
	nop
	ldr	x19, [sp, 16]
	ldp	x29, x30, [sp], 112
LCFI322:
	ret
LFE13475:
	.align	2
	.globl __ZSt8distanceIPcENSt15iterator_traitsIT_E15difference_typeES2_S2_
	.weak_definition __ZSt8distanceIPcENSt15iterator_traitsIT_E15difference_typeES2_S2_
__ZSt8distanceIPcENSt15iterator_traitsIT_E15difference_typeES2_S2_:
LFB13546:
	.loc 20 138 5
	stp	x29, x30, [sp, -48]!
LCFI323:
	mov	x29, sp
	stp	x19, x20, [sp, 16]
LCFI324:
	str	x0, [sp, 40]
	str	x1, [sp, 32]
	.loc 20 141 29
	ldr	x19, [sp, 40]
	.loc 20 142 33
	add	x0, sp, 40
	bl	__ZSt19__iterator_categoryIPcENSt15iterator_traitsIT_E17iterator_categoryERKS2_
	.loc 20 141 29
	mov	w2, w20
	ldr	x1, [sp, 32]
	mov	x0, x19
	bl	__ZSt10__distanceIPcENSt15iterator_traitsIT_E15difference_typeES2_S2_St26random_access_iterator_tag
	.loc 20 143 5
	ldp	x19, x20, [sp, 16]
	ldp	x29, x30, [sp], 48
LCFI325:
	ret
LFE13546:
	.cstring
	.align	3
lC8:
	.ascii "basic_string::_M_construct null not valid\0"
	.text
	.align	2
	.globl __ZNSt7__cxx1112basic_stringIcSt11char_traitsIcESaIcEE12_M_constructIPcEEvT_S7_St20forward_iterator_tag
	.weak_definition __ZNSt7__cxx1112basic_stringIcSt11char_traitsIcESaIcEE12_M_constructIPcEEvT_S7_St20forward_iterator_tag
__ZNSt7__cxx1112basic_stringIcSt11char_traitsIcESaIcEE12_M_constructIPcEEvT_S7_St20forward_iterator_tag:
LFB13545:
	.loc 22 206 7
	stp	x29, x30, [sp, -64]!
LCFI326:
	mov	x29, sp
	str	x0, [sp, 40]
	str	x1, [sp, 32]
	str	x2, [sp, 24]
	strb	w3, [sp, 16]
	.loc 22 211 34
	ldr	x0, [sp, 32]
	bl	__ZN9__gnu_cxx17__is_null_pointerIcEEbPT_
	and	w0, w0, 255
	.loc 22 211 42
	cmp	w0, 0
	beq	L425
	.loc 22 211 42 is_stmt 0
	ldr	x1, [sp, 32]
	ldr	x0, [sp, 24]
	cmp	x1, x0
	beq	L425
	.loc 22 211 42
	mov	w0, 1
	b	L426
L425:
	.loc 22 211 42
	mov	w0, 0
L426:
	.loc 22 211 2 is_stmt 1
	cmp	w0, 0
	beq	L427
	.loc 22 212 28
	adrp	x0, lC8@GOTPAGE
	ldr	x0, [x0, lC8@GOTPAGEOFF];momd
	bl	__ZSt19__throw_logic_errorPKc
L427:
	.loc 22 215 57
	ldr	x1, [sp, 24]
	ldr	x0, [sp, 32]
	bl	__ZSt8distanceIPcENSt15iterator_traitsIT_E15difference_typeES2_S2_
	.loc 22 215 12
	str	x0, [sp, 56]
	.loc 22 217 13
	ldr	x0, [sp, 56]
	.loc 22 217 2
	cmp	x0, 15
	bls	L428
	.loc 22 219 13
	add	x0, sp, 56
	mov	x2, 0
	mov	x1, x0
	ldr	x0, [sp, 40]
	bl	__ZNSt7__cxx1112basic_stringIcSt11char_traitsIcESaIcEE9_M_createERmm
	mov	x1, x0
	ldr	x0, [sp, 40]
	bl	__ZNSt7__cxx1112basic_stringIcSt11char_traitsIcESaIcEE7_M_dataEPc
	.loc 22 220 17
	ldr	x0, [sp, 56]
	mov	x1, x0
	ldr	x0, [sp, 40]
	bl	__ZNSt7__cxx1112basic_stringIcSt11char_traitsIcESaIcEE11_M_capacityEm
L428:
	.loc 22 225 25
	ldr	x0, [sp, 40]
	bl	__ZNKSt7__cxx1112basic_stringIcSt11char_traitsIcESaIcEE7_M_dataEv
	ldr	x2, [sp, 24]
	ldr	x1, [sp, 32]
	bl	__ZNSt7__cxx1112basic_stringIcSt11char_traitsIcESaIcEE13_S_copy_charsEPcS5_S5_
	.loc 22 232 15
	ldr	x0, [sp, 56]
	mov	x1, x0
	ldr	x0, [sp, 40]
	bl	__ZNSt7__cxx1112basic_stringIcSt11char_traitsIcESaIcEE13_M_set_lengthEm
	.loc 22 233 7
	nop
	ldp	x29, x30, [sp], 64
LCFI327:
	ret
LFE13545:
	.align	2
	.globl __ZNK9__gnu_cxx13new_allocatorIcE11_M_max_sizeEv
	.weak_definition __ZNK9__gnu_cxx13new_allocatorIcE11_M_max_sizeEv
__ZNK9__gnu_cxx13new_allocatorIcE11_M_max_sizeEv:
LFB13551:
	.loc 18 191 7
	sub	sp, sp, #16
LCFI328:
	str	x0, [sp, 8]
	.loc 18 194 50
	mov	x0, 9223372036854775807
	.loc 18 198 7
	add	sp, sp, 16
LCFI329:
	ret
LFE13551:
	.align	2
	.globl __ZN9__gnu_cxx13new_allocatorIcE8allocateEmPKv
	.weak_definition __ZN9__gnu_cxx13new_allocatorIcE8allocateEmPKv
__ZN9__gnu_cxx13new_allocatorIcE8allocateEmPKv:
LFB13550:
	.loc 18 103 7
	stp	x29, x30, [sp, -48]!
LCFI330:
	mov	x29, sp
	str	x0, [sp, 40]
	str	x1, [sp, 32]
	str	x2, [sp, 24]
	.loc 18 105 46
	ldr	x0, [sp, 40]
	bl	__ZNK9__gnu_cxx13new_allocatorIcE11_M_max_sizeEv
	mov	x1, x0
	.loc 18 105 27
	ldr	x0, [sp, 32]
	cmp	x0, x1
	cset	w0, hi
	and	w0, w0, 255
	.loc 18 105 22
	and	x0, x0, 255
	cmp	x0, 0
	cset	w0, ne
	and	w0, w0, 255
	.loc 18 105 2
	cmp	w0, 0
	beq	L432
	.loc 18 111 28
	bl	__ZSt17__throw_bad_allocv
L432:
	.loc 18 121 41
	ldr	x0, [sp, 32]
	bl	__Znwm
	.loc 18 121 60
	nop
	.loc 18 122 7
	ldp	x29, x30, [sp], 48
LCFI331:
	ret
LFE13550:
	.align	2
	.globl __ZNSt12_Destroy_auxILb0EE9__destroyIPiEEvT_S3_
	.weak_definition __ZNSt12_Destroy_auxILb0EE9__destroyIPiEEvT_S3_
__ZNSt12_Destroy_auxILb0EE9__destroyIPiEEvT_S3_:
LFB13586:
	.loc 23 149 2
	stp	x29, x30, [sp, -32]!
LCFI332:
	mov	x29, sp
	str	x0, [sp, 24]
	str	x1, [sp, 16]
	.loc 23 151 4
	b	L435
L436:
	.loc 23 152 19
	ldr	x0, [sp, 24]
	bl	__ZSt11__addressofIiEPT_RS0_
	bl	__ZSt8_DestroyIiEvPT_
	.loc 23 151 4
	ldr	x0, [sp, 24]
	add	x0, x0, 4
	str	x0, [sp, 24]
L435:
	.loc 23 151 19
	ldr	x1, [sp, 24]
	ldr	x0, [sp, 16]
	cmp	x1, x0
	bne	L436
	.loc 23 153 2
	nop
	nop
	ldp	x29, x30, [sp], 32
LCFI333:
	ret
LFE13586:
	.align	2
	.globl __ZNSt12_Destroy_auxILb1EE9__destroyIPiEEvT_S3_
	.weak_definition __ZNSt12_Destroy_auxILb1EE9__destroyIPiEEvT_S3_
__ZNSt12_Destroy_auxILb1EE9__destroyIPiEEvT_S3_:
LFB13587:
	.loc 23 161 9
	sub	sp, sp, #16
LCFI334:
	str	x0, [sp, 8]
	str	x1, [sp]
	.loc 23 161 57
	nop
	add	sp, sp, 16
LCFI335:
	ret
LFE13587:
	.align	2
	.globl __ZNKSt6vectorIiSaIiEE12_M_check_lenEmPKc
	.weak_definition __ZNKSt6vectorIiSaIiEE12_M_check_lenEmPKc
__ZNKSt6vectorIiSaIiEE12_M_check_lenEmPKc:
LFB13588:
	.loc 5 1756 7
	stp	x29, x30, [sp, -80]!
LCFI336:
	mov	x29, sp
	str	x19, [sp, 16]
LCFI337:
	str	x0, [sp, 56]
	str	x1, [sp, 48]
	str	x2, [sp, 40]
	.loc 5 1758 14
	ldr	x0, [sp, 56]
	bl	__ZNKSt6vectorIiSaIiEE8max_sizeEv
	mov	x19, x0
	.loc 5 1758 23
	ldr	x0, [sp, 56]
	bl	__ZNKSt6vectorIiSaIiEE4sizeEv
	.loc 5 1758 17
	sub	x1, x19, x0
	.loc 5 1758 26
	ldr	x0, [sp, 48]
	cmp	x1, x0
	cset	w0, cc
	and	w0, w0, 255
	.loc 5 1758 2
	cmp	w0, 0
	beq	L439
	.loc 5 1759 24
	ldr	x0, [sp, 40]
	bl	__ZSt20__throw_length_errorPKc
L439:
	.loc 5 1761 30
	ldr	x0, [sp, 56]
	bl	__ZNKSt6vectorIiSaIiEE4sizeEv
	mov	x19, x0
	.loc 5 1761 50
	ldr	x0, [sp, 56]
	bl	__ZNKSt6vectorIiSaIiEE4sizeEv
	str	x0, [sp, 64]
	.loc 5 1761 45
	add	x1, sp, 48
	add	x0, sp, 64
	bl	__ZSt3maxImERKT_S2_S2_
	.loc 5 1761 33
	ldr	x0, [x0]
	.loc 5 1761 18
	add	x0, x19, x0
	str	x0, [sp, 72]
	.loc 5 1762 22
	ldr	x0, [sp, 56]
	bl	__ZNKSt6vectorIiSaIiEE4sizeEv
	mov	x1, x0
	.loc 5 1762 48
	ldr	x0, [sp, 72]
	cmp	x0, x1
	bcc	L440
	.loc 5 1762 44
	ldr	x0, [sp, 56]
	bl	__ZNKSt6vectorIiSaIiEE8max_sizeEv
	mov	x1, x0
	.loc 5 1762 25
	ldr	x0, [sp, 72]
	cmp	x0, x1
	bls	L441
L440:
	.loc 5 1762 58
	ldr	x0, [sp, 56]
	bl	__ZNKSt6vectorIiSaIiEE8max_sizeEv
	.loc 5 1762 48
	b	L442
L441:
	.loc 5 1762 48 is_stmt 0
	ldr	x0, [sp, 72]
L442:
	.loc 5 1763 7 is_stmt 1
	ldr	x19, [sp, 16]
	ldp	x29, x30, [sp], 80
LCFI338:
	ret
LFE13588:
	.align	2
	.globl __ZN9__gnu_cxxmiIPiSt6vectorIiSaIiEEEENS_17__normal_iteratorIT_T0_E15difference_typeERKS8_SB_
	.weak_definition __ZN9__gnu_cxxmiIPiSt6vectorIiSaIiEEEENS_17__normal_iteratorIT_T0_E15difference_typeERKS8_SB_
__ZN9__gnu_cxxmiIPiSt6vectorIiSaIiEEEENS_17__normal_iteratorIT_T0_E15difference_typeERKS8_SB_:
LFB13589:
	.loc 8 1231 5
	stp	x29, x30, [sp, -48]!
LCFI339:
	mov	x29, sp
	str	x19, [sp, 16]
LCFI340:
	str	x0, [sp, 40]
	str	x1, [sp, 32]
	.loc 8 1234 24
	ldr	x0, [sp, 40]
	bl	__ZNK9__gnu_cxx17__normal_iteratorIPiSt6vectorIiSaIiEEE4baseEv
	.loc 8 1234 27
	ldr	x19, [x0]
	.loc 8 1234 39
	ldr	x0, [sp, 32]
	bl	__ZNK9__gnu_cxx17__normal_iteratorIPiSt6vectorIiSaIiEEE4baseEv
	.loc 8 1234 27
	ldr	x0, [x0]
	sub	x0, x19, x0
	.loc 8 1234 40
	asr	x0, x0, 2
	.loc 8 1234 43
	ldr	x19, [sp, 16]
	ldp	x29, x30, [sp], 48
LCFI341:
	ret
LFE13589:
	.align	2
	.globl __ZNSt12_Vector_baseIiSaIiEE11_M_allocateEm
	.weak_definition __ZNSt12_Vector_baseIiSaIiEE11_M_allocateEm
__ZNSt12_Vector_baseIiSaIiEE11_M_allocateEm:
LFB13590:
	.loc 5 343 7
	stp	x29, x30, [sp, -32]!
LCFI342:
	mov	x29, sp
	str	x0, [sp, 24]
	str	x1, [sp, 16]
	.loc 5 346 18
	ldr	x0, [sp, 16]
	cmp	x0, 0
	beq	L447
	.loc 5 346 34
	ldr	x0, [sp, 24]
	.loc 5 346 33
	ldr	x1, [sp, 16]
	bl	__ZNSt16allocator_traitsISaIiEE8allocateERS0_m
	.loc 5 346 58
	b	L449
L447:
	.loc 5 346 18
	mov	x0, 0
L449:
	.loc 5 347 7
	ldp	x29, x30, [sp], 32
LCFI343:
	ret
LFE13590:
	.align	2
	.globl __ZNSt6vectorIiSaIiEE11_S_relocateEPiS2_S2_RS0_
	.weak_definition __ZNSt6vectorIiSaIiEE11_S_relocateEPiS2_S2_RS0_
__ZNSt6vectorIiSaIiEE11_S_relocateEPiS2_S2_RS0_:
LFB13591:
	.loc 5 465 7
	stp	x29, x30, [sp, -48]!
LCFI344:
	mov	x29, sp
	str	x0, [sp, 40]
	str	x1, [sp, 32]
	str	x2, [sp, 24]
	str	x3, [sp, 16]
	.loc 5 469 23
	ldr	x3, [sp, 16]
	ldr	x2, [sp, 24]
	ldr	x1, [sp, 32]
	ldr	x0, [sp, 40]
	bl	__ZNSt6vectorIiSaIiEE14_S_do_relocateEPiS2_S2_RS0_St17integral_constantIbLb1EE
	.loc 5 470 7
	ldp	x29, x30, [sp], 48
LCFI345:
	ret
LFE13591:
	.align	2
	.globl __ZNK9__gnu_cxx17__normal_iteratorIPiSt6vectorIiSaIiEEEmiEl
	.weak_definition __ZNK9__gnu_cxx17__normal_iteratorIPiSt6vectorIiSaIiEEEmiEl
__ZNK9__gnu_cxx17__normal_iteratorIPiSt6vectorIiSaIiEEEmiEl:
LFB13593:
	.loc 8 1080 7
	stp	x29, x30, [sp, -48]!
LCFI346:
	mov	x29, sp
	str	x0, [sp, 24]
	str	x1, [sp, 16]
	.loc 8 1081 34
	ldr	x0, [sp, 24]
	ldr	x1, [x0]
	.loc 8 1081 47
	ldr	x0, [sp, 16]
	.loc 8 1081 45
	lsl	x0, x0, 2
	neg	x0, x0
	add	x0, x1, x0
	str	x0, [sp, 40]
	.loc 8 1081 16
	add	x1, sp, 40
	add	x0, sp, 32
	bl	__ZN9__gnu_cxx17__normal_iteratorIPiSt6vectorIiSaIiEEEC1ERKS1_
	.loc 8 1081 50
	ldr	x0, [sp, 32]
	.loc 8 1081 53
	ldp	x29, x30, [sp], 48
LCFI347:
	ret
LFE13593:
	.align	2
	.globl __ZNSaINSt7__cxx1112basic_stringIcSt11char_traitsIcESaIcEEEEC2ERKS5_
	.weak_definition __ZNSaINSt7__cxx1112basic_stringIcSt11char_traitsIcESaIcEEEEC2ERKS5_
__ZNSaINSt7__cxx1112basic_stringIcSt11char_traitsIcESaIcEEEEC2ERKS5_:
LFB13602:
	.loc 12 147 7
	stp	x29, x30, [sp, -32]!
LCFI348:
	mov	x29, sp
	str	x0, [sp, 24]
	str	x1, [sp, 16]
LBB107:
	.loc 12 148 34
	ldr	x1, [sp, 16]
	ldr	x0, [sp, 24]
	bl	__ZN9__gnu_cxx13new_allocatorINSt7__cxx1112basic_stringIcSt11char_traitsIcESaIcEEEEC2ERKS7_
LBE107:
	.loc 12 148 38
	nop
	ldp	x29, x30, [sp], 32
LCFI349:
	ret
LFE13602:
	.align	2
	.globl __ZNSaINSt7__cxx1112basic_stringIcSt11char_traitsIcESaIcEEEEC1ERKS5_
	.weak_definition __ZNSaINSt7__cxx1112basic_stringIcSt11char_traitsIcESaIcEEEEC1ERKS5_
__ZNSaINSt7__cxx1112basic_stringIcSt11char_traitsIcESaIcEEEEC1ERKS5_:
LFB13603:
	.loc 12 147 7
	stp	x29, x30, [sp, -32]!
LCFI350:
	mov	x29, sp
	str	x0, [sp, 24]
	str	x1, [sp, 16]
LBB108:
	.loc 12 148 34
	ldr	x1, [sp, 16]
	ldr	x0, [sp, 24]
	bl	__ZN9__gnu_cxx13new_allocatorINSt7__cxx1112basic_stringIcSt11char_traitsIcESaIcEEEEC2ERKS7_
LBE108:
	.loc 12 148 38
	nop
	ldp	x29, x30, [sp], 32
LCFI351:
	ret
LFE13603:
	.align	2
	.globl __ZNSt12_Vector_baseINSt7__cxx1112basic_stringIcSt11char_traitsIcESaIcEEESaIS5_EE17_Vector_impl_dataC2Ev
	.weak_definition __ZNSt12_Vector_baseINSt7__cxx1112basic_stringIcSt11char_traitsIcESaIcEEESaIS5_EE17_Vector_impl_dataC2Ev
__ZNSt12_Vector_baseINSt7__cxx1112basic_stringIcSt11char_traitsIcESaIcEEESaIS5_EE17_Vector_impl_dataC2Ev:
LFB13605:
	.loc 5 97 2
	sub	sp, sp, #16
LCFI352:
	str	x0, [sp, 8]
LBB109:
	.loc 5 98 4
	ldr	x0, [sp, 8]
	str	xzr, [x0]
	.loc 5 98 16
	ldr	x0, [sp, 8]
	str	xzr, [x0, 8]
	.loc 5 98 29
	ldr	x0, [sp, 8]
	str	xzr, [x0, 16]
LBE109:
	.loc 5 99 4
	nop
	add	sp, sp, 16
LCFI353:
	ret
LFE13605:
	.align	2
	.globl __ZNSt16allocator_traitsISaINSt7__cxx1112basic_stringIcSt11char_traitsIcESaIcEEEEE10deallocateERS6_PS5_m
	.weak_definition __ZNSt16allocator_traitsISaINSt7__cxx1112basic_stringIcSt11char_traitsIcESaIcEEEEE10deallocateERS6_PS5_m
__ZNSt16allocator_traitsISaINSt7__cxx1112basic_stringIcSt11char_traitsIcESaIcEEEEE10deallocateERS6_PS5_m:
LFB13607:
	.loc 16 491 7
	stp	x29, x30, [sp, -80]!
LCFI354:
	mov	x29, sp
	str	x0, [sp, 40]
	str	x1, [sp, 32]
	str	x2, [sp, 24]
	ldr	x0, [sp, 40]
	str	x0, [sp, 72]
	ldr	x0, [sp, 32]
	str	x0, [sp, 64]
	ldr	x0, [sp, 24]
	str	x0, [sp, 56]
LBB110:
LBB111:
	.loc 12 181 32
	bl	__ZSt21is_constant_evaluatedv
	and	w0, w0, 255
	.loc 12 181 2
	cmp	w0, 0
	beq	L458
	.loc 12 183 23
	ldr	x0, [sp, 64]
	bl	__ZdlPv
	.loc 12 184 6
	b	L459
L458:
	.loc 12 187 37
	ldr	x2, [sp, 56]
	ldr	x1, [sp, 64]
	ldr	x0, [sp, 72]
	bl	__ZN9__gnu_cxx13new_allocatorINSt7__cxx1112basic_stringIcSt11char_traitsIcESaIcEEEE10deallocateEPS6_m
LBE111:
LBE110:
	.loc 16 492 35
	nop
L459:
	nop
	ldp	x29, x30, [sp], 80
LCFI355:
	ret
LFE13607:
	.align	2
	.globl __ZNSt16allocator_traitsISaINSt7__cxx1112basic_stringIcSt11char_traitsIcESaIcEEEEE8max_sizeERKS6_
	.weak_definition __ZNSt16allocator_traitsISaINSt7__cxx1112basic_stringIcSt11char_traitsIcESaIcEEEEE8max_sizeERKS6_
__ZNSt16allocator_traitsISaINSt7__cxx1112basic_stringIcSt11char_traitsIcESaIcEEEEE8max_sizeERKS6_:
LFB13609:
	.loc 16 543 7
	sub	sp, sp, #16
LCFI356:
	str	x0, [sp, 8]
	.loc 16 548 39
	mov	x0, 576460752303423487
	.loc 16 550 7
	add	sp, sp, 16
LCFI357:
	ret
LFE13609:
	.align	2
	.globl __ZNSt6vectorINSt7__cxx1112basic_stringIcSt11char_traitsIcESaIcEEESaIS5_EE11_S_max_sizeERKS6_
	.weak_definition __ZNSt6vectorINSt7__cxx1112basic_stringIcSt11char_traitsIcESaIcEEESaIS5_EE11_S_max_sizeERKS6_
__ZNSt6vectorINSt7__cxx1112basic_stringIcSt11char_traitsIcESaIcEEESaIS5_EE11_S_max_sizeERKS6_:
LFB13608:
	.loc 5 1776 7
	stp	x29, x30, [sp, -48]!
LCFI358:
	mov	x29, sp
	str	x0, [sp, 24]
	.loc 5 1781 15
	mov	x0, 288230376151711743
	str	x0, [sp, 40]
	.loc 5 1783 51
	ldr	x0, [sp, 24]
	bl	__ZNSt16allocator_traitsISaINSt7__cxx1112basic_stringIcSt11char_traitsIcESaIcEEEEE8max_sizeERKS6_
	.loc 5 1783 15
	str	x0, [sp, 32]
	.loc 5 1784 19
	add	x1, sp, 32
	add	x0, sp, 40
	bl	__ZSt3minImERKT_S2_S2_
	.loc 5 1784 41
	ldr	x0, [x0]
	.loc 5 1785 7
	ldp	x29, x30, [sp], 48
LCFI359:
	ret
LFE13608:
	.align	2
	.globl __ZNSt16allocator_traitsISaINSt7__cxx1112basic_stringIcSt11char_traitsIcESaIcEEEEE8allocateERS6_m
	.weak_definition __ZNSt16allocator_traitsISaINSt7__cxx1112basic_stringIcSt11char_traitsIcESaIcEEEEE8allocateERS6_m
__ZNSt16allocator_traitsISaINSt7__cxx1112basic_stringIcSt11char_traitsIcESaIcEEEEE8allocateERS6_m:
LFB13610:
	.loc 16 459 7
	stp	x29, x30, [sp, -48]!
LCFI360:
	mov	x29, sp
	str	x0, [sp, 24]
	str	x1, [sp, 16]
	ldr	x0, [sp, 24]
	str	x0, [sp, 40]
	ldr	x0, [sp, 16]
	str	x0, [sp, 32]
LBB112:
LBB113:
	.loc 12 170 32
	bl	__ZSt21is_constant_evaluatedv
	and	w0, w0, 255
	.loc 12 170 2
	cmp	w0, 0
	beq	L465
	.loc 12 171 43
	ldr	x0, [sp, 32]
	lsl	x0, x0, 5
	bl	__Znwm
	.loc 12 171 62
	b	L466
L465:
	.loc 12 173 40
	mov	x2, 0
	ldr	x1, [sp, 32]
	ldr	x0, [sp, 40]
	bl	__ZN9__gnu_cxx13new_allocatorINSt7__cxx1112basic_stringIcSt11char_traitsIcESaIcEEEE8allocateEmPKv
	.loc 12 173 47
	nop
L466:
LBE113:
LBE112:
	.loc 16 460 35
	ldp	x29, x30, [sp], 48
LCFI361:
	ret
LFE13610:
	.align	2
	.globl __ZSt18uninitialized_copyIPKNSt7__cxx1112basic_stringIcSt11char_traitsIcESaIcEEEPS5_ET0_T_SA_S9_
	.weak_definition __ZSt18uninitialized_copyIPKNSt7__cxx1112basic_stringIcSt11char_traitsIcESaIcEEEPS5_ET0_T_SA_S9_
__ZSt18uninitialized_copyIPKNSt7__cxx1112basic_stringIcSt11char_traitsIcESaIcEEEPS5_ET0_T_SA_S9_:
LFB13611:
	.loc 24 126 5
	stp	x29, x30, [sp, -64]!
LCFI362:
	mov	x29, sp
	str	x0, [sp, 40]
	str	x1, [sp, 32]
	str	x2, [sp, 24]
	.loc 24 145 18
	mov	w0, 1
	strb	w0, [sp, 63]
	.loc 24 151 15
	ldr	x2, [sp, 24]
	ldr	x1, [sp, 32]
	ldr	x0, [sp, 40]
	bl	__ZNSt20__uninitialized_copyILb0EE13__uninit_copyIPKNSt7__cxx1112basic_stringIcSt11char_traitsIcESaIcEEEPS7_EET0_T_SC_SB_
	.loc 24 152 5
	ldp	x29, x30, [sp], 64
LCFI363:
	ret
LFE13611:
	.align	2
	.globl __ZNSt12_Destroy_auxILb0EE9__destroyIPNSt7__cxx1112basic_stringIcSt11char_traitsIcESaIcEEEEEvT_S9_
	.weak_definition __ZNSt12_Destroy_auxILb0EE9__destroyIPNSt7__cxx1112basic_stringIcSt11char_traitsIcESaIcEEEEEvT_S9_
__ZNSt12_Destroy_auxILb0EE9__destroyIPNSt7__cxx1112basic_stringIcSt11char_traitsIcESaIcEEEEEvT_S9_:
LFB13613:
	.loc 23 149 2
	stp	x29, x30, [sp, -32]!
LCFI364:
	mov	x29, sp
	str	x0, [sp, 24]
	str	x1, [sp, 16]
	.loc 23 151 4
	b	L471
L472:
	.loc 23 152 19
	ldr	x0, [sp, 24]
	bl	__ZSt11__addressofINSt7__cxx1112basic_stringIcSt11char_traitsIcESaIcEEEEPT_RS6_
	bl	__ZSt8_DestroyINSt7__cxx1112basic_stringIcSt11char_traitsIcESaIcEEEEvPT_
	.loc 23 151 4
	ldr	x0, [sp, 24]
	add	x0, x0, 32
	str	x0, [sp, 24]
L471:
	.loc 23 151 19
	ldr	x1, [sp, 24]
	ldr	x0, [sp, 16]
	cmp	x1, x0
	bne	L472
	.loc 23 153 2
	nop
	nop
	ldp	x29, x30, [sp], 32
LCFI365:
	ret
LFE13613:
	.align	2
	.globl __ZNSt11__copy_moveILb0ELb0ESt26random_access_iterator_tagE8__copy_mIPKcPcEET0_T_S7_S6_
	.weak_definition __ZNSt11__copy_moveILb0ELb0ESt26random_access_iterator_tagE8__copy_mIPKcPcEET0_T_S7_S6_
__ZNSt11__copy_moveILb0ELb0ESt26random_access_iterator_tagE8__copy_mIPKcPcEET0_T_S7_S6_:
LFB13616:
	.loc 4 380 2
	sub	sp, sp, #48
LCFI366:
	str	x0, [sp, 24]
	str	x1, [sp, 16]
	str	x2, [sp, 8]
LBB114:
	.loc 4 383 18
	ldr	x1, [sp, 16]
	ldr	x0, [sp, 24]
	sub	x0, x1, x0
	str	x0, [sp, 40]
	.loc 4 383 4
	b	L474
L475:
	.loc 4 385 18
	ldr	x0, [sp, 24]
	ldrsb	w1, [x0]
	ldr	x0, [sp, 8]
	strb	w1, [x0]
	.loc 4 386 8
	ldr	x0, [sp, 24]
	add	x0, x0, 1
	str	x0, [sp, 24]
	.loc 4 387 8
	ldr	x0, [sp, 8]
	add	x0, x0, 1
	str	x0, [sp, 8]
	.loc 4 383 4
	ldr	x0, [sp, 40]
	sub	x0, x0, #1
	str	x0, [sp, 40]
L474:
	.loc 4 383 46
	ldr	x0, [sp, 40]
	cmp	x0, 0
	bgt	L475
LBE114:
	.loc 4 389 11
	ldr	x0, [sp, 8]
	.loc 4 390 2
	add	sp, sp, 48
LCFI367:
	ret
LFE13616:
	.align	2
	.globl __ZNSt11__copy_moveILb0ELb1ESt26random_access_iterator_tagE8__copy_mIcEEPT_PKS3_S6_S4_
	.weak_definition __ZNSt11__copy_moveILb0ELb1ESt26random_access_iterator_tagE8__copy_mIcEEPT_PKS3_S6_S4_
__ZNSt11__copy_moveILb0ELb1ESt26random_access_iterator_tagE8__copy_mIcEEPT_PKS3_S6_S4_:
LFB13617:
	.loc 4 420 2
	stp	x29, x30, [sp, -64]!
LCFI368:
	mov	x29, sp
	str	x0, [sp, 40]
	str	x1, [sp, 32]
	str	x2, [sp, 24]
	.loc 4 429 20
	ldr	x1, [sp, 32]
	ldr	x0, [sp, 40]
	sub	x0, x1, x0
	str	x0, [sp, 56]
	.loc 4 430 4
	ldr	x0, [sp, 56]
	cmp	x0, 0
	beq	L478
	.loc 4 431 23
	ldr	x0, [sp, 56]
	mov	x2, x0
	ldr	x1, [sp, 40]
	ldr	x0, [sp, 24]
	bl	_memmove
L478:
	.loc 4 432 22
	ldr	x0, [sp, 56]
	ldr	x1, [sp, 24]
	add	x0, x1, x0
	.loc 4 433 2
	ldp	x29, x30, [sp], 64
LCFI369:
	ret
LFE13617:
	.align	2
	.globl __ZSt11__addressofIcEPT_RS0_
	.weak_definition __ZSt11__addressofIcEPT_RS0_
__ZSt11__addressofIcEPT_RS0_:
LFB13634:
	.loc 11 49 5
	sub	sp, sp, #16
LCFI370:
	str	x0, [sp, 8]
	.loc 11 50 37
	ldr	x0, [sp, 8]
	.loc 11 50 40
	add	sp, sp, 16
LCFI371:
	ret
LFE13634:
	.align	2
	.globl __ZNSt16allocator_traitsISaIcEE8max_sizeERKS0_
	.weak_definition __ZNSt16allocator_traitsISaIcEE8max_sizeERKS0_
__ZNSt16allocator_traitsISaIcEE8max_sizeERKS0_:
LFB13635:
	.loc 16 543 7
	sub	sp, sp, #16
LCFI372:
	str	x0, [sp, 8]
	.loc 16 548 39
	mov	x0, -1
	.loc 16 550 7
	add	sp, sp, 16
LCFI373:
	ret
LFE13635:
	.align	2
	.globl __ZSt9addressofIKcEPT_RS1_
	.weak_definition __ZSt9addressofIKcEPT_RS1_
__ZSt9addressofIKcEPT_RS1_:
LFB13636:
	.loc 11 145 5
	stp	x29, x30, [sp, -32]!
LCFI374:
	mov	x29, sp
	str	x0, [sp, 24]
	.loc 11 146 30
	ldr	x0, [sp, 24]
	bl	__ZSt11__addressofIKcEPT_RS1_
	.loc 11 146 37
	ldp	x29, x30, [sp], 32
LCFI375:
	ret
LFE13636:
	.align	2
	.globl __ZN9__gnu_cxx17__is_null_pointerIcEEbPT_
	.weak_definition __ZN9__gnu_cxx17__is_null_pointerIcEEbPT_
__ZN9__gnu_cxx17__is_null_pointerIcEEbPT_:
LFB13730:
	.file 25 "/opt/homebrew/Cellar/gcc/11.2.0/include/c++/11.1.0/ext/type_traits.h"
	.loc 25 152 5
	sub	sp, sp, #16
LCFI376:
	str	x0, [sp, 8]
	.loc 25 153 23
	ldr	x0, [sp, 8]
	cmp	x0, 0
	cset	w0, eq
	and	w0, w0, 255
	.loc 25 153 26
	add	sp, sp, 16
LCFI377:
	ret
LFE13730:
	.align	2
	.globl __ZSt10__distanceIPcENSt15iterator_traitsIT_E15difference_typeES2_S2_St26random_access_iterator_tag
	.weak_definition __ZSt10__distanceIPcENSt15iterator_traitsIT_E15difference_typeES2_S2_St26random_access_iterator_tag
__ZSt10__distanceIPcENSt15iterator_traitsIT_E15difference_typeES2_S2_St26random_access_iterator_tag:
LFB13731:
	.loc 20 98 5
	sub	sp, sp, #32
LCFI378:
	str	x0, [sp, 24]
	str	x1, [sp, 16]
	strb	w2, [sp, 8]
	.loc 20 104 23
	ldr	x1, [sp, 16]
	ldr	x0, [sp, 24]
	sub	x0, x1, x0
	.loc 20 105 5
	add	sp, sp, 32
LCFI379:
	ret
LFE13731:
	.align	2
	.globl __ZNSt7__cxx1112basic_stringIcSt11char_traitsIcESaIcEE13_S_copy_charsEPcS5_S5_
	.weak_definition __ZNSt7__cxx1112basic_stringIcSt11char_traitsIcESaIcEE13_S_copy_charsEPcS5_S5_
__ZNSt7__cxx1112basic_stringIcSt11char_traitsIcESaIcEE13_S_copy_charsEPcS5_S5_:
LFB13732:
	.loc 10 392 7
	stp	x29, x30, [sp, -48]!
LCFI380:
	mov	x29, sp
	str	x0, [sp, 40]
	str	x1, [sp, 32]
	str	x2, [sp, 24]
	.loc 10 393 33
	ldr	x1, [sp, 24]
	ldr	x0, [sp, 32]
	sub	x0, x1, x0
	.loc 10 393 16
	mov	x2, x0
	ldr	x1, [sp, 32]
	ldr	x0, [sp, 40]
	bl	__ZNSt7__cxx1112basic_stringIcSt11char_traitsIcESaIcEE7_S_copyEPcPKcm
	.loc 10 393 42
	nop
	ldp	x29, x30, [sp], 48
LCFI381:
	ret
LFE13732:
	.section __DATA,__gcc_except_tab
_GCC_except_table17:
LLSDA13732:
	.byte	0xff
	.byte	0xff
	.byte	0x1
	.uleb128 LLSDACSE13732-LLSDACSB13732
LLSDACSB13732:
LLSDACSE13732:
	.text
	.align	2
	.globl __ZN9__gnu_cxx13new_allocatorIcE10deallocateEPcm
	.weak_definition __ZN9__gnu_cxx13new_allocatorIcE10deallocateEPcm
__ZN9__gnu_cxx13new_allocatorIcE10deallocateEPcm:
LFB13734:
	.loc 18 126 7
	stp	x29, x30, [sp, -48]!
LCFI382:
	mov	x29, sp
	str	x0, [sp, 40]
	str	x1, [sp, 32]
	str	x2, [sp, 24]
	.loc 18 139 19
	ldr	x1, [sp, 24]
	ldr	x0, [sp, 32]
	bl	__ZdlPvm
	.loc 18 144 7
	ldp	x29, x30, [sp], 48
LCFI383:
	ret
LFE13734:
	.align	2
	.globl __ZN9__gnu_cxx13new_allocatorIiE10deallocateEPim
	.weak_definition __ZN9__gnu_cxx13new_allocatorIiE10deallocateEPim
__ZN9__gnu_cxx13new_allocatorIiE10deallocateEPim:
LFB13745:
	.loc 18 126 7
	stp	x29, x30, [sp, -48]!
LCFI384:
	mov	x29, sp
	str	x0, [sp, 40]
	str	x1, [sp, 32]
	str	x2, [sp, 24]
	.loc 18 139 19
	ldr	x0, [sp, 24]
	lsl	x0, x0, 2
	mov	x1, x0
	ldr	x0, [sp, 32]
	bl	__ZdlPvm
	.loc 18 144 7
	ldp	x29, x30, [sp], 48
LCFI385:
	ret
LFE13745:
	.align	2
	.globl __ZSt11__addressofIiEPT_RS0_
	.weak_definition __ZSt11__addressofIiEPT_RS0_
__ZSt11__addressofIiEPT_RS0_:
LFB13746:
	.loc 11 49 5
	sub	sp, sp, #16
LCFI386:
	str	x0, [sp, 8]
	.loc 11 50 37
	ldr	x0, [sp, 8]
	.loc 11 50 40
	add	sp, sp, 16
LCFI387:
	ret
LFE13746:
	.align	2
	.globl __ZSt8_DestroyIiEvPT_
	.weak_definition __ZSt8_DestroyIiEvPT_
__ZSt8_DestroyIiEvPT_:
LFB13747:
	.loc 23 135 5
	stp	x29, x30, [sp, -32]!
LCFI388:
	mov	x29, sp
	str	x0, [sp, 24]
	.loc 23 138 22
	ldr	x0, [sp, 24]
	bl	__ZSt10destroy_atIiEvPT_
	.loc 23 142 5
	nop
	ldp	x29, x30, [sp], 32
LCFI389:
	ret
LFE13747:
	.align	2
	.globl __ZNKSt6vectorIiSaIiEE8max_sizeEv
	.weak_definition __ZNKSt6vectorIiSaIiEE8max_sizeEv
__ZNKSt6vectorIiSaIiEE8max_sizeEv:
LFB13748:
	.loc 5 923 7
	stp	x29, x30, [sp, -32]!
LCFI390:
	mov	x29, sp
	str	x0, [sp, 24]
	.loc 5 924 47
	ldr	x0, [sp, 24]
	bl	__ZNKSt12_Vector_baseIiSaIiEE19_M_get_Tp_allocatorEv
	.loc 5 924 27
	bl	__ZNSt6vectorIiSaIiEE11_S_max_sizeERKS0_
	.loc 5 924 52
	ldp	x29, x30, [sp], 32
LCFI391:
	ret
LFE13748:
	.align	2
	.globl __ZNKSt6vectorIiSaIiEE4sizeEv
	.weak_definition __ZNKSt6vectorIiSaIiEE4sizeEv
__ZNKSt6vectorIiSaIiEE4sizeEv:
LFB13749:
	.loc 5 918 7
	sub	sp, sp, #16
LCFI392:
	str	x0, [sp, 8]
	.loc 5 919 40
	ldr	x0, [sp, 8]
	ldr	x1, [x0, 8]
	.loc 5 919 66
	ldr	x0, [sp, 8]
	ldr	x0, [x0]
	.loc 5 919 50
	sub	x0, x1, x0
	asr	x0, x0, 2
	.loc 5 919 77
	add	sp, sp, 16
LCFI393:
	ret
LFE13749:
	.align	2
	.globl __ZNSt16allocator_traitsISaIiEE8allocateERS0_m
	.weak_definition __ZNSt16allocator_traitsISaIiEE8allocateERS0_m
__ZNSt16allocator_traitsISaIiEE8allocateERS0_m:
LFB13750:
	.loc 16 459 7
	stp	x29, x30, [sp, -48]!
LCFI394:
	mov	x29, sp
	str	x0, [sp, 24]
	str	x1, [sp, 16]
	ldr	x0, [sp, 24]
	str	x0, [sp, 40]
	ldr	x0, [sp, 16]
	str	x0, [sp, 32]
LBB115:
LBB116:
	.loc 12 170 32
	bl	__ZSt21is_constant_evaluatedv
	and	w0, w0, 255
	.loc 12 170 2
	cmp	w0, 0
	beq	L503
	.loc 12 171 43
	ldr	x0, [sp, 32]
	lsl	x0, x0, 2
	bl	__Znwm
	.loc 12 171 62
	b	L504
L503:
	.loc 12 173 40
	mov	x2, 0
	ldr	x1, [sp, 32]
	ldr	x0, [sp, 40]
	bl	__ZN9__gnu_cxx13new_allocatorIiE8allocateEmPKv
	.loc 12 173 47
	nop
L504:
LBE116:
LBE115:
	.loc 16 460 35
	ldp	x29, x30, [sp], 48
LCFI395:
	ret
LFE13750:
	.align	2
	.globl __ZNSt6vectorIiSaIiEE14_S_do_relocateEPiS2_S2_RS0_St17integral_constantIbLb1EE
	.weak_definition __ZNSt6vectorIiSaIiEE14_S_do_relocateEPiS2_S2_RS0_St17integral_constantIbLb1EE
__ZNSt6vectorIiSaIiEE14_S_do_relocateEPiS2_S2_RS0_St17integral_constantIbLb1EE:
LFB13751:
	.loc 5 453 7
	stp	x29, x30, [sp, -64]!
LCFI396:
	mov	x29, sp
	str	x0, [sp, 56]
	str	x1, [sp, 48]
	str	x2, [sp, 40]
	str	x3, [sp, 32]
	strb	w4, [sp, 24]
	.loc 5 456 26
	ldr	x3, [sp, 32]
	ldr	x2, [sp, 40]
	ldr	x1, [sp, 48]
	ldr	x0, [sp, 56]
	bl	__ZSt12__relocate_aIPiS0_SaIiEET0_T_S3_S2_RT1_
	.loc 5 457 7
	ldp	x29, x30, [sp], 64
LCFI397:
	ret
LFE13751:
	.align	2
	.globl __ZSt10destroy_atIiEvPT_
	.weak_definition __ZSt10destroy_atIiEvPT_
__ZSt10destroy_atIiEvPT_:
LFB13752:
	.loc 23 80 5
	sub	sp, sp, #16
LCFI398:
	str	x0, [sp, 8]
	.loc 23 89 5
	nop
	add	sp, sp, 16
LCFI399:
	ret
LFE13752:
	.align	2
	.globl __ZN9__gnu_cxx13new_allocatorINSt7__cxx1112basic_stringIcSt11char_traitsIcESaIcEEEEC2ERKS7_
	.weak_definition __ZN9__gnu_cxx13new_allocatorINSt7__cxx1112basic_stringIcSt11char_traitsIcESaIcEEEEC2ERKS7_
__ZN9__gnu_cxx13new_allocatorINSt7__cxx1112basic_stringIcSt11char_traitsIcESaIcEEEEC2ERKS7_:
LFB13755:
	.loc 18 82 7
	sub	sp, sp, #16
LCFI400:
	str	x0, [sp, 8]
	str	x1, [sp]
	.loc 18 82 67
	nop
	add	sp, sp, 16
LCFI401:
	ret
LFE13755:
	.align	2
	.globl __ZNSt20__uninitialized_copyILb0EE13__uninit_copyIPKNSt7__cxx1112basic_stringIcSt11char_traitsIcESaIcEEEPS7_EET0_T_SC_SB_
	.weak_definition __ZNSt20__uninitialized_copyILb0EE13__uninit_copyIPKNSt7__cxx1112basic_stringIcSt11char_traitsIcESaIcEEEPS7_EET0_T_SC_SB_
__ZNSt20__uninitialized_copyILb0EE13__uninit_copyIPKNSt7__cxx1112basic_stringIcSt11char_traitsIcESaIcEEEPS7_EET0_T_SC_SB_:
LFB13759:
	.loc 24 85 9
	stp	x29, x30, [sp, -80]!
LCFI402:
	mov	x29, sp
	str	x19, [sp, 16]
LCFI403:
	str	x0, [sp, 56]
	str	x1, [sp, 48]
	str	x2, [sp, 40]
	.loc 24 88 21
	ldr	x0, [sp, 40]
	str	x0, [sp, 72]
	.loc 24 91 8
	b	L511
L512:
	.loc 24 92 18
	ldr	x0, [sp, 72]
	bl	__ZSt11__addressofINSt7__cxx1112basic_stringIcSt11char_traitsIcESaIcEEEEPT_RS6_
	ldr	x1, [sp, 56]
LEHB34:
	bl	__ZSt10_ConstructINSt7__cxx1112basic_stringIcSt11char_traitsIcESaIcEEEJRKS5_EEvPT_DpOT0_
LEHE34:
	.loc 24 91 8
	ldr	x0, [sp, 56]
	add	x0, x0, 32
	str	x0, [sp, 56]
	.loc 24 91 45
	ldr	x0, [sp, 72]
	add	x0, x0, 32
	str	x0, [sp, 72]
L511:
	.loc 24 91 23
	ldr	x1, [sp, 56]
	ldr	x0, [sp, 48]
	cmp	x1, x0
	bne	L512
	.loc 24 93 15
	ldr	x0, [sp, 72]
	b	L518
L516:
	.loc 24 95 4
	bl	___cxa_begin_catch
	.loc 24 97 21
	ldr	x1, [sp, 72]
	ldr	x0, [sp, 40]
LEHB35:
	bl	__ZSt8_DestroyIPNSt7__cxx1112basic_stringIcSt11char_traitsIcESaIcEEEEvT_S7_
	.loc 24 98 8
	bl	___cxa_rethrow
LEHE35:
L517:
	.loc 24 95 4
	mov	x19, x0
	bl	___cxa_end_catch
	mov	x0, x19
LEHB36:
	bl	__Unwind_Resume
LEHE36:
L518:
	.loc 24 100 2
	ldr	x19, [sp, 16]
	ldp	x29, x30, [sp], 80
LCFI404:
	ret
LFE13759:
	.section __DATA,__gcc_except_tab
_GCC_except_table18:
	.align	3
LLSDA13759:
	.byte	0xff
	.byte	0
	.uleb128 LLSDATT13759-LLSDATTD13759
LLSDATTD13759:
	.byte	0x1
	.uleb128 LLSDACSE13759-LLSDACSB13759
LLSDACSB13759:
	.uleb128 LEHB34-LFB13759
	.uleb128 LEHE34-LEHB34
	.uleb128 L516-LFB13759
	.uleb128 0x1
	.uleb128 LEHB35-LFB13759
	.uleb128 LEHE35-LEHB35
	.uleb128 L517-LFB13759
	.uleb128 0
	.uleb128 LEHB36-LFB13759
	.uleb128 LEHE36-LEHB36
	.uleb128 0
	.uleb128 0
LLSDACSE13759:
	.byte	0x1
	.byte	0
	.align	3
	.xword	0
LLSDATT13759:
	.text
	.align	2
	.globl __ZSt8_DestroyINSt7__cxx1112basic_stringIcSt11char_traitsIcESaIcEEEEvPT_
	.weak_definition __ZSt8_DestroyINSt7__cxx1112basic_stringIcSt11char_traitsIcESaIcEEEEvPT_
__ZSt8_DestroyINSt7__cxx1112basic_stringIcSt11char_traitsIcESaIcEEEEvPT_:
LFB13760:
	.loc 23 135 5
	stp	x29, x30, [sp, -32]!
LCFI405:
	mov	x29, sp
	str	x0, [sp, 24]
	.loc 23 138 22
	ldr	x0, [sp, 24]
	bl	__ZSt10destroy_atINSt7__cxx1112basic_stringIcSt11char_traitsIcESaIcEEEEvPT_
	.loc 23 142 5
	nop
	ldp	x29, x30, [sp], 32
LCFI406:
	ret
LFE13760:
	.align	2
	.globl __ZSt11__addressofIKcEPT_RS1_
	.weak_definition __ZSt11__addressofIKcEPT_RS1_
__ZSt11__addressofIKcEPT_RS1_:
LFB13761:
	.loc 11 49 5
	sub	sp, sp, #16
LCFI407:
	str	x0, [sp, 8]
	.loc 11 50 37
	ldr	x0, [sp, 8]
	.loc 11 50 40
	add	sp, sp, 16
LCFI408:
	ret
LFE13761:
	.align	2
	.globl __ZNSt16allocator_traitsISaIiEE8max_sizeERKS0_
	.weak_definition __ZNSt16allocator_traitsISaIiEE8max_sizeERKS0_
__ZNSt16allocator_traitsISaIiEE8max_sizeERKS0_:
LFB13871:
	.loc 16 543 7
	sub	sp, sp, #16
LCFI409:
	str	x0, [sp, 8]
	.loc 16 548 39
	mov	x0, 4611686018427387903
	.loc 16 550 7
	add	sp, sp, 16
LCFI410:
	ret
LFE13871:
	.align	2
	.globl __ZNSt6vectorIiSaIiEE11_S_max_sizeERKS0_
	.weak_definition __ZNSt6vectorIiSaIiEE11_S_max_sizeERKS0_
__ZNSt6vectorIiSaIiEE11_S_max_sizeERKS0_:
LFB13870:
	.loc 5 1776 7
	stp	x29, x30, [sp, -48]!
LCFI411:
	mov	x29, sp
	str	x0, [sp, 24]
	.loc 5 1781 15
	mov	x0, 2305843009213693951
	str	x0, [sp, 40]
	.loc 5 1783 51
	ldr	x0, [sp, 24]
	bl	__ZNSt16allocator_traitsISaIiEE8max_sizeERKS0_
	.loc 5 1783 15
	str	x0, [sp, 32]
	.loc 5 1784 19
	add	x1, sp, 32
	add	x0, sp, 40
	bl	__ZSt3minImERKT_S2_S2_
	.loc 5 1784 41
	ldr	x0, [x0]
	.loc 5 1785 7
	ldp	x29, x30, [sp], 48
LCFI412:
	ret
LFE13870:
	.align	2
	.globl __ZNKSt12_Vector_baseIiSaIiEE19_M_get_Tp_allocatorEv
	.weak_definition __ZNKSt12_Vector_baseIiSaIiEE19_M_get_Tp_allocatorEv
__ZNKSt12_Vector_baseIiSaIiEE19_M_get_Tp_allocatorEv:
LFB13872:
	.loc 5 280 7
	sub	sp, sp, #16
LCFI413:
	str	x0, [sp, 8]
	.loc 5 281 22
	ldr	x0, [sp, 8]
	.loc 5 281 31
	add	sp, sp, 16
LCFI414:
	ret
LFE13872:
	.align	2
	.globl __ZSt12__relocate_aIPiS0_SaIiEET0_T_S3_S2_RT1_
	.weak_definition __ZSt12__relocate_aIPiS0_SaIiEET0_T_S3_S2_RT1_
__ZSt12__relocate_aIPiS0_SaIiEET0_T_S3_S2_RT1_:
LFB13874:
	.loc 24 1040 5
	stp	x29, x30, [sp, -64]!
LCFI415:
	mov	x29, sp
	stp	x19, x20, [sp, 16]
LCFI416:
	str	x0, [sp, 56]
	str	x1, [sp, 48]
	str	x2, [sp, 40]
	str	x3, [sp, 32]
	.loc 24 1046 28
	ldr	x0, [sp, 56]
	bl	__ZSt12__niter_baseIPiET_S1_
	mov	x19, x0
	ldr	x0, [sp, 48]
	bl	__ZSt12__niter_baseIPiET_S1_
	mov	x20, x0
	ldr	x0, [sp, 40]
	bl	__ZSt12__niter_baseIPiET_S1_
	ldr	x3, [sp, 32]
	mov	x2, x0
	mov	x1, x20
	mov	x0, x19
	bl	__ZSt14__relocate_a_1IiiENSt9enable_ifIXsrSt24__is_bitwise_relocatableIT_vE5valueEPS2_E4typeES4_S4_S4_RSaIT0_E
	.loc 24 1049 5
	ldp	x19, x20, [sp, 16]
	ldp	x29, x30, [sp], 64
LCFI417:
	ret
LFE13874:
	.align	2
	.globl __ZN9__gnu_cxx13new_allocatorINSt7__cxx1112basic_stringIcSt11char_traitsIcESaIcEEEE10deallocateEPS6_m
	.weak_definition __ZN9__gnu_cxx13new_allocatorINSt7__cxx1112basic_stringIcSt11char_traitsIcESaIcEEEE10deallocateEPS6_m
__ZN9__gnu_cxx13new_allocatorINSt7__cxx1112basic_stringIcSt11char_traitsIcESaIcEEEE10deallocateEPS6_m:
LFB13875:
	.loc 18 126 7
	stp	x29, x30, [sp, -48]!
LCFI418:
	mov	x29, sp
	str	x0, [sp, 40]
	str	x1, [sp, 32]
	str	x2, [sp, 24]
	.loc 18 139 19
	ldr	x0, [sp, 24]
	lsl	x0, x0, 5
	mov	x1, x0
	ldr	x0, [sp, 32]
	bl	__ZdlPvm
	.loc 18 144 7
	ldp	x29, x30, [sp], 48
LCFI419:
	ret
LFE13875:
	.align	2
	.globl __ZNK9__gnu_cxx13new_allocatorINSt7__cxx1112basic_stringIcSt11char_traitsIcESaIcEEEE11_M_max_sizeEv
	.weak_definition __ZNK9__gnu_cxx13new_allocatorINSt7__cxx1112basic_stringIcSt11char_traitsIcESaIcEEEE11_M_max_sizeEv
__ZNK9__gnu_cxx13new_allocatorINSt7__cxx1112basic_stringIcSt11char_traitsIcESaIcEEEE11_M_max_sizeEv:
LFB13877:
	.loc 18 191 7
	sub	sp, sp, #16
LCFI420:
	str	x0, [sp, 8]
	.loc 18 194 50
	mov	x0, 288230376151711743
	.loc 18 198 7
	add	sp, sp, 16
LCFI421:
	ret
LFE13877:
	.align	2
	.globl __ZN9__gnu_cxx13new_allocatorINSt7__cxx1112basic_stringIcSt11char_traitsIcESaIcEEEE8allocateEmPKv
	.weak_definition __ZN9__gnu_cxx13new_allocatorINSt7__cxx1112basic_stringIcSt11char_traitsIcESaIcEEEE8allocateEmPKv
__ZN9__gnu_cxx13new_allocatorINSt7__cxx1112basic_stringIcSt11char_traitsIcESaIcEEEE8allocateEmPKv:
LFB13876:
	.loc 18 103 7
	stp	x29, x30, [sp, -48]!
LCFI422:
	mov	x29, sp
	str	x0, [sp, 40]
	str	x1, [sp, 32]
	str	x2, [sp, 24]
	.loc 18 105 46
	ldr	x0, [sp, 40]
	bl	__ZNK9__gnu_cxx13new_allocatorINSt7__cxx1112basic_stringIcSt11char_traitsIcESaIcEEEE11_M_max_sizeEv
	mov	x1, x0
	.loc 18 105 27
	ldr	x0, [sp, 32]
	cmp	x0, x1
	cset	w0, hi
	and	w0, w0, 255
	.loc 18 105 22
	and	x0, x0, 255
	cmp	x0, 0
	cset	w0, ne
	and	w0, w0, 255
	.loc 18 105 2
	cmp	w0, 0
	beq	L535
	.loc 18 109 6
	ldr	x1, [sp, 32]
	mov	x0, 576460752303423487
	cmp	x1, x0
	bls	L536
	.loc 18 110 41
	bl	__ZSt28__throw_bad_array_new_lengthv
L536:
	.loc 18 111 28
	bl	__ZSt17__throw_bad_allocv
L535:
	.loc 18 121 41
	ldr	x0, [sp, 32]
	lsl	x0, x0, 5
	bl	__Znwm
	.loc 18 121 60
	nop
	.loc 18 122 7
	ldp	x29, x30, [sp], 48
LCFI423:
	ret
LFE13876:
	.align	2
	.globl __ZSt10_ConstructINSt7__cxx1112basic_stringIcSt11char_traitsIcESaIcEEEJRKS5_EEvPT_DpOT0_
	.weak_definition __ZSt10_ConstructINSt7__cxx1112basic_stringIcSt11char_traitsIcESaIcEEEJRKS5_EEvPT_DpOT0_
__ZSt10_ConstructINSt7__cxx1112basic_stringIcSt11char_traitsIcESaIcEEEJRKS5_EEvPT_DpOT0_:
LFB13878:
	.loc 23 108 5
	stp	x29, x30, [sp, -64]!
LCFI424:
	mov	x29, sp
	stp	x19, x20, [sp, 16]
	str	x21, [sp, 32]
LCFI425:
	str	x0, [sp, 56]
	str	x1, [sp, 48]
	.loc 23 109 61
	ldr	x0, [sp, 48]
	bl	__ZSt7forwardIRKNSt7__cxx1112basic_stringIcSt11char_traitsIcESaIcEEEEOT_RNSt16remove_referenceIS8_E4typeE
	mov	x21, x0
	.loc 23 109 13
	ldr	x19, [sp, 56]
	.loc 23 109 7
	mov	x1, x19
	mov	x0, 32
	bl	__ZnwmPv
	mov	x20, x0
	mov	x1, x21
	mov	x0, x20
LEHB37:
	bl	__ZNSt7__cxx1112basic_stringIcSt11char_traitsIcESaIcEEC1ERKS4_
LEHE37:
	.loc 23 109 75
	b	L541
L540:
	.loc 23 109 7
	mov	x21, x0
	mov	x1, x19
	mov	x0, x20
	bl	__ZdlPvS_
	mov	x0, x21
LEHB38:
	bl	__Unwind_Resume
LEHE38:
L541:
	.loc 23 109 75
	ldp	x19, x20, [sp, 16]
	ldr	x21, [sp, 32]
	ldp	x29, x30, [sp], 64
LCFI426:
	ret
LFE13878:
	.section __DATA,__gcc_except_tab
_GCC_except_table19:
LLSDA13878:
	.byte	0xff
	.byte	0xff
	.byte	0x1
	.uleb128 LLSDACSE13878-LLSDACSB13878
LLSDACSB13878:
	.uleb128 LEHB37-LFB13878
	.uleb128 LEHE37-LEHB37
	.uleb128 L540-LFB13878
	.uleb128 0
	.uleb128 LEHB38-LFB13878
	.uleb128 LEHE38-LEHB38
	.uleb128 0
	.uleb128 0
LLSDACSE13878:
	.text
	.align	2
	.globl __ZSt10destroy_atINSt7__cxx1112basic_stringIcSt11char_traitsIcESaIcEEEEvPT_
	.weak_definition __ZSt10destroy_atINSt7__cxx1112basic_stringIcSt11char_traitsIcESaIcEEEEvPT_
__ZSt10destroy_atINSt7__cxx1112basic_stringIcSt11char_traitsIcESaIcEEEEvPT_:
LFB13879:
	.loc 23 80 5
	stp	x29, x30, [sp, -32]!
LCFI427:
	mov	x29, sp
	str	x0, [sp, 24]
	.loc 23 88 18
	ldr	x0, [sp, 24]
	bl	__ZNSt7__cxx1112basic_stringIcSt11char_traitsIcESaIcEED1Ev
	.loc 23 89 5
	nop
	ldp	x29, x30, [sp], 32
LCFI428:
	ret
LFE13879:
	.align	2
	.globl __ZNK9__gnu_cxx13new_allocatorIiE11_M_max_sizeEv
	.weak_definition __ZNK9__gnu_cxx13new_allocatorIiE11_M_max_sizeEv
__ZNK9__gnu_cxx13new_allocatorIiE11_M_max_sizeEv:
LFB13944:
	.loc 18 191 7
	sub	sp, sp, #16
LCFI429:
	str	x0, [sp, 8]
	.loc 18 194 50
	mov	x0, 2305843009213693951
	.loc 18 198 7
	add	sp, sp, 16
LCFI430:
	ret
LFE13944:
	.align	2
	.globl __ZN9__gnu_cxx13new_allocatorIiE8allocateEmPKv
	.weak_definition __ZN9__gnu_cxx13new_allocatorIiE8allocateEmPKv
__ZN9__gnu_cxx13new_allocatorIiE8allocateEmPKv:
LFB13943:
	.loc 18 103 7
	stp	x29, x30, [sp, -48]!
LCFI431:
	mov	x29, sp
	str	x0, [sp, 40]
	str	x1, [sp, 32]
	str	x2, [sp, 24]
	.loc 18 105 46
	ldr	x0, [sp, 40]
	bl	__ZNK9__gnu_cxx13new_allocatorIiE11_M_max_sizeEv
	mov	x1, x0
	.loc 18 105 27
	ldr	x0, [sp, 32]
	cmp	x0, x1
	cset	w0, hi
	and	w0, w0, 255
	.loc 18 105 22
	and	x0, x0, 255
	cmp	x0, 0
	cset	w0, ne
	and	w0, w0, 255
	.loc 18 105 2
	cmp	w0, 0
	beq	L546
	.loc 18 109 6
	ldr	x1, [sp, 32]
	mov	x0, 4611686018427387903
	cmp	x1, x0
	bls	L547
	.loc 18 110 41
	bl	__ZSt28__throw_bad_array_new_lengthv
L547:
	.loc 18 111 28
	bl	__ZSt17__throw_bad_allocv
L546:
	.loc 18 121 41
	ldr	x0, [sp, 32]
	lsl	x0, x0, 2
	bl	__Znwm
	.loc 18 121 60
	nop
	.loc 18 122 7
	ldp	x29, x30, [sp], 48
LCFI432:
	ret
LFE13943:
	.align	2
	.globl __ZSt12__niter_baseIPiET_S1_
	.weak_definition __ZSt12__niter_baseIPiET_S1_
__ZSt12__niter_baseIPiET_S1_:
LFB13945:
	.loc 4 313 5
	sub	sp, sp, #16
LCFI433:
	str	x0, [sp, 8]
	.loc 4 315 14
	ldr	x0, [sp, 8]
	.loc 4 315 20
	add	sp, sp, 16
LCFI434:
	ret
LFE13945:
	.align	2
	.globl __ZSt14__relocate_a_1IiiENSt9enable_ifIXsrSt24__is_bitwise_relocatableIT_vE5valueEPS2_E4typeES4_S4_S4_RSaIT0_E
	.weak_definition __ZSt14__relocate_a_1IiiENSt9enable_ifIXsrSt24__is_bitwise_relocatableIT_vE5valueEPS2_E4typeES4_S4_S4_RSaIT0_E
__ZSt14__relocate_a_1IiiENSt9enable_ifIXsrSt24__is_bitwise_relocatableIT_vE5valueEPS2_E4typeES4_S4_S4_RSaIT0_E:
LFB13946:
	.loc 24 1006 5
	stp	x29, x30, [sp, -64]!
LCFI435:
	mov	x29, sp
	str	x0, [sp, 40]
	str	x1, [sp, 32]
	str	x2, [sp, 24]
	str	x3, [sp, 16]
	.loc 24 1009 34
	ldr	x1, [sp, 32]
	ldr	x0, [sp, 40]
	sub	x0, x1, x0
	.loc 24 1009 17
	asr	x0, x0, 2
	str	x0, [sp, 56]
	.loc 24 1010 7
	ldr	x0, [sp, 56]
	cmp	x0, 0
	ble	L552
	.loc 24 1011 39
	ldr	x0, [sp, 56]
	.loc 24 1011 19
	lsl	x0, x0, 2
	mov	x2, x0
	ldr	x1, [sp, 40]
	ldr	x0, [sp, 24]
	bl	_memmove
L552:
	.loc 24 1012 25
	ldr	x0, [sp, 56]
	.loc 24 1012 23
	lsl	x0, x0, 2
	.loc 24 1012 25
	ldr	x1, [sp, 24]
	add	x0, x1, x0
	.loc 24 1013 5
	ldp	x29, x30, [sp], 64
LCFI436:
	ret
LFE13946:
	.align	2
__Z41__static_initialization_and_destruction_0ii:
LFB14037:
	.loc 9 307 1
	stp	x29, x30, [sp, -32]!
LCFI437:
	mov	x29, sp
	str	w0, [sp, 28]
	str	w1, [sp, 24]
	.loc 9 307 1
	ldr	w0, [sp, 28]
	cmp	w0, 1
	bne	L556
	.loc 9 307 1 is_stmt 0
	ldr	w1, [sp, 24]
	mov	w0, 65535
	cmp	w1, w0
	bne	L556
	.file 26 "/opt/homebrew/Cellar/gcc/11.2.0/include/c++/11.1.0/iostream"
	.loc 26 74 25 is_stmt 1
	adrp	x0, __ZStL8__ioinit@PAGE
	add	x0, x0, __ZStL8__ioinit@PAGEOFF;momd
	bl	__ZNSt8ios_base4InitC1Ev
	adrp	x0, ___dso_handle@GOTPAGE
	ldr	x2, [x0, ___dso_handle@GOTPAGEOFF];momd
	adrp	x0, __ZStL8__ioinit@PAGE
	add	x1, x0, __ZStL8__ioinit@PAGEOFF;momd
	adrp	x0, __ZNSt8ios_base4InitD1Ev@GOTPAGE
	ldr	x0, [x0, __ZNSt8ios_base4InitD1Ev@GOTPAGEOFF];momd
	bl	___cxa_atexit
L556:
	.loc 9 307 1
	nop
	ldp	x29, x30, [sp], 32
LCFI438:
	ret
LFE14037:
	.align	2
__GLOBAL__sub_I_9.cpp:
LFB14060:
	.loc 9 307 1
	stp	x29, x30, [sp, -16]!
LCFI439:
	mov	x29, sp
	.loc 9 307 1
	mov	w1, 65535
	mov	w0, 1
	bl	__Z41__static_initialization_and_destruction_0ii
	ldp	x29, x30, [sp], 16
LCFI440:
	ret
LFE14060:
	.section __DWARF,__debug_frame,regular,debug
Lsection__debug_frame:
Lframe0:
	.set L$set$0,LECIE0-LSCIE0
	.long L$set$0
LSCIE0:
	.long	0xffffffff
	.byte	0x1
	.ascii "\0"
	.uleb128 0x1
	.sleb128 -8
	.byte	0x1e
	.byte	0xc
	.uleb128 0x1f
	.uleb128 0
	.align	3
LECIE0:
LSFDE0:
	.set L$set$1,LEFDE0-LASFDE0
	.long L$set$1
LASFDE0:
	.set L$set$2,Lframe0-Lsection__debug_frame
	.long L$set$2
	.quad	LFB300
	.set L$set$3,LFE300-LFB300
	.quad L$set$3
	.align	3
LEFDE0:
LSFDE2:
	.set L$set$4,LEFDE2-LASFDE2
	.long L$set$4
LASFDE2:
	.set L$set$5,Lframe0-Lsection__debug_frame
	.long L$set$5
	.quad	LFB462
	.set L$set$6,LFE462-LFB462
	.quad L$set$6
	.byte	0x4
	.set L$set$7,LCFI0-LFB462
	.long L$set$7
	.byte	0xe
	.uleb128 0x10
	.byte	0x4
	.set L$set$8,LCFI1-LCFI0
	.long L$set$8
	.byte	0xe
	.uleb128 0
	.align	3
LEFDE2:
LSFDE4:
	.set L$set$9,LEFDE4-LASFDE4
	.long L$set$9
LASFDE4:
	.set L$set$10,Lframe0-Lsection__debug_frame
	.long L$set$10
	.quad	LFB464
	.set L$set$11,LFE464-LFB464
	.quad L$set$11
	.byte	0x4
	.set L$set$12,LCFI2-LFB464
	.long L$set$12
	.byte	0xe
	.uleb128 0x10
	.byte	0x4
	.set L$set$13,LCFI3-LCFI2
	.long L$set$13
	.byte	0xe
	.uleb128 0
	.align	3
LEFDE4:
LSFDE6:
	.set L$set$14,LEFDE6-LASFDE6
	.long L$set$14
LASFDE6:
	.set L$set$15,Lframe0-Lsection__debug_frame
	.long L$set$15
	.quad	LFB1271
	.set L$set$16,LFE1271-LFB1271
	.quad L$set$16
	.byte	0x4
	.set L$set$17,LCFI4-LFB1271
	.long L$set$17
	.byte	0xe
	.uleb128 0x10
	.byte	0x4
	.set L$set$18,LCFI5-LCFI4
	.long L$set$18
	.byte	0xe
	.uleb128 0
	.align	3
LEFDE6:
LSFDE8:
	.set L$set$19,LEFDE8-LASFDE8
	.long L$set$19
LASFDE8:
	.set L$set$20,Lframe0-Lsection__debug_frame
	.long L$set$20
	.quad	LFB1276
	.set L$set$21,LFE1276-LFB1276
	.quad L$set$21
	.byte	0x4
	.set L$set$22,LCFI6-LFB1276
	.long L$set$22
	.byte	0xe
	.uleb128 0x30
	.byte	0x9d
	.uleb128 0x6
	.byte	0x9e
	.uleb128 0x5
	.byte	0x4
	.set L$set$23,LCFI7-LCFI6
	.long L$set$23
	.byte	0xde
	.byte	0xdd
	.byte	0xe
	.uleb128 0
	.align	3
LEFDE8:
LSFDE10:
	.set L$set$24,LEFDE10-LASFDE10
	.long L$set$24
LASFDE10:
	.set L$set$25,Lframe0-Lsection__debug_frame
	.long L$set$25
	.quad	LFB1280
	.set L$set$26,LFE1280-LFB1280
	.quad L$set$26
	.byte	0x4
	.set L$set$27,LCFI8-LFB1280
	.long L$set$27
	.byte	0xe
	.uleb128 0x30
	.byte	0x9d
	.uleb128 0x6
	.byte	0x9e
	.uleb128 0x5
	.byte	0x4
	.set L$set$28,LCFI9-LCFI8
	.long L$set$28
	.byte	0xde
	.byte	0xdd
	.byte	0xe
	.uleb128 0
	.align	3
LEFDE10:
LSFDE12:
	.set L$set$29,LEFDE12-LASFDE12
	.long L$set$29
LASFDE12:
	.set L$set$30,Lframe0-Lsection__debug_frame
	.long L$set$30
	.quad	LFB3914
	.set L$set$31,LFE3914-LFB3914
	.quad L$set$31
	.byte	0x4
	.set L$set$32,LCFI10-LFB3914
	.long L$set$32
	.byte	0xe
	.uleb128 0x10
	.byte	0x4
	.set L$set$33,LCFI11-LCFI10
	.long L$set$33
	.byte	0xe
	.uleb128 0
	.align	3
LEFDE12:
LSFDE14:
	.set L$set$34,LEFDE14-LASFDE14
	.long L$set$34
LASFDE14:
	.set L$set$35,Lframe0-Lsection__debug_frame
	.long L$set$35
	.quad	LFB11590
	.set L$set$36,LFE11590-LFB11590
	.quad L$set$36
	.byte	0x4
	.set L$set$37,LCFI12-LFB11590
	.long L$set$37
	.byte	0xe
	.uleb128 0x20
	.byte	0x9d
	.uleb128 0x4
	.byte	0x9e
	.uleb128 0x3
	.byte	0x4
	.set L$set$38,LCFI13-LCFI12
	.long L$set$38
	.byte	0xde
	.byte	0xdd
	.byte	0xe
	.uleb128 0
	.align	3
LEFDE14:
LSFDE16:
	.set L$set$39,LEFDE16-LASFDE16
	.long L$set$39
LASFDE16:
	.set L$set$40,Lframe0-Lsection__debug_frame
	.long L$set$40
	.quad	LFB11591
	.set L$set$41,LFE11591-LFB11591
	.quad L$set$41
	.byte	0x4
	.set L$set$42,LCFI14-LFB11591
	.long L$set$42
	.byte	0xe
	.uleb128 0x20
	.byte	0x9d
	.uleb128 0x4
	.byte	0x9e
	.uleb128 0x3
	.byte	0x4
	.set L$set$43,LCFI15-LCFI14
	.long L$set$43
	.byte	0xde
	.byte	0xdd
	.byte	0xe
	.uleb128 0
	.align	3
LEFDE16:
LSFDE18:
	.set L$set$44,LEFDE18-LASFDE18
	.long L$set$44
LASFDE18:
	.set L$set$45,Lframe0-Lsection__debug_frame
	.long L$set$45
	.quad	LFB11594
	.set L$set$46,LFE11594-LFB11594
	.quad L$set$46
	.byte	0x4
	.set L$set$47,LCFI16-LFB11594
	.long L$set$47
	.byte	0xe
	.uleb128 0x20
	.byte	0x9d
	.uleb128 0x4
	.byte	0x9e
	.uleb128 0x3
	.byte	0x4
	.set L$set$48,LCFI17-LCFI16
	.long L$set$48
	.byte	0xde
	.byte	0xdd
	.byte	0xe
	.uleb128 0
	.align	3
LEFDE18:
LSFDE20:
	.set L$set$49,LEFDE20-LASFDE20
	.long L$set$49
LASFDE20:
	.set L$set$50,Lframe0-Lsection__debug_frame
	.long L$set$50
	.quad	LFB11584
	.set L$set$51,LFE11584-LFB11584
	.quad L$set$51
	.byte	0x4
	.set L$set$52,LCFI18-LFB11584
	.long L$set$52
	.byte	0xe
	.uleb128 0x50
	.byte	0x9d
	.uleb128 0xa
	.byte	0x9e
	.uleb128 0x9
	.byte	0x4
	.set L$set$53,LCFI19-LCFI18
	.long L$set$53
	.byte	0x93
	.uleb128 0x8
	.byte	0x94
	.uleb128 0x7
	.byte	0x4
	.set L$set$54,LCFI20-LCFI19
	.long L$set$54
	.byte	0xde
	.byte	0xdd
	.byte	0xd3
	.byte	0xd4
	.byte	0xe
	.uleb128 0
	.align	3
LEFDE20:
LSFDE22:
	.set L$set$55,LEFDE22-LASFDE22
	.long L$set$55
LASFDE22:
	.set L$set$56,Lframe0-Lsection__debug_frame
	.long L$set$56
	.quad	LFB11601
	.set L$set$57,LFE11601-LFB11601
	.quad L$set$57
	.byte	0x4
	.set L$set$58,LCFI21-LFB11601
	.long L$set$58
	.byte	0xe
	.uleb128 0x50
	.byte	0x9d
	.uleb128 0xa
	.byte	0x9e
	.uleb128 0x9
	.byte	0x4
	.set L$set$59,LCFI22-LCFI21
	.long L$set$59
	.byte	0x93
	.uleb128 0x8
	.byte	0x94
	.uleb128 0x7
	.byte	0x4
	.set L$set$60,LCFI23-LCFI22
	.long L$set$60
	.byte	0xde
	.byte	0xdd
	.byte	0xd3
	.byte	0xd4
	.byte	0xe
	.uleb128 0
	.align	3
LEFDE22:
LSFDE24:
	.set L$set$61,LEFDE24-LASFDE24
	.long L$set$61
LASFDE24:
	.set L$set$62,Lframe0-Lsection__debug_frame
	.long L$set$62
	.quad	LFB11604
	.set L$set$63,LFE11604-LFB11604
	.quad L$set$63
	.byte	0x4
	.set L$set$64,LCFI24-LFB11604
	.long L$set$64
	.byte	0xe
	.uleb128 0x1c0
	.byte	0x9d
	.uleb128 0x38
	.byte	0x9e
	.uleb128 0x37
	.byte	0x4
	.set L$set$65,LCFI25-LCFI24
	.long L$set$65
	.byte	0x93
	.uleb128 0x36
	.byte	0x4
	.set L$set$66,LCFI26-LCFI25
	.long L$set$66
	.byte	0xde
	.byte	0xdd
	.byte	0xd3
	.byte	0xe
	.uleb128 0
	.align	3
LEFDE24:
LSFDE26:
	.set L$set$67,LEFDE26-LASFDE26
	.long L$set$67
LASFDE26:
	.set L$set$68,Lframe0-Lsection__debug_frame
	.long L$set$68
	.quad	LFB11615
	.set L$set$69,LFE11615-LFB11615
	.quad L$set$69
	.byte	0x4
	.set L$set$70,LCFI27-LFB11615
	.long L$set$70
	.byte	0xe
	.uleb128 0x20
	.byte	0x9d
	.uleb128 0x4
	.byte	0x9e
	.uleb128 0x3
	.byte	0x4
	.set L$set$71,LCFI28-LCFI27
	.long L$set$71
	.byte	0xde
	.byte	0xdd
	.byte	0xe
	.uleb128 0
	.align	3
LEFDE26:
LSFDE28:
	.set L$set$72,LEFDE28-LASFDE28
	.long L$set$72
LASFDE28:
	.set L$set$73,Lframe0-Lsection__debug_frame
	.long L$set$73
	.quad	LFB11616
	.set L$set$74,LFE11616-LFB11616
	.quad L$set$74
	.byte	0x4
	.set L$set$75,LCFI29-LFB11616
	.long L$set$75
	.byte	0xe
	.uleb128 0x20
	.byte	0x9d
	.uleb128 0x4
	.byte	0x9e
	.uleb128 0x3
	.byte	0x4
	.set L$set$76,LCFI30-LCFI29
	.long L$set$76
	.byte	0xde
	.byte	0xdd
	.byte	0xe
	.uleb128 0
	.align	3
LEFDE28:
LSFDE30:
	.set L$set$77,LEFDE30-LASFDE30
	.long L$set$77
LASFDE30:
	.set L$set$78,Lframe0-Lsection__debug_frame
	.long L$set$78
	.quad	LFB11617
	.set L$set$79,LFE11617-LFB11617
	.quad L$set$79
	.byte	0x4
	.set L$set$80,LCFI31-LFB11617
	.long L$set$80
	.byte	0xe
	.uleb128 0x20
	.byte	0x9d
	.uleb128 0x4
	.byte	0x9e
	.uleb128 0x3
	.byte	0x4
	.set L$set$81,LCFI32-LCFI31
	.long L$set$81
	.byte	0xde
	.byte	0xdd
	.byte	0xe
	.uleb128 0
	.align	3
LEFDE30:
LSFDE32:
	.set L$set$82,LEFDE32-LASFDE32
	.long L$set$82
LASFDE32:
	.set L$set$83,Lframe0-Lsection__debug_frame
	.long L$set$83
	.quad	LFB11619
	.set L$set$84,LFE11619-LFB11619
	.quad L$set$84
	.byte	0x4
	.set L$set$85,LCFI33-LFB11619
	.long L$set$85
	.byte	0xe
	.uleb128 0x10
	.byte	0x4
	.set L$set$86,LCFI34-LCFI33
	.long L$set$86
	.byte	0xe
	.uleb128 0
	.align	3
LEFDE32:
LSFDE34:
	.set L$set$87,LEFDE34-LASFDE34
	.long L$set$87
LASFDE34:
	.set L$set$88,Lframe0-Lsection__debug_frame
	.long L$set$88
	.quad	LFB11620
	.set L$set$89,LFE11620-LFB11620
	.quad L$set$89
	.byte	0x4
	.set L$set$90,LCFI35-LFB11620
	.long L$set$90
	.byte	0xe
	.uleb128 0x30
	.byte	0x9d
	.uleb128 0x6
	.byte	0x9e
	.uleb128 0x5
	.byte	0x4
	.set L$set$91,LCFI36-LCFI35
	.long L$set$91
	.byte	0x93
	.uleb128 0x4
	.byte	0x4
	.set L$set$92,LCFI37-LCFI36
	.long L$set$92
	.byte	0xde
	.byte	0xdd
	.byte	0xd3
	.byte	0xe
	.uleb128 0
	.align	3
LEFDE34:
LSFDE36:
	.set L$set$93,LEFDE36-LASFDE36
	.long L$set$93
LASFDE36:
	.set L$set$94,Lframe0-Lsection__debug_frame
	.long L$set$94
	.quad	LFB11621
	.set L$set$95,LFE11621-LFB11621
	.quad L$set$95
	.byte	0x4
	.set L$set$96,LCFI38-LFB11621
	.long L$set$96
	.byte	0xe
	.uleb128 0x10
	.byte	0x4
	.set L$set$97,LCFI39-LCFI38
	.long L$set$97
	.byte	0xe
	.uleb128 0
	.align	3
LEFDE36:
LSFDE38:
	.set L$set$98,LEFDE38-LASFDE38
	.long L$set$98
LASFDE38:
	.set L$set$99,Lframe0-Lsection__debug_frame
	.long L$set$99
	.quad	LFB11622
	.set L$set$100,LFE11622-LFB11622
	.quad L$set$100
	.byte	0x4
	.set L$set$101,LCFI40-LFB11622
	.long L$set$101
	.byte	0xe
	.uleb128 0x10
	.byte	0x4
	.set L$set$102,LCFI41-LCFI40
	.long L$set$102
	.byte	0xe
	.uleb128 0
	.align	3
LEFDE38:
LSFDE40:
	.set L$set$103,LEFDE40-LASFDE40
	.long L$set$103
LASFDE40:
	.set L$set$104,Lframe0-Lsection__debug_frame
	.long L$set$104
	.quad	LFB11618
	.set L$set$105,LFE11618-LFB11618
	.quad L$set$105
	.byte	0x4
	.set L$set$106,LCFI42-LFB11618
	.long L$set$106
	.byte	0xe
	.uleb128 0xa0
	.byte	0x9d
	.uleb128 0x14
	.byte	0x9e
	.uleb128 0x13
	.byte	0x4
	.set L$set$107,LCFI43-LCFI42
	.long L$set$107
	.byte	0x93
	.uleb128 0x12
	.byte	0x4
	.set L$set$108,LCFI44-LCFI43
	.long L$set$108
	.byte	0xde
	.byte	0xdd
	.byte	0xd3
	.byte	0xe
	.uleb128 0
	.align	3
LEFDE40:
LSFDE42:
	.set L$set$109,LEFDE42-LASFDE42
	.long L$set$109
LASFDE42:
	.set L$set$110,Lframe0-Lsection__debug_frame
	.long L$set$110
	.quad	LFB11623
	.set L$set$111,LFE11623-LFB11623
	.quad L$set$111
	.byte	0x4
	.set L$set$112,LCFI45-LFB11623
	.long L$set$112
	.byte	0xe
	.uleb128 0x50
	.byte	0x9d
	.uleb128 0xa
	.byte	0x9e
	.uleb128 0x9
	.byte	0x4
	.set L$set$113,LCFI46-LCFI45
	.long L$set$113
	.byte	0x93
	.uleb128 0x8
	.byte	0x4
	.set L$set$114,LCFI47-LCFI46
	.long L$set$114
	.byte	0xde
	.byte	0xdd
	.byte	0xd3
	.byte	0xe
	.uleb128 0
	.align	3
LEFDE42:
LSFDE44:
	.set L$set$115,LEFDE44-LASFDE44
	.long L$set$115
LASFDE44:
	.set L$set$116,Lframe0-Lsection__debug_frame
	.long L$set$116
	.quad	LFB11624
	.set L$set$117,LFE11624-LFB11624
	.quad L$set$117
	.byte	0x4
	.set L$set$118,LCFI48-LFB11624
	.long L$set$118
	.byte	0xe
	.uleb128 0x50
	.byte	0x9d
	.uleb128 0xa
	.byte	0x9e
	.uleb128 0x9
	.byte	0x4
	.set L$set$119,LCFI49-LCFI48
	.long L$set$119
	.byte	0x93
	.uleb128 0x8
	.byte	0x4
	.set L$set$120,LCFI50-LCFI49
	.long L$set$120
	.byte	0xde
	.byte	0xdd
	.byte	0xd3
	.byte	0xe
	.uleb128 0
	.align	3
LEFDE44:
LSFDE46:
	.set L$set$121,LEFDE46-LASFDE46
	.long L$set$121
LASFDE46:
	.set L$set$122,Lframe0-Lsection__debug_frame
	.long L$set$122
	.quad	LFB11625
	.set L$set$123,LFE11625-LFB11625
	.quad L$set$123
	.byte	0x4
	.set L$set$124,LCFI51-LFB11625
	.long L$set$124
	.byte	0xe
	.uleb128 0x30
	.byte	0x9d
	.uleb128 0x6
	.byte	0x9e
	.uleb128 0x5
	.byte	0x4
	.set L$set$125,LCFI52-LCFI51
	.long L$set$125
	.byte	0xde
	.byte	0xdd
	.byte	0xe
	.uleb128 0
	.align	3
LEFDE46:
LSFDE48:
	.set L$set$126,LEFDE48-LASFDE48
	.long L$set$126
LASFDE48:
	.set L$set$127,Lframe0-Lsection__debug_frame
	.long L$set$127
	.quad	LFB11626
	.set L$set$128,LFE11626-LFB11626
	.quad L$set$128
	.byte	0x4
	.set L$set$129,LCFI53-LFB11626
	.long L$set$129
	.byte	0xe
	.uleb128 0x40
	.byte	0x9d
	.uleb128 0x8
	.byte	0x9e
	.uleb128 0x7
	.byte	0x4
	.set L$set$130,LCFI54-LCFI53
	.long L$set$130
	.byte	0xde
	.byte	0xdd
	.byte	0xe
	.uleb128 0
	.align	3
LEFDE48:
LSFDE50:
	.set L$set$131,LEFDE50-LASFDE50
	.long L$set$131
LASFDE50:
	.set L$set$132,Lframe0-Lsection__debug_frame
	.long L$set$132
	.quad	LFB11627
	.set L$set$133,LFE11627-LFB11627
	.quad L$set$133
	.byte	0x4
	.set L$set$134,LCFI55-LFB11627
	.long L$set$134
	.byte	0xe
	.uleb128 0x30
	.byte	0x9d
	.uleb128 0x6
	.byte	0x9e
	.uleb128 0x5
	.byte	0x4
	.set L$set$135,LCFI56-LCFI55
	.long L$set$135
	.byte	0xde
	.byte	0xdd
	.byte	0xe
	.uleb128 0
	.align	3
LEFDE50:
LSFDE52:
	.set L$set$136,LEFDE52-LASFDE52
	.long L$set$136
LASFDE52:
	.set L$set$137,Lframe0-Lsection__debug_frame
	.long L$set$137
	.quad	LFB11628
	.set L$set$138,LFE11628-LFB11628
	.quad L$set$138
	.byte	0x4
	.set L$set$139,LCFI57-LFB11628
	.long L$set$139
	.byte	0xe
	.uleb128 0x30
	.byte	0x9d
	.uleb128 0x6
	.byte	0x9e
	.uleb128 0x5
	.byte	0x4
	.set L$set$140,LCFI58-LCFI57
	.long L$set$140
	.byte	0xde
	.byte	0xdd
	.byte	0xe
	.uleb128 0
	.align	3
LEFDE52:
LSFDE54:
	.set L$set$141,LEFDE54-LASFDE54
	.long L$set$141
LASFDE54:
	.set L$set$142,Lframe0-Lsection__debug_frame
	.long L$set$142
	.quad	LFB11629
	.set L$set$143,LFE11629-LFB11629
	.quad L$set$143
	.byte	0x4
	.set L$set$144,LCFI59-LFB11629
	.long L$set$144
	.byte	0xe
	.uleb128 0x50
	.byte	0x9d
	.uleb128 0xa
	.byte	0x9e
	.uleb128 0x9
	.byte	0x4
	.set L$set$145,LCFI60-LCFI59
	.long L$set$145
	.byte	0x5
	.uleb128 0x48
	.uleb128 0x8
	.byte	0x4
	.set L$set$146,LCFI61-LCFI60
	.long L$set$146
	.byte	0xde
	.byte	0xdd
	.byte	0x6
	.uleb128 0x48
	.byte	0xe
	.uleb128 0
	.align	3
LEFDE54:
LSFDE56:
	.set L$set$147,LEFDE56-LASFDE56
	.long L$set$147
LASFDE56:
	.set L$set$148,Lframe0-Lsection__debug_frame
	.long L$set$148
	.quad	LFB11630
	.set L$set$149,LFE11630-LFB11630
	.quad L$set$149
	.byte	0x4
	.set L$set$150,LCFI62-LFB11630
	.long L$set$150
	.byte	0xe
	.uleb128 0x60
	.byte	0x9d
	.uleb128 0xc
	.byte	0x9e
	.uleb128 0xb
	.byte	0x4
	.set L$set$151,LCFI63-LCFI62
	.long L$set$151
	.byte	0xde
	.byte	0xdd
	.byte	0xe
	.uleb128 0
	.align	3
LEFDE56:
LSFDE58:
	.set L$set$152,LEFDE58-LASFDE58
	.long L$set$152
LASFDE58:
	.set L$set$153,Lframe0-Lsection__debug_frame
	.long L$set$153
	.quad	LFB11631
	.set L$set$154,LFE11631-LFB11631
	.quad L$set$154
	.byte	0x4
	.set L$set$155,LCFI64-LFB11631
	.long L$set$155
	.byte	0xe
	.uleb128 0x40
	.byte	0x9d
	.uleb128 0x8
	.byte	0x9e
	.uleb128 0x7
	.byte	0x4
	.set L$set$156,LCFI65-LCFI64
	.long L$set$156
	.byte	0xde
	.byte	0xdd
	.byte	0xe
	.uleb128 0
	.align	3
LEFDE58:
LSFDE60:
	.set L$set$157,LEFDE60-LASFDE60
	.long L$set$157
LASFDE60:
	.set L$set$158,Lframe0-Lsection__debug_frame
	.long L$set$158
	.quad	LFB11634
	.set L$set$159,LFE11634-LFB11634
	.quad L$set$159
	.byte	0x4
	.set L$set$160,LCFI66-LFB11634
	.long L$set$160
	.byte	0xe
	.uleb128 0x1c0
	.byte	0x9d
	.uleb128 0x38
	.byte	0x9e
	.uleb128 0x37
	.byte	0x4
	.set L$set$161,LCFI67-LCFI66
	.long L$set$161
	.byte	0x93
	.uleb128 0x36
	.byte	0x4
	.set L$set$162,LCFI68-LCFI67
	.long L$set$162
	.byte	0xde
	.byte	0xdd
	.byte	0xd3
	.byte	0xe
	.uleb128 0
	.align	3
LEFDE60:
LSFDE62:
	.set L$set$163,LEFDE62-LASFDE62
	.long L$set$163
LASFDE62:
	.set L$set$164,Lframe0-Lsection__debug_frame
	.long L$set$164
	.quad	LFB11635
	.set L$set$165,LFE11635-LFB11635
	.quad L$set$165
	.byte	0x4
	.set L$set$166,LCFI69-LFB11635
	.long L$set$166
	.byte	0xe
	.uleb128 0x10
	.byte	0x4
	.set L$set$167,LCFI70-LCFI69
	.long L$set$167
	.byte	0xe
	.uleb128 0
	.align	3
LEFDE62:
LSFDE64:
	.set L$set$168,LEFDE64-LASFDE64
	.long L$set$168
LASFDE64:
	.set L$set$169,Lframe0-Lsection__debug_frame
	.long L$set$169
	.quad	LFB11636
	.set L$set$170,LFE11636-LFB11636
	.quad L$set$170
	.byte	0x4
	.set L$set$171,LCFI71-LFB11636
	.long L$set$171
	.byte	0xe
	.uleb128 0x10
	.byte	0x4
	.set L$set$172,LCFI72-LCFI71
	.long L$set$172
	.byte	0xe
	.uleb128 0
	.align	3
LEFDE64:
LSFDE66:
	.set L$set$173,LEFDE66-LASFDE66
	.long L$set$173
LASFDE66:
	.set L$set$174,Lframe0-Lsection__debug_frame
	.long L$set$174
	.quad	LFB11637
	.set L$set$175,LFE11637-LFB11637
	.quad L$set$175
	.byte	0x4
	.set L$set$176,LCFI73-LFB11637
	.long L$set$176
	.byte	0xe
	.uleb128 0x10
	.byte	0x4
	.set L$set$177,LCFI74-LCFI73
	.long L$set$177
	.byte	0xe
	.uleb128 0
	.align	3
LEFDE66:
LSFDE68:
	.set L$set$178,LEFDE68-LASFDE68
	.long L$set$178
LASFDE68:
	.set L$set$179,Lframe0-Lsection__debug_frame
	.long L$set$179
	.quad	LFB11633
	.set L$set$180,LFE11633-LFB11633
	.quad L$set$180
	.byte	0x4
	.set L$set$181,LCFI75-LFB11633
	.long L$set$181
	.byte	0xe
	.uleb128 0xd0
	.byte	0x9d
	.uleb128 0x1a
	.byte	0x9e
	.uleb128 0x19
	.byte	0x4
	.set L$set$182,LCFI76-LCFI75
	.long L$set$182
	.byte	0x93
	.uleb128 0x18
	.byte	0x94
	.uleb128 0x17
	.byte	0x95
	.uleb128 0x16
	.byte	0x4
	.set L$set$183,LCFI77-LCFI76
	.long L$set$183
	.byte	0xde
	.byte	0xdd
	.byte	0xd5
	.byte	0xd3
	.byte	0xd4
	.byte	0xe
	.uleb128 0
	.align	3
LEFDE68:
LSFDE70:
	.set L$set$184,LEFDE70-LASFDE70
	.long L$set$184
LASFDE70:
	.set L$set$185,Lframe0-Lsection__debug_frame
	.long L$set$185
	.quad	LFB11639
	.set L$set$186,LFE11639-LFB11639
	.quad L$set$186
	.byte	0x4
	.set L$set$187,LCFI78-LFB11639
	.long L$set$187
	.byte	0xe
	.uleb128 0x1c0
	.byte	0x9d
	.uleb128 0x38
	.byte	0x9e
	.uleb128 0x37
	.byte	0x4
	.set L$set$188,LCFI79-LCFI78
	.long L$set$188
	.byte	0x93
	.uleb128 0x36
	.byte	0x4
	.set L$set$189,LCFI80-LCFI79
	.long L$set$189
	.byte	0xde
	.byte	0xdd
	.byte	0xd3
	.byte	0xe
	.uleb128 0
	.align	3
LEFDE70:
LSFDE72:
	.set L$set$190,LEFDE72-LASFDE72
	.long L$set$190
LASFDE72:
	.set L$set$191,Lframe0-Lsection__debug_frame
	.long L$set$191
	.quad	LFB11638
	.set L$set$192,LFE11638-LFB11638
	.quad L$set$192
	.byte	0x4
	.set L$set$193,LCFI81-LFB11638
	.long L$set$193
	.byte	0xe
	.uleb128 0xd0
	.byte	0x9d
	.uleb128 0x1a
	.byte	0x9e
	.uleb128 0x19
	.byte	0x4
	.set L$set$194,LCFI82-LCFI81
	.long L$set$194
	.byte	0x93
	.uleb128 0x18
	.byte	0x94
	.uleb128 0x17
	.byte	0x95
	.uleb128 0x16
	.byte	0x4
	.set L$set$195,LCFI83-LCFI82
	.long L$set$195
	.byte	0xde
	.byte	0xdd
	.byte	0xd5
	.byte	0xd3
	.byte	0xd4
	.byte	0xe
	.uleb128 0
	.align	3
LEFDE72:
LSFDE74:
	.set L$set$196,LEFDE74-LASFDE74
	.long L$set$196
LASFDE74:
	.set L$set$197,Lframe0-Lsection__debug_frame
	.long L$set$197
	.quad	LFB11632
	.set L$set$198,LFE11632-LFB11632
	.quad L$set$198
	.byte	0x4
	.set L$set$199,LCFI84-LFB11632
	.long L$set$199
	.byte	0xe
	.uleb128 0x60
	.byte	0x9d
	.uleb128 0xc
	.byte	0x9e
	.uleb128 0xb
	.byte	0x4
	.set L$set$200,LCFI85-LCFI84
	.long L$set$200
	.byte	0x93
	.uleb128 0xa
	.byte	0x4
	.set L$set$201,LCFI86-LCFI85
	.long L$set$201
	.byte	0xde
	.byte	0xdd
	.byte	0xd3
	.byte	0xe
	.uleb128 0
	.align	3
LEFDE74:
LSFDE76:
	.set L$set$202,LEFDE76-LASFDE76
	.long L$set$202
LASFDE76:
	.set L$set$203,Lframe0-Lsection__debug_frame
	.long L$set$203
	.quad	LFB11689
	.set L$set$204,LFE11689-LFB11689
	.quad L$set$204
	.byte	0x4
	.set L$set$205,LCFI87-LFB11689
	.long L$set$205
	.byte	0xe
	.uleb128 0x10
	.byte	0x4
	.set L$set$206,LCFI88-LCFI87
	.long L$set$206
	.byte	0xe
	.uleb128 0
	.align	3
LEFDE76:
LSFDE78:
	.set L$set$207,LEFDE78-LASFDE78
	.long L$set$207
LASFDE78:
	.set L$set$208,Lframe0-Lsection__debug_frame
	.long L$set$208
	.quad	LFB11688
	.set L$set$209,LFE11688-LFB11688
	.quad L$set$209
	.byte	0x4
	.set L$set$210,LCFI89-LFB11688
	.long L$set$210
	.byte	0xe
	.uleb128 0x30
	.byte	0x9d
	.uleb128 0x6
	.byte	0x9e
	.uleb128 0x5
	.byte	0x4
	.set L$set$211,LCFI90-LCFI89
	.long L$set$211
	.byte	0xde
	.byte	0xdd
	.byte	0xe
	.uleb128 0
	.align	3
LEFDE78:
LSFDE80:
	.set L$set$212,LEFDE80-LASFDE80
	.long L$set$212
LASFDE80:
	.set L$set$213,Lframe0-Lsection__debug_frame
	.long L$set$213
	.quad	LFB11693
	.set L$set$214,LFE11693-LFB11693
	.quad L$set$214
	.byte	0x4
	.set L$set$215,LCFI91-LFB11693
	.long L$set$215
	.byte	0xe
	.uleb128 0x40
	.byte	0x9d
	.uleb128 0x8
	.byte	0x9e
	.uleb128 0x7
	.byte	0x4
	.set L$set$216,LCFI92-LCFI91
	.long L$set$216
	.byte	0x93
	.uleb128 0x6
	.byte	0x4
	.set L$set$217,LCFI93-LCFI92
	.long L$set$217
	.byte	0xde
	.byte	0xdd
	.byte	0xd3
	.byte	0xe
	.uleb128 0
	.align	3
LEFDE80:
LSFDE82:
	.set L$set$218,LEFDE82-LASFDE82
	.long L$set$218
LASFDE82:
	.set L$set$219,Lframe0-Lsection__debug_frame
	.long L$set$219
	.quad	LFB11694
	.set L$set$220,LFE11694-LFB11694
	.quad L$set$220
	.byte	0x4
	.set L$set$221,LCFI94-LFB11694
	.long L$set$221
	.byte	0xe
	.uleb128 0x30
	.byte	0x9d
	.uleb128 0x6
	.byte	0x9e
	.uleb128 0x5
	.byte	0x4
	.set L$set$222,LCFI95-LCFI94
	.long L$set$222
	.byte	0xde
	.byte	0xdd
	.byte	0xe
	.uleb128 0
	.align	3
LEFDE82:
LSFDE84:
	.set L$set$223,LEFDE84-LASFDE84
	.long L$set$223
LASFDE84:
	.set L$set$224,Lframe0-Lsection__debug_frame
	.long L$set$224
	.quad	LFB11833
	.set L$set$225,LFE11833-LFB11833
	.quad L$set$225
	.byte	0x4
	.set L$set$226,LCFI96-LFB11833
	.long L$set$226
	.byte	0xe
	.uleb128 0x20
	.byte	0x9d
	.uleb128 0x4
	.byte	0x9e
	.uleb128 0x3
	.byte	0x4
	.set L$set$227,LCFI97-LCFI96
	.long L$set$227
	.byte	0xde
	.byte	0xdd
	.byte	0xe
	.uleb128 0
	.align	3
LEFDE84:
LSFDE86:
	.set L$set$228,LEFDE86-LASFDE86
	.long L$set$228
LASFDE86:
	.set L$set$229,Lframe0-Lsection__debug_frame
	.long L$set$229
	.quad	LFB11838
	.set L$set$230,LFE11838-LFB11838
	.quad L$set$230
	.byte	0x4
	.set L$set$231,LCFI98-LFB11838
	.long L$set$231
	.byte	0xe
	.uleb128 0x20
	.byte	0x9d
	.uleb128 0x4
	.byte	0x9e
	.uleb128 0x3
	.byte	0x4
	.set L$set$232,LCFI99-LCFI98
	.long L$set$232
	.byte	0xde
	.byte	0xdd
	.byte	0xe
	.uleb128 0
	.align	3
LEFDE86:
LSFDE88:
	.set L$set$233,LEFDE88-LASFDE88
	.long L$set$233
LASFDE88:
	.set L$set$234,Lframe0-Lsection__debug_frame
	.long L$set$234
	.quad	LFB11844
	.set L$set$235,LFE11844-LFB11844
	.quad L$set$235
	.byte	0x4
	.set L$set$236,LCFI100-LFB11844
	.long L$set$236
	.byte	0xe
	.uleb128 0x10
	.byte	0x4
	.set L$set$237,LCFI101-LCFI100
	.long L$set$237
	.byte	0xe
	.uleb128 0
	.align	3
LEFDE88:
LSFDE90:
	.set L$set$238,LEFDE90-LASFDE90
	.long L$set$238
LASFDE90:
	.set L$set$239,Lframe0-Lsection__debug_frame
	.long L$set$239
	.quad	LFB11929
	.set L$set$240,LFE11929-LFB11929
	.quad L$set$240
	.byte	0x4
	.set L$set$241,LCFI102-LFB11929
	.long L$set$241
	.byte	0xe
	.uleb128 0x10
	.byte	0x4
	.set L$set$242,LCFI103-LCFI102
	.long L$set$242
	.byte	0xe
	.uleb128 0
	.align	3
LEFDE90:
LSFDE92:
	.set L$set$243,LEFDE92-LASFDE92
	.long L$set$243
LASFDE92:
	.set L$set$244,Lframe0-Lsection__debug_frame
	.long L$set$244
	.quad	LFB12000
	.set L$set$245,LFE12000-LFB12000
	.quad L$set$245
	.byte	0x4
	.set L$set$246,LCFI104-LFB12000
	.long L$set$246
	.byte	0xe
	.uleb128 0x10
	.byte	0x4
	.set L$set$247,LCFI105-LCFI104
	.long L$set$247
	.byte	0xe
	.uleb128 0
	.align	3
LEFDE92:
LSFDE94:
	.set L$set$248,LEFDE94-LASFDE94
	.long L$set$248
LASFDE94:
	.set L$set$249,Lframe0-Lsection__debug_frame
	.long L$set$249
	.quad	LFB12005
	.set L$set$250,LFE12005-LFB12005
	.quad L$set$250
	.byte	0x4
	.set L$set$251,LCFI106-LFB12005
	.long L$set$251
	.byte	0xe
	.uleb128 0x10
	.byte	0x4
	.set L$set$252,LCFI107-LCFI106
	.long L$set$252
	.byte	0xe
	.uleb128 0
	.align	3
LEFDE94:
LSFDE96:
	.set L$set$253,LEFDE96-LASFDE96
	.long L$set$253
LASFDE96:
	.set L$set$254,Lframe0-Lsection__debug_frame
	.long L$set$254
	.quad	LFB12437
	.set L$set$255,LFE12437-LFB12437
	.quad L$set$255
	.byte	0x4
	.set L$set$256,LCFI108-LFB12437
	.long L$set$256
	.byte	0xe
	.uleb128 0x40
	.byte	0x9d
	.uleb128 0x8
	.byte	0x9e
	.uleb128 0x7
	.byte	0x4
	.set L$set$257,LCFI109-LCFI108
	.long L$set$257
	.byte	0x93
	.uleb128 0x6
	.byte	0x94
	.uleb128 0x5
	.byte	0x4
	.set L$set$258,LCFI110-LCFI109
	.long L$set$258
	.byte	0xde
	.byte	0xdd
	.byte	0xd3
	.byte	0xd4
	.byte	0xe
	.uleb128 0
	.align	3
LEFDE96:
LSFDE98:
	.set L$set$259,LEFDE98-LASFDE98
	.long L$set$259
LASFDE98:
	.set L$set$260,Lframe0-Lsection__debug_frame
	.long L$set$260
	.quad	LFB12450
	.set L$set$261,LFE12450-LFB12450
	.quad L$set$261
	.byte	0x4
	.set L$set$262,LCFI111-LFB12450
	.long L$set$262
	.byte	0xe
	.uleb128 0x40
	.byte	0x9d
	.uleb128 0x8
	.byte	0x9e
	.uleb128 0x7
	.byte	0x4
	.set L$set$263,LCFI112-LCFI111
	.long L$set$263
	.byte	0x93
	.uleb128 0x6
	.byte	0x94
	.uleb128 0x5
	.byte	0x4
	.set L$set$264,LCFI113-LCFI112
	.long L$set$264
	.byte	0xde
	.byte	0xdd
	.byte	0xd3
	.byte	0xd4
	.byte	0xe
	.uleb128 0
	.align	3
LEFDE98:
LSFDE100:
	.set L$set$265,LEFDE100-LASFDE100
	.long L$set$265
LASFDE100:
	.set L$set$266,Lframe0-Lsection__debug_frame
	.long L$set$266
	.quad	LFB12460
	.set L$set$267,LFE12460-LFB12460
	.quad L$set$267
	.byte	0x4
	.set L$set$268,LCFI114-LFB12460
	.long L$set$268
	.byte	0xe
	.uleb128 0x10
	.byte	0x4
	.set L$set$269,LCFI115-LCFI114
	.long L$set$269
	.byte	0xe
	.uleb128 0
	.align	3
LEFDE100:
LSFDE102:
	.set L$set$270,LEFDE102-LASFDE102
	.long L$set$270
LASFDE102:
	.set L$set$271,Lframe0-Lsection__debug_frame
	.long L$set$271
	.quad	LFB12467
	.set L$set$272,LFE12467-LFB12467
	.quad L$set$272
	.byte	0x4
	.set L$set$273,LCFI116-LFB12467
	.long L$set$273
	.byte	0xe
	.uleb128 0x10
	.byte	0x4
	.set L$set$274,LCFI117-LCFI116
	.long L$set$274
	.byte	0xe
	.uleb128 0
	.align	3
LEFDE102:
LSFDE104:
	.set L$set$275,LEFDE104-LASFDE104
	.long L$set$275
LASFDE104:
	.set L$set$276,Lframe0-Lsection__debug_frame
	.long L$set$276
	.quad	LFB12520
	.set L$set$277,LFE12520-LFB12520
	.quad L$set$277
	.byte	0x4
	.set L$set$278,LCFI118-LFB12520
	.long L$set$278
	.byte	0xe
	.uleb128 0x20
	.byte	0x9d
	.uleb128 0x4
	.byte	0x9e
	.uleb128 0x3
	.byte	0x4
	.set L$set$279,LCFI119-LCFI118
	.long L$set$279
	.byte	0xde
	.byte	0xdd
	.byte	0xe
	.uleb128 0
	.align	3
LEFDE104:
LSFDE106:
	.set L$set$280,LEFDE106-LASFDE106
	.long L$set$280
LASFDE106:
	.set L$set$281,Lframe0-Lsection__debug_frame
	.long L$set$281
	.quad	LFB12522
	.set L$set$282,LFE12522-LFB12522
	.quad L$set$282
	.byte	0x4
	.set L$set$283,LCFI120-LFB12522
	.long L$set$283
	.byte	0xe
	.uleb128 0x10
	.byte	0x4
	.set L$set$284,LCFI121-LCFI120
	.long L$set$284
	.byte	0xe
	.uleb128 0
	.align	3
LEFDE106:
LSFDE108:
	.set L$set$285,LEFDE108-LASFDE108
	.long L$set$285
LASFDE108:
	.set L$set$286,Lframe0-Lsection__debug_frame
	.long L$set$286
	.quad	LFB12525
	.set L$set$287,LFE12525-LFB12525
	.quad L$set$287
	.byte	0x4
	.set L$set$288,LCFI122-LFB12525
	.long L$set$288
	.byte	0xe
	.uleb128 0x20
	.byte	0x9d
	.uleb128 0x4
	.byte	0x9e
	.uleb128 0x3
	.byte	0x4
	.set L$set$289,LCFI123-LCFI122
	.long L$set$289
	.byte	0xde
	.byte	0xdd
	.byte	0xe
	.uleb128 0
	.align	3
LEFDE108:
LSFDE110:
	.set L$set$290,LEFDE110-LASFDE110
	.long L$set$290
LASFDE110:
	.set L$set$291,Lframe0-Lsection__debug_frame
	.long L$set$291
	.quad	LFB12529
	.set L$set$292,LFE12529-LFB12529
	.quad L$set$292
	.byte	0x4
	.set L$set$293,LCFI124-LFB12529
	.long L$set$293
	.byte	0xe
	.uleb128 0x30
	.byte	0x9d
	.uleb128 0x6
	.byte	0x9e
	.uleb128 0x5
	.byte	0x4
	.set L$set$294,LCFI125-LCFI124
	.long L$set$294
	.byte	0x93
	.uleb128 0x4
	.byte	0x94
	.uleb128 0x3
	.byte	0x4
	.set L$set$295,LCFI126-LCFI125
	.long L$set$295
	.byte	0xde
	.byte	0xdd
	.byte	0xd3
	.byte	0xd4
	.byte	0xe
	.uleb128 0
	.align	3
LEFDE110:
LSFDE112:
	.set L$set$296,LEFDE112-LASFDE112
	.long L$set$296
LASFDE112:
	.set L$set$297,Lframe0-Lsection__debug_frame
	.long L$set$297
	.quad	LFB12530
	.set L$set$298,LFE12530-LFB12530
	.quad L$set$298
	.byte	0x4
	.set L$set$299,LCFI127-LFB12530
	.long L$set$299
	.byte	0xe
	.uleb128 0x20
	.byte	0x9d
	.uleb128 0x4
	.byte	0x9e
	.uleb128 0x3
	.byte	0x4
	.set L$set$300,LCFI128-LCFI127
	.long L$set$300
	.byte	0xde
	.byte	0xdd
	.byte	0xe
	.uleb128 0
	.align	3
LEFDE112:
LSFDE114:
	.set L$set$301,LEFDE114-LASFDE114
	.long L$set$301
LASFDE114:
	.set L$set$302,Lframe0-Lsection__debug_frame
	.long L$set$302
	.quad	LFB12547
	.set L$set$303,LFE12547-LFB12547
	.quad L$set$303
	.byte	0x4
	.set L$set$304,LCFI129-LFB12547
	.long L$set$304
	.byte	0xe
	.uleb128 0x30
	.byte	0x9d
	.uleb128 0x6
	.byte	0x9e
	.uleb128 0x5
	.byte	0x4
	.set L$set$305,LCFI130-LCFI129
	.long L$set$305
	.byte	0xde
	.byte	0xdd
	.byte	0xe
	.uleb128 0
	.align	3
LEFDE114:
LSFDE116:
	.set L$set$306,LEFDE116-LASFDE116
	.long L$set$306
LASFDE116:
	.set L$set$307,Lframe0-Lsection__debug_frame
	.long L$set$307
	.quad	LFB12548
	.set L$set$308,LFE12548-LFB12548
	.quad L$set$308
	.byte	0x4
	.set L$set$309,LCFI131-LFB12548
	.long L$set$309
	.byte	0xe
	.uleb128 0x30
	.byte	0x9d
	.uleb128 0x6
	.byte	0x9e
	.uleb128 0x5
	.byte	0x4
	.set L$set$310,LCFI132-LCFI131
	.long L$set$310
	.byte	0xde
	.byte	0xdd
	.byte	0xe
	.uleb128 0
	.align	3
LEFDE116:
LSFDE118:
	.set L$set$311,LEFDE118-LASFDE118
	.long L$set$311
LASFDE118:
	.set L$set$312,Lframe0-Lsection__debug_frame
	.long L$set$312
	.quad	LFB12556
	.set L$set$313,LFE12556-LFB12556
	.quad L$set$313
	.byte	0x4
	.set L$set$314,LCFI133-LFB12556
	.long L$set$314
	.byte	0xe
	.uleb128 0x20
	.byte	0x9d
	.uleb128 0x4
	.byte	0x9e
	.uleb128 0x3
	.byte	0x4
	.set L$set$315,LCFI134-LCFI133
	.long L$set$315
	.byte	0xde
	.byte	0xdd
	.byte	0xe
	.uleb128 0
	.align	3
LEFDE118:
LSFDE120:
	.set L$set$316,LEFDE120-LASFDE120
	.long L$set$316
LASFDE120:
	.set L$set$317,Lframe0-Lsection__debug_frame
	.long L$set$317
	.quad	LFB12558
	.set L$set$318,LFE12558-LFB12558
	.quad L$set$318
	.byte	0x4
	.set L$set$319,LCFI135-LFB12558
	.long L$set$319
	.byte	0xe
	.uleb128 0x10
	.byte	0x4
	.set L$set$320,LCFI136-LCFI135
	.long L$set$320
	.byte	0xe
	.uleb128 0
	.align	3
LEFDE120:
LSFDE122:
	.set L$set$321,LEFDE122-LASFDE122
	.long L$set$321
LASFDE122:
	.set L$set$322,Lframe0-Lsection__debug_frame
	.long L$set$322
	.quad	LFB12559
	.set L$set$323,LFE12559-LFB12559
	.quad L$set$323
	.byte	0x4
	.set L$set$324,LCFI137-LFB12559
	.long L$set$324
	.byte	0xe
	.uleb128 0x10
	.byte	0x4
	.set L$set$325,LCFI138-LCFI137
	.long L$set$325
	.byte	0xe
	.uleb128 0
	.align	3
LEFDE122:
LSFDE124:
	.set L$set$326,LEFDE124-LASFDE124
	.long L$set$326
LASFDE124:
	.set L$set$327,Lframe0-Lsection__debug_frame
	.long L$set$327
	.quad	LFB12562
	.set L$set$328,LFE12562-LFB12562
	.quad L$set$328
	.byte	0x4
	.set L$set$329,LCFI139-LFB12562
	.long L$set$329
	.byte	0xe
	.uleb128 0x50
	.byte	0x9d
	.uleb128 0xa
	.byte	0x9e
	.uleb128 0x9
	.byte	0x4
	.set L$set$330,LCFI140-LCFI139
	.long L$set$330
	.byte	0x93
	.uleb128 0x8
	.byte	0x94
	.uleb128 0x7
	.byte	0x4
	.set L$set$331,LCFI141-LCFI140
	.long L$set$331
	.byte	0xde
	.byte	0xdd
	.byte	0xd3
	.byte	0xd4
	.byte	0xe
	.uleb128 0
	.align	3
LEFDE124:
LSFDE126:
	.set L$set$332,LEFDE126-LASFDE126
	.long L$set$332
LASFDE126:
	.set L$set$333,Lframe0-Lsection__debug_frame
	.long L$set$333
	.quad	LFB12565
	.set L$set$334,LFE12565-LFB12565
	.quad L$set$334
	.byte	0x4
	.set L$set$335,LCFI142-LFB12565
	.long L$set$335
	.byte	0xe
	.uleb128 0x30
	.byte	0x9d
	.uleb128 0x6
	.byte	0x9e
	.uleb128 0x5
	.byte	0x4
	.set L$set$336,LCFI143-LCFI142
	.long L$set$336
	.byte	0x93
	.uleb128 0x4
	.byte	0x94
	.uleb128 0x3
	.byte	0x4
	.set L$set$337,LCFI144-LCFI143
	.long L$set$337
	.byte	0xde
	.byte	0xdd
	.byte	0xd3
	.byte	0xd4
	.byte	0xe
	.uleb128 0
	.align	3
LEFDE126:
LSFDE128:
	.set L$set$338,LEFDE128-LASFDE128
	.long L$set$338
LASFDE128:
	.set L$set$339,Lframe0-Lsection__debug_frame
	.long L$set$339
	.quad	LFB12566
	.set L$set$340,LFE12566-LFB12566
	.quad L$set$340
	.byte	0x4
	.set L$set$341,LCFI145-LFB12566
	.long L$set$341
	.byte	0xe
	.uleb128 0x30
	.byte	0x9d
	.uleb128 0x6
	.byte	0x9e
	.uleb128 0x5
	.byte	0x4
	.set L$set$342,LCFI146-LCFI145
	.long L$set$342
	.byte	0xde
	.byte	0xdd
	.byte	0xe
	.uleb128 0
	.align	3
LEFDE128:
LSFDE130:
	.set L$set$343,LEFDE130-LASFDE130
	.long L$set$343
LASFDE130:
	.set L$set$344,Lframe0-Lsection__debug_frame
	.long L$set$344
	.quad	LFB12567
	.set L$set$345,LFE12567-LFB12567
	.quad L$set$345
	.byte	0x4
	.set L$set$346,LCFI147-LFB12567
	.long L$set$346
	.byte	0xe
	.uleb128 0x30
	.byte	0x9d
	.uleb128 0x6
	.byte	0x9e
	.uleb128 0x5
	.byte	0x4
	.set L$set$347,LCFI148-LCFI147
	.long L$set$347
	.byte	0xde
	.byte	0xdd
	.byte	0xe
	.uleb128 0
	.align	3
LEFDE130:
LSFDE132:
	.set L$set$348,LEFDE132-LASFDE132
	.long L$set$348
LASFDE132:
	.set L$set$349,Lframe0-Lsection__debug_frame
	.long L$set$349
	.quad	LFB12568
	.set L$set$350,LFE12568-LFB12568
	.quad L$set$350
	.byte	0x4
	.set L$set$351,LCFI149-LFB12568
	.long L$set$351
	.byte	0xe
	.uleb128 0x30
	.byte	0x9d
	.uleb128 0x6
	.byte	0x9e
	.uleb128 0x5
	.byte	0x4
	.set L$set$352,LCFI150-LCFI149
	.long L$set$352
	.byte	0x93
	.uleb128 0x4
	.byte	0x4
	.set L$set$353,LCFI151-LCFI150
	.long L$set$353
	.byte	0xde
	.byte	0xdd
	.byte	0xd3
	.byte	0xe
	.uleb128 0
	.align	3
LEFDE132:
LSFDE134:
	.set L$set$354,LEFDE134-LASFDE134
	.long L$set$354
LASFDE134:
	.set L$set$355,Lframe0-Lsection__debug_frame
	.long L$set$355
	.quad	LFB12569
	.set L$set$356,LFE12569-LFB12569
	.quad L$set$356
	.byte	0x4
	.set L$set$357,LCFI152-LFB12569
	.long L$set$357
	.byte	0xe
	.uleb128 0x20
	.byte	0x9d
	.uleb128 0x4
	.byte	0x9e
	.uleb128 0x3
	.byte	0x4
	.set L$set$358,LCFI153-LCFI152
	.long L$set$358
	.byte	0xde
	.byte	0xdd
	.byte	0xe
	.uleb128 0
	.align	3
LEFDE134:
LSFDE136:
	.set L$set$359,LEFDE136-LASFDE136
	.long L$set$359
LASFDE136:
	.set L$set$360,Lframe0-Lsection__debug_frame
	.long L$set$360
	.quad	LFB12570
	.set L$set$361,LFE12570-LFB12570
	.quad L$set$361
	.byte	0x4
	.set L$set$362,LCFI154-LFB12570
	.long L$set$362
	.byte	0xe
	.uleb128 0x20
	.byte	0x9d
	.uleb128 0x4
	.byte	0x9e
	.uleb128 0x3
	.byte	0x4
	.set L$set$363,LCFI155-LCFI154
	.long L$set$363
	.byte	0xde
	.byte	0xdd
	.byte	0xe
	.uleb128 0
	.align	3
LEFDE136:
LSFDE138:
	.set L$set$364,LEFDE138-LASFDE138
	.long L$set$364
LASFDE138:
	.set L$set$365,Lframe0-Lsection__debug_frame
	.long L$set$365
	.quad	LFB12610
	.set L$set$366,LFE12610-LFB12610
	.quad L$set$366
	.byte	0x4
	.set L$set$367,LCFI156-LFB12610
	.long L$set$367
	.byte	0xe
	.uleb128 0x10
	.byte	0x4
	.set L$set$368,LCFI157-LCFI156
	.long L$set$368
	.byte	0xe
	.uleb128 0
	.align	3
LEFDE138:
LSFDE140:
	.set L$set$369,LEFDE140-LASFDE140
	.long L$set$369
LASFDE140:
	.set L$set$370,Lframe0-Lsection__debug_frame
	.long L$set$370
	.quad	LFB12612
	.set L$set$371,LFE12612-LFB12612
	.quad L$set$371
	.byte	0x4
	.set L$set$372,LCFI158-LFB12612
	.long L$set$372
	.byte	0xe
	.uleb128 0x40
	.byte	0x9d
	.uleb128 0x8
	.byte	0x9e
	.uleb128 0x7
	.byte	0x4
	.set L$set$373,LCFI159-LCFI158
	.long L$set$373
	.byte	0x93
	.uleb128 0x6
	.byte	0x94
	.uleb128 0x5
	.byte	0x4
	.set L$set$374,LCFI160-LCFI159
	.long L$set$374
	.byte	0xde
	.byte	0xdd
	.byte	0xd3
	.byte	0xd4
	.byte	0xe
	.uleb128 0
	.align	3
LEFDE140:
LSFDE142:
	.set L$set$375,LEFDE142-LASFDE142
	.long L$set$375
LASFDE142:
	.set L$set$376,Lframe0-Lsection__debug_frame
	.long L$set$376
	.quad	LFB12613
	.set L$set$377,LFE12613-LFB12613
	.quad L$set$377
	.byte	0x4
	.set L$set$378,LCFI161-LFB12613
	.long L$set$378
	.byte	0xe
	.uleb128 0x10
	.byte	0x4
	.set L$set$379,LCFI162-LCFI161
	.long L$set$379
	.byte	0xe
	.uleb128 0
	.align	3
LEFDE142:
LSFDE144:
	.set L$set$380,LEFDE144-LASFDE144
	.long L$set$380
LASFDE144:
	.set L$set$381,Lframe0-Lsection__debug_frame
	.long L$set$381
	.quad	LFB12639
	.set L$set$382,LFE12639-LFB12639
	.quad L$set$382
	.byte	0x4
	.set L$set$383,LCFI163-LFB12639
	.long L$set$383
	.byte	0xe
	.uleb128 0x10
	.byte	0x4
	.set L$set$384,LCFI164-LCFI163
	.long L$set$384
	.byte	0xe
	.uleb128 0
	.align	3
LEFDE144:
LSFDE146:
	.set L$set$385,LEFDE146-LASFDE146
	.long L$set$385
LASFDE146:
	.set L$set$386,Lframe0-Lsection__debug_frame
	.long L$set$386
	.quad	LFB12643
	.set L$set$387,LFE12643-LFB12643
	.quad L$set$387
	.byte	0x4
	.set L$set$388,LCFI165-LFB12643
	.long L$set$388
	.byte	0xe
	.uleb128 0x20
	.byte	0x9d
	.uleb128 0x4
	.byte	0x9e
	.uleb128 0x3
	.byte	0x4
	.set L$set$389,LCFI166-LCFI165
	.long L$set$389
	.byte	0xde
	.byte	0xdd
	.byte	0xe
	.uleb128 0
	.align	3
LEFDE146:
LSFDE148:
	.set L$set$390,LEFDE148-LASFDE148
	.long L$set$390
LASFDE148:
	.set L$set$391,Lframe0-Lsection__debug_frame
	.long L$set$391
	.quad	LFB12648
	.set L$set$392,LFE12648-LFB12648
	.quad L$set$392
	.byte	0x4
	.set L$set$393,LCFI167-LFB12648
	.long L$set$393
	.byte	0xe
	.uleb128 0x20
	.byte	0x9d
	.uleb128 0x4
	.byte	0x9e
	.uleb128 0x3
	.byte	0x4
	.set L$set$394,LCFI168-LCFI167
	.long L$set$394
	.byte	0xde
	.byte	0xdd
	.byte	0xe
	.uleb128 0
	.align	3
LEFDE148:
LSFDE150:
	.set L$set$395,LEFDE150-LASFDE150
	.long L$set$395
LASFDE150:
	.set L$set$396,Lframe0-Lsection__debug_frame
	.long L$set$396
	.quad	LFB12649
	.set L$set$397,LFE12649-LFB12649
	.quad L$set$397
	.byte	0x4
	.set L$set$398,LCFI169-LFB12649
	.long L$set$398
	.byte	0xe
	.uleb128 0x10
	.byte	0x4
	.set L$set$399,LCFI170-LCFI169
	.long L$set$399
	.byte	0xe
	.uleb128 0
	.align	3
LEFDE150:
LSFDE152:
	.set L$set$400,LEFDE152-LASFDE152
	.long L$set$400
LASFDE152:
	.set L$set$401,Lframe0-Lsection__debug_frame
	.long L$set$401
	.quad	LFB12650
	.set L$set$402,LFE12650-LFB12650
	.quad L$set$402
	.byte	0x4
	.set L$set$403,LCFI171-LFB12650
	.long L$set$403
	.byte	0xe
	.uleb128 0x10
	.byte	0x4
	.set L$set$404,LCFI172-LCFI171
	.long L$set$404
	.byte	0xe
	.uleb128 0
	.align	3
LEFDE152:
LSFDE154:
	.set L$set$405,LEFDE154-LASFDE154
	.long L$set$405
LASFDE154:
	.set L$set$406,Lframe0-Lsection__debug_frame
	.long L$set$406
	.quad	LFB12653
	.set L$set$407,LFE12653-LFB12653
	.quad L$set$407
	.byte	0x4
	.set L$set$408,LCFI173-LFB12653
	.long L$set$408
	.byte	0xe
	.uleb128 0x30
	.byte	0x9d
	.uleb128 0x6
	.byte	0x9e
	.uleb128 0x5
	.byte	0x4
	.set L$set$409,LCFI174-LCFI173
	.long L$set$409
	.byte	0xde
	.byte	0xdd
	.byte	0xe
	.uleb128 0
	.align	3
LEFDE154:
LSFDE156:
	.set L$set$410,LEFDE156-LASFDE156
	.long L$set$410
LASFDE156:
	.set L$set$411,Lframe0-Lsection__debug_frame
	.long L$set$411
	.quad	LFB12654
	.set L$set$412,LFE12654-LFB12654
	.quad L$set$412
	.byte	0x4
	.set L$set$413,LCFI175-LFB12654
	.long L$set$413
	.byte	0xe
	.uleb128 0x30
	.byte	0x9d
	.uleb128 0x6
	.byte	0x9e
	.uleb128 0x5
	.byte	0x4
	.set L$set$414,LCFI176-LCFI175
	.long L$set$414
	.byte	0x93
	.uleb128 0x4
	.byte	0x4
	.set L$set$415,LCFI177-LCFI176
	.long L$set$415
	.byte	0xde
	.byte	0xdd
	.byte	0xd3
	.byte	0xe
	.uleb128 0
	.align	3
LEFDE156:
LSFDE158:
	.set L$set$416,LEFDE158-LASFDE158
	.long L$set$416
LASFDE158:
	.set L$set$417,Lframe0-Lsection__debug_frame
	.long L$set$417
	.quad	LFB12655
	.set L$set$418,LFE12655-LFB12655
	.quad L$set$418
	.byte	0x4
	.set L$set$419,LCFI178-LFB12655
	.long L$set$419
	.byte	0xe
	.uleb128 0x10
	.byte	0x4
	.set L$set$420,LCFI179-LCFI178
	.long L$set$420
	.byte	0xe
	.uleb128 0
	.align	3
LEFDE158:
LSFDE160:
	.set L$set$421,LEFDE160-LASFDE160
	.long L$set$421
LASFDE160:
	.set L$set$422,Lframe0-Lsection__debug_frame
	.long L$set$422
	.quad	LFB12656
	.set L$set$423,LFE12656-LFB12656
	.quad L$set$423
	.byte	0x4
	.set L$set$424,LCFI180-LFB12656
	.long L$set$424
	.byte	0xe
	.uleb128 0x10
	.byte	0x4
	.set L$set$425,LCFI181-LCFI180
	.long L$set$425
	.byte	0xe
	.uleb128 0
	.align	3
LEFDE160:
LSFDE162:
	.set L$set$426,LEFDE162-LASFDE162
	.long L$set$426
LASFDE162:
	.set L$set$427,Lframe0-Lsection__debug_frame
	.long L$set$427
	.quad	LFB12657
	.set L$set$428,LFE12657-LFB12657
	.quad L$set$428
	.byte	0x4
	.set L$set$429,LCFI182-LFB12657
	.long L$set$429
	.byte	0xe
	.uleb128 0x10
	.byte	0x4
	.set L$set$430,LCFI183-LCFI182
	.long L$set$430
	.byte	0xe
	.uleb128 0
	.align	3
LEFDE162:
LSFDE164:
	.set L$set$431,LEFDE164-LASFDE164
	.long L$set$431
LASFDE164:
	.set L$set$432,Lframe0-Lsection__debug_frame
	.long L$set$432
	.quad	LFB12658
	.set L$set$433,LFE12658-LFB12658
	.quad L$set$433
	.byte	0x4
	.set L$set$434,LCFI184-LFB12658
	.long L$set$434
	.byte	0xe
	.uleb128 0x30
	.byte	0x9d
	.uleb128 0x6
	.byte	0x9e
	.uleb128 0x5
	.byte	0x4
	.set L$set$435,LCFI185-LCFI184
	.long L$set$435
	.byte	0xde
	.byte	0xdd
	.byte	0xe
	.uleb128 0
	.align	3
LEFDE164:
LSFDE166:
	.set L$set$436,LEFDE166-LASFDE166
	.long L$set$436
LASFDE166:
	.set L$set$437,Lframe0-Lsection__debug_frame
	.long L$set$437
	.quad	LFB12706
	.set L$set$438,LFE12706-LFB12706
	.quad L$set$438
	.byte	0x4
	.set L$set$439,LCFI186-LFB12706
	.long L$set$439
	.byte	0xe
	.uleb128 0x30
	.byte	0x9d
	.uleb128 0x6
	.byte	0x9e
	.uleb128 0x5
	.byte	0x4
	.set L$set$440,LCFI187-LCFI186
	.long L$set$440
	.byte	0xde
	.byte	0xdd
	.byte	0xe
	.uleb128 0
	.align	3
LEFDE166:
LSFDE168:
	.set L$set$441,LEFDE168-LASFDE168
	.long L$set$441
LASFDE168:
	.set L$set$442,Lframe0-Lsection__debug_frame
	.long L$set$442
	.quad	LFB12707
	.set L$set$443,LFE12707-LFB12707
	.quad L$set$443
	.byte	0x4
	.set L$set$444,LCFI188-LFB12707
	.long L$set$444
	.byte	0xe
	.uleb128 0x20
	.byte	0x9d
	.uleb128 0x4
	.byte	0x9e
	.uleb128 0x3
	.byte	0x4
	.set L$set$445,LCFI189-LCFI188
	.long L$set$445
	.byte	0xde
	.byte	0xdd
	.byte	0xe
	.uleb128 0
	.align	3
LEFDE168:
LSFDE170:
	.set L$set$446,LEFDE170-LASFDE170
	.long L$set$446
LASFDE170:
	.set L$set$447,Lframe0-Lsection__debug_frame
	.long L$set$447
	.quad	LFB12709
	.set L$set$448,LFE12709-LFB12709
	.quad L$set$448
	.byte	0x4
	.set L$set$449,LCFI190-LFB12709
	.long L$set$449
	.byte	0xe
	.uleb128 0x30
	.byte	0x9d
	.uleb128 0x6
	.byte	0x9e
	.uleb128 0x5
	.byte	0x4
	.set L$set$450,LCFI191-LCFI190
	.long L$set$450
	.byte	0x93
	.uleb128 0x4
	.byte	0x4
	.set L$set$451,LCFI192-LCFI191
	.long L$set$451
	.byte	0xde
	.byte	0xdd
	.byte	0xd3
	.byte	0xe
	.uleb128 0
	.align	3
LEFDE170:
LSFDE172:
	.set L$set$452,LEFDE172-LASFDE172
	.long L$set$452
LASFDE172:
	.set L$set$453,Lframe0-Lsection__debug_frame
	.long L$set$453
	.quad	LFB12943
	.set L$set$454,LFE12943-LFB12943
	.quad L$set$454
	.byte	0x4
	.set L$set$455,LCFI193-LFB12943
	.long L$set$455
	.byte	0xe
	.uleb128 0x30
	.byte	0x9d
	.uleb128 0x6
	.byte	0x9e
	.uleb128 0x5
	.byte	0x4
	.set L$set$456,LCFI194-LCFI193
	.long L$set$456
	.byte	0x93
	.uleb128 0x4
	.byte	0x4
	.set L$set$457,LCFI195-LCFI194
	.long L$set$457
	.byte	0xde
	.byte	0xdd
	.byte	0xd3
	.byte	0xe
	.uleb128 0
	.align	3
LEFDE172:
LSFDE174:
	.set L$set$458,LEFDE174-LASFDE174
	.long L$set$458
LASFDE174:
	.set L$set$459,Lframe0-Lsection__debug_frame
	.long L$set$459
	.quad	LFB12944
	.set L$set$460,LFE12944-LFB12944
	.quad L$set$460
	.byte	0x4
	.set L$set$461,LCFI196-LFB12944
	.long L$set$461
	.byte	0xe
	.uleb128 0x10
	.byte	0x4
	.set L$set$462,LCFI197-LCFI196
	.long L$set$462
	.byte	0xe
	.uleb128 0
	.align	3
LEFDE174:
LSFDE176:
	.set L$set$463,LEFDE176-LASFDE176
	.long L$set$463
LASFDE176:
	.set L$set$464,Lframe0-Lsection__debug_frame
	.long L$set$464
	.quad	LFB12945
	.set L$set$465,LFE12945-LFB12945
	.quad L$set$465
	.byte	0x4
	.set L$set$466,LCFI198-LFB12945
	.long L$set$466
	.byte	0xe
	.uleb128 0x30
	.byte	0x9d
	.uleb128 0x6
	.byte	0x9e
	.uleb128 0x5
	.byte	0x4
	.set L$set$467,LCFI199-LCFI198
	.long L$set$467
	.byte	0xde
	.byte	0xdd
	.byte	0xe
	.uleb128 0
	.align	3
LEFDE176:
LSFDE178:
	.set L$set$468,LEFDE178-LASFDE178
	.long L$set$468
LASFDE178:
	.set L$set$469,Lframe0-Lsection__debug_frame
	.long L$set$469
	.quad	LFB12957
	.set L$set$470,LFE12957-LFB12957
	.quad L$set$470
	.byte	0x4
	.set L$set$471,LCFI200-LFB12957
	.long L$set$471
	.byte	0xe
	.uleb128 0x30
	.byte	0x9d
	.uleb128 0x6
	.byte	0x9e
	.uleb128 0x5
	.byte	0x4
	.set L$set$472,LCFI201-LCFI200
	.long L$set$472
	.byte	0x93
	.uleb128 0x4
	.byte	0x4
	.set L$set$473,LCFI202-LCFI201
	.long L$set$473
	.byte	0xde
	.byte	0xdd
	.byte	0xd3
	.byte	0xe
	.uleb128 0
	.align	3
LEFDE178:
LSFDE180:
	.set L$set$474,LEFDE180-LASFDE180
	.long L$set$474
LASFDE180:
	.set L$set$475,Lframe0-Lsection__debug_frame
	.long L$set$475
	.quad	LFB12959
	.set L$set$476,LFE12959-LFB12959
	.quad L$set$476
	.byte	0x4
	.set L$set$477,LCFI203-LFB12959
	.long L$set$477
	.byte	0xe
	.uleb128 0x30
	.byte	0x9d
	.uleb128 0x6
	.byte	0x9e
	.uleb128 0x5
	.byte	0x4
	.set L$set$478,LCFI204-LCFI203
	.long L$set$478
	.byte	0xde
	.byte	0xdd
	.byte	0xe
	.uleb128 0
	.align	3
LEFDE180:
LSFDE182:
	.set L$set$479,LEFDE182-LASFDE182
	.long L$set$479
LASFDE182:
	.set L$set$480,Lframe0-Lsection__debug_frame
	.long L$set$480
	.quad	LFB12962
	.set L$set$481,LFE12962-LFB12962
	.quad L$set$481
	.byte	0x4
	.set L$set$482,LCFI205-LFB12962
	.long L$set$482
	.byte	0xe
	.uleb128 0x30
	.byte	0x9d
	.uleb128 0x6
	.byte	0x9e
	.uleb128 0x5
	.byte	0x4
	.set L$set$483,LCFI206-LCFI205
	.long L$set$483
	.byte	0xde
	.byte	0xdd
	.byte	0xe
	.uleb128 0
	.align	3
LEFDE182:
LSFDE184:
	.set L$set$484,LEFDE184-LASFDE184
	.long L$set$484
LASFDE184:
	.set L$set$485,Lframe0-Lsection__debug_frame
	.long L$set$485
	.quad	LFB13035
	.set L$set$486,LFE13035-LFB13035
	.quad L$set$486
	.byte	0x4
	.set L$set$487,LCFI207-LFB13035
	.long L$set$487
	.byte	0xe
	.uleb128 0x20
	.byte	0x9d
	.uleb128 0x4
	.byte	0x9e
	.uleb128 0x3
	.byte	0x4
	.set L$set$488,LCFI208-LCFI207
	.long L$set$488
	.byte	0xde
	.byte	0xdd
	.byte	0xe
	.uleb128 0
	.align	3
LEFDE184:
LSFDE186:
	.set L$set$489,LEFDE186-LASFDE186
	.long L$set$489
LASFDE186:
	.set L$set$490,Lframe0-Lsection__debug_frame
	.long L$set$490
	.quad	LFB13038
	.set L$set$491,LFE13038-LFB13038
	.quad L$set$491
	.byte	0x4
	.set L$set$492,LCFI209-LFB13038
	.long L$set$492
	.byte	0xe
	.uleb128 0x10
	.byte	0x4
	.set L$set$493,LCFI210-LCFI209
	.long L$set$493
	.byte	0xe
	.uleb128 0
	.align	3
LEFDE186:
LSFDE188:
	.set L$set$494,LEFDE188-LASFDE188
	.long L$set$494
LASFDE188:
	.set L$set$495,Lframe0-Lsection__debug_frame
	.long L$set$495
	.quad	LFB13040
	.set L$set$496,LFE13040-LFB13040
	.quad L$set$496
	.byte	0x4
	.set L$set$497,LCFI211-LFB13040
	.long L$set$497
	.byte	0xe
	.uleb128 0x30
	.byte	0x9d
	.uleb128 0x6
	.byte	0x9e
	.uleb128 0x5
	.byte	0x4
	.set L$set$498,LCFI212-LCFI211
	.long L$set$498
	.byte	0xde
	.byte	0xdd
	.byte	0xe
	.uleb128 0
	.align	3
LEFDE188:
LSFDE190:
	.set L$set$499,LEFDE190-LASFDE190
	.long L$set$499
LASFDE190:
	.set L$set$500,Lframe0-Lsection__debug_frame
	.long L$set$500
	.quad	LFB13041
	.set L$set$501,LFE13041-LFB13041
	.quad L$set$501
	.byte	0x4
	.set L$set$502,LCFI213-LFB13041
	.long L$set$502
	.byte	0xe
	.uleb128 0x10
	.byte	0x4
	.set L$set$503,LCFI214-LCFI213
	.long L$set$503
	.byte	0xe
	.uleb128 0
	.align	3
LEFDE190:
LSFDE192:
	.set L$set$504,LEFDE192-LASFDE192
	.long L$set$504
LASFDE192:
	.set L$set$505,Lframe0-Lsection__debug_frame
	.long L$set$505
	.quad	LFB13042
	.set L$set$506,LFE13042-LFB13042
	.quad L$set$506
	.byte	0x4
	.set L$set$507,LCFI215-LFB13042
	.long L$set$507
	.byte	0xe
	.uleb128 0x30
	.byte	0x9d
	.uleb128 0x6
	.byte	0x9e
	.uleb128 0x5
	.byte	0x4
	.set L$set$508,LCFI216-LCFI215
	.long L$set$508
	.byte	0xde
	.byte	0xdd
	.byte	0xe
	.uleb128 0
	.align	3
LEFDE192:
LSFDE194:
	.set L$set$509,LEFDE194-LASFDE194
	.long L$set$509
LASFDE194:
	.set L$set$510,Lframe0-Lsection__debug_frame
	.long L$set$510
	.quad	LFB13043
	.set L$set$511,LFE13043-LFB13043
	.quad L$set$511
	.byte	0x4
	.set L$set$512,LCFI217-LFB13043
	.long L$set$512
	.byte	0xe
	.uleb128 0x10
	.byte	0x4
	.set L$set$513,LCFI218-LCFI217
	.long L$set$513
	.byte	0xe
	.uleb128 0
	.align	3
LEFDE194:
LSFDE196:
	.set L$set$514,LEFDE196-LASFDE196
	.long L$set$514
LASFDE196:
	.set L$set$515,Lframe0-Lsection__debug_frame
	.long L$set$515
	.quad	LFB13044
	.set L$set$516,LFE13044-LFB13044
	.quad L$set$516
	.byte	0x4
	.set L$set$517,LCFI219-LFB13044
	.long L$set$517
	.byte	0xe
	.uleb128 0x30
	.byte	0x9d
	.uleb128 0x6
	.byte	0x9e
	.uleb128 0x5
	.byte	0x4
	.set L$set$518,LCFI220-LCFI219
	.long L$set$518
	.byte	0x93
	.uleb128 0x4
	.byte	0x94
	.uleb128 0x3
	.byte	0x4
	.set L$set$519,LCFI221-LCFI220
	.long L$set$519
	.byte	0xde
	.byte	0xdd
	.byte	0xd3
	.byte	0xd4
	.byte	0xe
	.uleb128 0
	.align	3
LEFDE196:
LSFDE198:
	.set L$set$520,LEFDE198-LASFDE198
	.long L$set$520
LASFDE198:
	.set L$set$521,Lframe0-Lsection__debug_frame
	.long L$set$521
	.quad	LFB13077
	.set L$set$522,LFE13077-LFB13077
	.quad L$set$522
	.byte	0x4
	.set L$set$523,LCFI222-LFB13077
	.long L$set$523
	.byte	0xe
	.uleb128 0x10
	.byte	0x4
	.set L$set$524,LCFI223-LCFI222
	.long L$set$524
	.byte	0xe
	.uleb128 0
	.align	3
LEFDE198:
LSFDE200:
	.set L$set$525,LEFDE200-LASFDE200
	.long L$set$525
LASFDE200:
	.set L$set$526,Lframe0-Lsection__debug_frame
	.long L$set$526
	.quad	LFB13081
	.set L$set$527,LFE13081-LFB13081
	.quad L$set$527
	.byte	0x4
	.set L$set$528,LCFI224-LFB13081
	.long L$set$528
	.byte	0xe
	.uleb128 0x10
	.byte	0x4
	.set L$set$529,LCFI225-LCFI224
	.long L$set$529
	.byte	0xe
	.uleb128 0
	.align	3
LEFDE200:
LSFDE202:
	.set L$set$530,LEFDE202-LASFDE202
	.long L$set$530
LASFDE202:
	.set L$set$531,Lframe0-Lsection__debug_frame
	.long L$set$531
	.quad	LFB13086
	.set L$set$532,LFE13086-LFB13086
	.quad L$set$532
	.byte	0x4
	.set L$set$533,LCFI226-LFB13086
	.long L$set$533
	.byte	0xe
	.uleb128 0x20
	.byte	0x9d
	.uleb128 0x4
	.byte	0x9e
	.uleb128 0x3
	.byte	0x4
	.set L$set$534,LCFI227-LCFI226
	.long L$set$534
	.byte	0xde
	.byte	0xdd
	.byte	0xe
	.uleb128 0
	.align	3
LEFDE202:
LSFDE204:
	.set L$set$535,LEFDE204-LASFDE204
	.long L$set$535
LASFDE204:
	.set L$set$536,Lframe0-Lsection__debug_frame
	.long L$set$536
	.quad	LFB13087
	.set L$set$537,LFE13087-LFB13087
	.quad L$set$537
	.byte	0x4
	.set L$set$538,LCFI228-LFB13087
	.long L$set$538
	.byte	0xe
	.uleb128 0x20
	.byte	0x9d
	.uleb128 0x4
	.byte	0x9e
	.uleb128 0x3
	.byte	0x4
	.set L$set$539,LCFI229-LCFI228
	.long L$set$539
	.byte	0xde
	.byte	0xdd
	.byte	0xe
	.uleb128 0
	.align	3
LEFDE204:
LSFDE206:
	.set L$set$540,LEFDE206-LASFDE206
	.long L$set$540
LASFDE206:
	.set L$set$541,Lframe0-Lsection__debug_frame
	.long L$set$541
	.quad	LFB13090
	.set L$set$542,LFE13090-LFB13090
	.quad L$set$542
	.byte	0x4
	.set L$set$543,LCFI230-LFB13090
	.long L$set$543
	.byte	0xe
	.uleb128 0x20
	.byte	0x9d
	.uleb128 0x4
	.byte	0x9e
	.uleb128 0x3
	.byte	0x4
	.set L$set$544,LCFI231-LCFI230
	.long L$set$544
	.byte	0xde
	.byte	0xdd
	.byte	0xe
	.uleb128 0
	.align	3
LEFDE206:
LSFDE208:
	.set L$set$545,LEFDE208-LASFDE208
	.long L$set$545
LASFDE208:
	.set L$set$546,Lframe0-Lsection__debug_frame
	.long L$set$546
	.quad	LFB13092
	.set L$set$547,LFE13092-LFB13092
	.quad L$set$547
	.byte	0x4
	.set L$set$548,LCFI232-LFB13092
	.long L$set$548
	.byte	0xe
	.uleb128 0x10
	.byte	0x4
	.set L$set$549,LCFI233-LCFI232
	.long L$set$549
	.byte	0xe
	.uleb128 0
	.align	3
LEFDE208:
LSFDE210:
	.set L$set$550,LEFDE210-LASFDE210
	.long L$set$550
LASFDE210:
	.set L$set$551,Lframe0-Lsection__debug_frame
	.long L$set$551
	.quad	LFB13093
	.set L$set$552,LFE13093-LFB13093
	.quad L$set$552
	.byte	0x4
	.set L$set$553,LCFI234-LFB13093
	.long L$set$553
	.byte	0xe
	.uleb128 0x30
	.byte	0x9d
	.uleb128 0x6
	.byte	0x9e
	.uleb128 0x5
	.byte	0x4
	.set L$set$554,LCFI235-LCFI234
	.long L$set$554
	.byte	0x93
	.uleb128 0x4
	.byte	0x4
	.set L$set$555,LCFI236-LCFI235
	.long L$set$555
	.byte	0xde
	.byte	0xdd
	.byte	0xd3
	.byte	0xe
	.uleb128 0
	.align	3
LEFDE210:
LSFDE212:
	.set L$set$556,LEFDE212-LASFDE212
	.long L$set$556
LASFDE212:
	.set L$set$557,Lframe0-Lsection__debug_frame
	.long L$set$557
	.quad	LFB13095
	.set L$set$558,LFE13095-LFB13095
	.quad L$set$558
	.byte	0x4
	.set L$set$559,LCFI237-LFB13095
	.long L$set$559
	.byte	0xe
	.uleb128 0x30
	.byte	0x9d
	.uleb128 0x6
	.byte	0x9e
	.uleb128 0x5
	.byte	0x4
	.set L$set$560,LCFI238-LCFI237
	.long L$set$560
	.byte	0x93
	.uleb128 0x4
	.byte	0x94
	.uleb128 0x3
	.byte	0x4
	.set L$set$561,LCFI239-LCFI238
	.long L$set$561
	.byte	0xde
	.byte	0xdd
	.byte	0xd3
	.byte	0xd4
	.byte	0xe
	.uleb128 0
	.align	3
LEFDE212:
LSFDE214:
	.set L$set$562,LEFDE214-LASFDE214
	.long L$set$562
LASFDE214:
	.set L$set$563,Lframe0-Lsection__debug_frame
	.long L$set$563
	.quad	LFB13094
	.set L$set$564,LFE13094-LFB13094
	.quad L$set$564
	.byte	0x4
	.set L$set$565,LCFI240-LFB13094
	.long L$set$565
	.byte	0xe
	.uleb128 0x50
	.byte	0x9d
	.uleb128 0xa
	.byte	0x9e
	.uleb128 0x9
	.byte	0x4
	.set L$set$566,LCFI241-LCFI240
	.long L$set$566
	.byte	0x93
	.uleb128 0x8
	.byte	0x4
	.set L$set$567,LCFI242-LCFI241
	.long L$set$567
	.byte	0xde
	.byte	0xdd
	.byte	0xd3
	.byte	0xe
	.uleb128 0
	.align	3
LEFDE214:
LSFDE216:
	.set L$set$568,LEFDE216-LASFDE216
	.long L$set$568
LASFDE216:
	.set L$set$569,Lframe0-Lsection__debug_frame
	.long L$set$569
	.quad	LFB13096
	.set L$set$570,LFE13096-LFB13096
	.quad L$set$570
	.byte	0x4
	.set L$set$571,LCFI243-LFB13096
	.long L$set$571
	.byte	0xe
	.uleb128 0x10
	.byte	0x4
	.set L$set$572,LCFI244-LCFI243
	.long L$set$572
	.byte	0xe
	.uleb128 0
	.align	3
LEFDE216:
LSFDE218:
	.set L$set$573,LEFDE218-LASFDE218
	.long L$set$573
LASFDE218:
	.set L$set$574,Lframe0-Lsection__debug_frame
	.long L$set$574
	.quad	LFB13097
	.set L$set$575,LFE13097-LFB13097
	.quad L$set$575
	.byte	0x4
	.set L$set$576,LCFI245-LFB13097
	.long L$set$576
	.byte	0xe
	.uleb128 0x30
	.byte	0x9d
	.uleb128 0x6
	.byte	0x9e
	.uleb128 0x5
	.byte	0x4
	.set L$set$577,LCFI246-LCFI245
	.long L$set$577
	.byte	0xde
	.byte	0xdd
	.byte	0xe
	.uleb128 0
	.align	3
LEFDE218:
LSFDE220:
	.set L$set$578,LEFDE220-LASFDE220
	.long L$set$578
LASFDE220:
	.set L$set$579,Lframe0-Lsection__debug_frame
	.long L$set$579
	.quad	LFB13100
	.set L$set$580,LFE13100-LFB13100
	.quad L$set$580
	.byte	0x4
	.set L$set$581,LCFI247-LFB13100
	.long L$set$581
	.byte	0xe
	.uleb128 0x10
	.byte	0x4
	.set L$set$582,LCFI248-LCFI247
	.long L$set$582
	.byte	0xe
	.uleb128 0
	.align	3
LEFDE220:
LSFDE222:
	.set L$set$583,LEFDE222-LASFDE222
	.long L$set$583
LASFDE222:
	.set L$set$584,Lframe0-Lsection__debug_frame
	.long L$set$584
	.quad	LFB13122
	.set L$set$585,LFE13122-LFB13122
	.quad L$set$585
	.byte	0x4
	.set L$set$586,LCFI249-LFB13122
	.long L$set$586
	.byte	0xe
	.uleb128 0x10
	.byte	0x4
	.set L$set$587,LCFI250-LCFI249
	.long L$set$587
	.byte	0xe
	.uleb128 0
	.align	3
LEFDE222:
LSFDE224:
	.set L$set$588,LEFDE224-LASFDE224
	.long L$set$588
LASFDE224:
	.set L$set$589,Lframe0-Lsection__debug_frame
	.long L$set$589
	.quad	LFB13123
	.set L$set$590,LFE13123-LFB13123
	.quad L$set$590
	.byte	0x4
	.set L$set$591,LCFI251-LFB13123
	.long L$set$591
	.byte	0xe
	.uleb128 0x10
	.byte	0x4
	.set L$set$592,LCFI252-LCFI251
	.long L$set$592
	.byte	0xe
	.uleb128 0
	.align	3
LEFDE224:
LSFDE226:
	.set L$set$593,LEFDE226-LASFDE226
	.long L$set$593
LASFDE226:
	.set L$set$594,Lframe0-Lsection__debug_frame
	.long L$set$594
	.quad	LFB13125
	.set L$set$595,LFE13125-LFB13125
	.quad L$set$595
	.byte	0x4
	.set L$set$596,LCFI253-LFB13125
	.long L$set$596
	.byte	0xe
	.uleb128 0x10
	.byte	0x4
	.set L$set$597,LCFI254-LCFI253
	.long L$set$597
	.byte	0xe
	.uleb128 0
	.align	3
LEFDE226:
LSFDE228:
	.set L$set$598,LEFDE228-LASFDE228
	.long L$set$598
LASFDE228:
	.set L$set$599,Lframe0-Lsection__debug_frame
	.long L$set$599
	.quad	LFB13126
	.set L$set$600,LFE13126-LFB13126
	.quad L$set$600
	.byte	0x4
	.set L$set$601,LCFI255-LFB13126
	.long L$set$601
	.byte	0xe
	.uleb128 0x30
	.byte	0x9d
	.uleb128 0x6
	.byte	0x9e
	.uleb128 0x5
	.byte	0x4
	.set L$set$602,LCFI256-LCFI255
	.long L$set$602
	.byte	0xde
	.byte	0xdd
	.byte	0xe
	.uleb128 0
	.align	3
LEFDE228:
LSFDE230:
	.set L$set$603,LEFDE230-LASFDE230
	.long L$set$603
LASFDE230:
	.set L$set$604,Lframe0-Lsection__debug_frame
	.long L$set$604
	.quad	LFB13150
	.set L$set$605,LFE13150-LFB13150
	.quad L$set$605
	.byte	0x4
	.set L$set$606,LCFI257-LFB13150
	.long L$set$606
	.byte	0xe
	.uleb128 0x20
	.byte	0x9d
	.uleb128 0x4
	.byte	0x9e
	.uleb128 0x3
	.byte	0x4
	.set L$set$607,LCFI258-LCFI257
	.long L$set$607
	.byte	0xde
	.byte	0xdd
	.byte	0xe
	.uleb128 0
	.align	3
LEFDE230:
LSFDE232:
	.set L$set$608,LEFDE232-LASFDE232
	.long L$set$608
LASFDE232:
	.set L$set$609,Lframe0-Lsection__debug_frame
	.long L$set$609
	.quad	LFB13154
	.set L$set$610,LFE13154-LFB13154
	.quad L$set$610
	.byte	0x4
	.set L$set$611,LCFI259-LFB13154
	.long L$set$611
	.byte	0xe
	.uleb128 0x40
	.byte	0x9d
	.uleb128 0x8
	.byte	0x9e
	.uleb128 0x7
	.byte	0x4
	.set L$set$612,LCFI260-LCFI259
	.long L$set$612
	.byte	0x93
	.uleb128 0x6
	.byte	0x4
	.set L$set$613,LCFI261-LCFI260
	.long L$set$613
	.byte	0xde
	.byte	0xdd
	.byte	0xd3
	.byte	0xe
	.uleb128 0
	.align	3
LEFDE232:
LSFDE234:
	.set L$set$614,LEFDE234-LASFDE234
	.long L$set$614
LASFDE234:
	.set L$set$615,Lframe0-Lsection__debug_frame
	.long L$set$615
	.quad	LFB13156
	.set L$set$616,LFE13156-LFB13156
	.quad L$set$616
	.byte	0x4
	.set L$set$617,LCFI262-LFB13156
	.long L$set$617
	.byte	0xe
	.uleb128 0x20
	.byte	0x9d
	.uleb128 0x4
	.byte	0x9e
	.uleb128 0x3
	.byte	0x4
	.set L$set$618,LCFI263-LCFI262
	.long L$set$618
	.byte	0xde
	.byte	0xdd
	.byte	0xe
	.uleb128 0
	.align	3
LEFDE234:
LSFDE236:
	.set L$set$619,LEFDE236-LASFDE236
	.long L$set$619
LASFDE236:
	.set L$set$620,Lframe0-Lsection__debug_frame
	.long L$set$620
	.quad	LFB13187
	.set L$set$621,LFE13187-LFB13187
	.quad L$set$621
	.byte	0x4
	.set L$set$622,LCFI264-LFB13187
	.long L$set$622
	.byte	0xe
	.uleb128 0x40
	.byte	0x9d
	.uleb128 0x8
	.byte	0x9e
	.uleb128 0x7
	.byte	0x4
	.set L$set$623,LCFI265-LCFI264
	.long L$set$623
	.byte	0x93
	.uleb128 0x6
	.byte	0x4
	.set L$set$624,LCFI266-LCFI265
	.long L$set$624
	.byte	0xde
	.byte	0xdd
	.byte	0xd3
	.byte	0xe
	.uleb128 0
	.align	3
LEFDE236:
LSFDE238:
	.set L$set$625,LEFDE238-LASFDE238
	.long L$set$625
LASFDE238:
	.set L$set$626,Lframe0-Lsection__debug_frame
	.long L$set$626
	.quad	LFB13188
	.set L$set$627,LFE13188-LFB13188
	.quad L$set$627
	.byte	0x4
	.set L$set$628,LCFI267-LFB13188
	.long L$set$628
	.byte	0xe
	.uleb128 0x50
	.byte	0x9d
	.uleb128 0xa
	.byte	0x9e
	.uleb128 0x9
	.byte	0x4
	.set L$set$629,LCFI268-LCFI267
	.long L$set$629
	.byte	0x93
	.uleb128 0x8
	.byte	0x4
	.set L$set$630,LCFI269-LCFI268
	.long L$set$630
	.byte	0xde
	.byte	0xdd
	.byte	0xd3
	.byte	0xe
	.uleb128 0
	.align	3
LEFDE238:
LSFDE240:
	.set L$set$631,LEFDE240-LASFDE240
	.long L$set$631
LASFDE240:
	.set L$set$632,Lframe0-Lsection__debug_frame
	.long L$set$632
	.quad	LFB13309
	.set L$set$633,LFE13309-LFB13309
	.quad L$set$633
	.byte	0x4
	.set L$set$634,LCFI270-LFB13309
	.long L$set$634
	.byte	0xe
	.uleb128 0x30
	.byte	0x9d
	.uleb128 0x6
	.byte	0x9e
	.uleb128 0x5
	.byte	0x4
	.set L$set$635,LCFI271-LCFI270
	.long L$set$635
	.byte	0x93
	.uleb128 0x4
	.byte	0x4
	.set L$set$636,LCFI272-LCFI271
	.long L$set$636
	.byte	0xde
	.byte	0xdd
	.byte	0xd3
	.byte	0xe
	.uleb128 0
	.align	3
LEFDE240:
LSFDE242:
	.set L$set$637,LEFDE242-LASFDE242
	.long L$set$637
LASFDE242:
	.set L$set$638,Lframe0-Lsection__debug_frame
	.long L$set$638
	.quad	LFB13310
	.set L$set$639,LFE13310-LFB13310
	.quad L$set$639
	.byte	0x4
	.set L$set$640,LCFI273-LFB13310
	.long L$set$640
	.byte	0xe
	.uleb128 0x40
	.byte	0x9d
	.uleb128 0x8
	.byte	0x9e
	.uleb128 0x7
	.byte	0x4
	.set L$set$641,LCFI274-LCFI273
	.long L$set$641
	.byte	0xde
	.byte	0xdd
	.byte	0xe
	.uleb128 0
	.align	3
LEFDE242:
LSFDE244:
	.set L$set$642,LEFDE244-LASFDE244
	.long L$set$642
LASFDE244:
	.set L$set$643,Lframe0-Lsection__debug_frame
	.long L$set$643
	.quad	LFB13314
	.set L$set$644,LFE13314-LFB13314
	.quad L$set$644
	.byte	0x4
	.set L$set$645,LCFI275-LFB13314
	.long L$set$645
	.byte	0xe
	.uleb128 0x50
	.byte	0x9d
	.uleb128 0xa
	.byte	0x9e
	.uleb128 0x9
	.byte	0x4
	.set L$set$646,LCFI276-LCFI275
	.long L$set$646
	.byte	0xde
	.byte	0xdd
	.byte	0xe
	.uleb128 0
	.align	3
LEFDE244:
LSFDE246:
	.set L$set$647,LEFDE246-LASFDE246
	.long L$set$647
LASFDE246:
	.set L$set$648,Lframe0-Lsection__debug_frame
	.long L$set$648
	.quad	LFB13357
	.set L$set$649,LFE13357-LFB13357
	.quad L$set$649
	.byte	0x4
	.set L$set$650,LCFI277-LFB13357
	.long L$set$650
	.byte	0xe
	.uleb128 0x10
	.byte	0x4
	.set L$set$651,LCFI278-LCFI277
	.long L$set$651
	.byte	0xe
	.uleb128 0
	.align	3
LEFDE246:
LSFDE248:
	.set L$set$652,LEFDE248-LASFDE248
	.long L$set$652
LASFDE248:
	.set L$set$653,Lframe0-Lsection__debug_frame
	.long L$set$653
	.quad	LFB13359
	.set L$set$654,LFE13359-LFB13359
	.quad L$set$654
	.byte	0x4
	.set L$set$655,LCFI279-LFB13359
	.long L$set$655
	.byte	0xe
	.uleb128 0x50
	.byte	0x9d
	.uleb128 0xa
	.byte	0x9e
	.uleb128 0x9
	.byte	0x4
	.set L$set$656,LCFI280-LCFI279
	.long L$set$656
	.byte	0xde
	.byte	0xdd
	.byte	0xe
	.uleb128 0
	.align	3
LEFDE248:
LSFDE250:
	.set L$set$657,LEFDE250-LASFDE250
	.long L$set$657
LASFDE250:
	.set L$set$658,Lframe0-Lsection__debug_frame
	.long L$set$658
	.quad	LFB13360
	.set L$set$659,LFE13360-LFB13360
	.quad L$set$659
	.byte	0x4
	.set L$set$660,LCFI281-LFB13360
	.long L$set$660
	.byte	0xe
	.uleb128 0x20
	.byte	0x9d
	.uleb128 0x4
	.byte	0x9e
	.uleb128 0x3
	.byte	0x4
	.set L$set$661,LCFI282-LCFI281
	.long L$set$661
	.byte	0xde
	.byte	0xdd
	.byte	0xe
	.uleb128 0
	.align	3
LEFDE250:
LSFDE252:
	.set L$set$662,LEFDE252-LASFDE252
	.long L$set$662
LASFDE252:
	.set L$set$663,Lframe0-Lsection__debug_frame
	.long L$set$663
	.quad	LFB13362
	.set L$set$664,LFE13362-LFB13362
	.quad L$set$664
	.byte	0x4
	.set L$set$665,LCFI283-LFB13362
	.long L$set$665
	.byte	0xe
	.uleb128 0x30
	.byte	0x9d
	.uleb128 0x6
	.byte	0x9e
	.uleb128 0x5
	.byte	0x4
	.set L$set$666,LCFI284-LCFI283
	.long L$set$666
	.byte	0x93
	.uleb128 0x4
	.byte	0x4
	.set L$set$667,LCFI285-LCFI284
	.long L$set$667
	.byte	0xde
	.byte	0xdd
	.byte	0xd3
	.byte	0xe
	.uleb128 0
	.align	3
LEFDE252:
LSFDE254:
	.set L$set$668,LEFDE254-LASFDE254
	.long L$set$668
LASFDE254:
	.set L$set$669,Lframe0-Lsection__debug_frame
	.long L$set$669
	.quad	LFB13361
	.set L$set$670,LFE13361-LFB13361
	.quad L$set$670
	.byte	0x4
	.set L$set$671,LCFI286-LFB13361
	.long L$set$671
	.byte	0xe
	.uleb128 0x30
	.byte	0x9d
	.uleb128 0x6
	.byte	0x9e
	.uleb128 0x5
	.byte	0x4
	.set L$set$672,LCFI287-LCFI286
	.long L$set$672
	.byte	0xde
	.byte	0xdd
	.byte	0xe
	.uleb128 0
	.align	3
LEFDE254:
LSFDE256:
	.set L$set$673,LEFDE256-LASFDE256
	.long L$set$673
LASFDE256:
	.set L$set$674,Lframe0-Lsection__debug_frame
	.long L$set$674
	.quad	LFB13363
	.set L$set$675,LFE13363-LFB13363
	.quad L$set$675
	.byte	0x4
	.set L$set$676,LCFI288-LFB13363
	.long L$set$676
	.byte	0xe
	.uleb128 0x80
	.byte	0x9d
	.uleb128 0x10
	.byte	0x9e
	.uleb128 0xf
	.byte	0x4
	.set L$set$677,LCFI289-LCFI288
	.long L$set$677
	.byte	0x93
	.uleb128 0xe
	.byte	0x94
	.uleb128 0xd
	.byte	0x4
	.set L$set$678,LCFI290-LCFI289
	.long L$set$678
	.byte	0xde
	.byte	0xdd
	.byte	0xd3
	.byte	0xd4
	.byte	0xe
	.uleb128 0
	.align	3
LEFDE256:
LSFDE258:
	.set L$set$679,LEFDE258-LASFDE258
	.long L$set$679
LASFDE258:
	.set L$set$680,Lframe0-Lsection__debug_frame
	.long L$set$680
	.quad	LFB13367
	.set L$set$681,LFE13367-LFB13367
	.quad L$set$681
	.byte	0x4
	.set L$set$682,LCFI291-LFB13367
	.long L$set$682
	.byte	0xe
	.uleb128 0x30
	.byte	0x9d
	.uleb128 0x6
	.byte	0x9e
	.uleb128 0x5
	.byte	0x4
	.set L$set$683,LCFI292-LCFI291
	.long L$set$683
	.byte	0xde
	.byte	0xdd
	.byte	0xe
	.uleb128 0
	.align	3
LEFDE258:
LSFDE260:
	.set L$set$684,LEFDE260-LASFDE260
	.long L$set$684
LASFDE260:
	.set L$set$685,Lframe0-Lsection__debug_frame
	.long L$set$685
	.quad	LFB13397
	.set L$set$686,LFE13397-LFB13397
	.quad L$set$686
	.byte	0x4
	.set L$set$687,LCFI293-LFB13397
	.long L$set$687
	.byte	0xe
	.uleb128 0x20
	.byte	0x9d
	.uleb128 0x4
	.byte	0x9e
	.uleb128 0x3
	.byte	0x4
	.set L$set$688,LCFI294-LCFI293
	.long L$set$688
	.byte	0xde
	.byte	0xdd
	.byte	0xe
	.uleb128 0
	.align	3
LEFDE260:
LSFDE262:
	.set L$set$689,LEFDE262-LASFDE262
	.long L$set$689
LASFDE262:
	.set L$set$690,Lframe0-Lsection__debug_frame
	.long L$set$690
	.quad	LFB13398
	.set L$set$691,LFE13398-LFB13398
	.quad L$set$691
	.byte	0x4
	.set L$set$692,LCFI295-LFB13398
	.long L$set$692
	.byte	0xe
	.uleb128 0x30
	.byte	0x9d
	.uleb128 0x6
	.byte	0x9e
	.uleb128 0x5
	.byte	0x4
	.set L$set$693,LCFI296-LCFI295
	.long L$set$693
	.byte	0xde
	.byte	0xdd
	.byte	0xe
	.uleb128 0
	.align	3
LEFDE262:
LSFDE264:
	.set L$set$694,LEFDE264-LASFDE264
	.long L$set$694
LASFDE264:
	.set L$set$695,Lframe0-Lsection__debug_frame
	.long L$set$695
	.quad	LFB13399
	.set L$set$696,LFE13399-LFB13399
	.quad L$set$696
	.byte	0x4
	.set L$set$697,LCFI297-LFB13399
	.long L$set$697
	.byte	0xe
	.uleb128 0x10
	.byte	0x4
	.set L$set$698,LCFI298-LCFI297
	.long L$set$698
	.byte	0xe
	.uleb128 0
	.align	3
LEFDE264:
LSFDE266:
	.set L$set$699,LEFDE266-LASFDE266
	.long L$set$699
LASFDE266:
	.set L$set$700,Lframe0-Lsection__debug_frame
	.long L$set$700
	.quad	LFB13400
	.set L$set$701,LFE13400-LFB13400
	.quad L$set$701
	.byte	0x4
	.set L$set$702,LCFI299-LFB13400
	.long L$set$702
	.byte	0xe
	.uleb128 0x10
	.byte	0x4
	.set L$set$703,LCFI300-LCFI299
	.long L$set$703
	.byte	0xe
	.uleb128 0
	.align	3
LEFDE266:
LSFDE268:
	.set L$set$704,LEFDE268-LASFDE268
	.long L$set$704
LASFDE268:
	.set L$set$705,Lframe0-Lsection__debug_frame
	.long L$set$705
	.quad	LFB13401
	.set L$set$706,LFE13401-LFB13401
	.quad L$set$706
	.byte	0x4
	.set L$set$707,LCFI301-LFB13401
	.long L$set$707
	.byte	0xe
	.uleb128 0x20
	.byte	0x4
	.set L$set$708,LCFI302-LCFI301
	.long L$set$708
	.byte	0xe
	.uleb128 0
	.align	3
LEFDE268:
LSFDE270:
	.set L$set$709,LEFDE270-LASFDE270
	.long L$set$709
LASFDE270:
	.set L$set$710,Lframe0-Lsection__debug_frame
	.long L$set$710
	.quad	LFB13402
	.set L$set$711,LFE13402-LFB13402
	.quad L$set$711
	.byte	0x4
	.set L$set$712,LCFI303-LFB13402
	.long L$set$712
	.byte	0xe
	.uleb128 0x40
	.byte	0x9d
	.uleb128 0x8
	.byte	0x9e
	.uleb128 0x7
	.byte	0x4
	.set L$set$713,LCFI304-LCFI303
	.long L$set$713
	.byte	0x93
	.uleb128 0x6
	.byte	0x4
	.set L$set$714,LCFI305-LCFI304
	.long L$set$714
	.byte	0xde
	.byte	0xdd
	.byte	0xd3
	.byte	0xe
	.uleb128 0
	.align	3
LEFDE270:
LSFDE272:
	.set L$set$715,LEFDE272-LASFDE272
	.long L$set$715
LASFDE272:
	.set L$set$716,Lframe0-Lsection__debug_frame
	.long L$set$716
	.quad	LFB13403
	.set L$set$717,LFE13403-LFB13403
	.quad L$set$717
	.byte	0x4
	.set L$set$718,LCFI306-LFB13403
	.long L$set$718
	.byte	0xe
	.uleb128 0x20
	.byte	0x9d
	.uleb128 0x4
	.byte	0x9e
	.uleb128 0x3
	.byte	0x4
	.set L$set$719,LCFI307-LCFI306
	.long L$set$719
	.byte	0xde
	.byte	0xdd
	.byte	0xe
	.uleb128 0
	.align	3
LEFDE272:
LSFDE274:
	.set L$set$720,LEFDE274-LASFDE274
	.long L$set$720
LASFDE274:
	.set L$set$721,Lframe0-Lsection__debug_frame
	.long L$set$721
	.quad	LFB13404
	.set L$set$722,LFE13404-LFB13404
	.quad L$set$722
	.byte	0x4
	.set L$set$723,LCFI308-LFB13404
	.long L$set$723
	.byte	0xe
	.uleb128 0x30
	.byte	0x9d
	.uleb128 0x6
	.byte	0x9e
	.uleb128 0x5
	.byte	0x4
	.set L$set$724,LCFI309-LCFI308
	.long L$set$724
	.byte	0xde
	.byte	0xdd
	.byte	0xe
	.uleb128 0
	.align	3
LEFDE274:
LSFDE276:
	.set L$set$725,LEFDE276-LASFDE276
	.long L$set$725
LASFDE276:
	.set L$set$726,Lframe0-Lsection__debug_frame
	.long L$set$726
	.quad	LFB13405
	.set L$set$727,LFE13405-LFB13405
	.quad L$set$727
	.byte	0x4
	.set L$set$728,LCFI310-LFB13405
	.long L$set$728
	.byte	0xe
	.uleb128 0x20
	.byte	0x9d
	.uleb128 0x4
	.byte	0x9e
	.uleb128 0x3
	.byte	0x4
	.set L$set$729,LCFI311-LCFI310
	.long L$set$729
	.byte	0xde
	.byte	0xdd
	.byte	0xe
	.uleb128 0
	.align	3
LEFDE276:
LSFDE278:
	.set L$set$730,LEFDE278-LASFDE278
	.long L$set$730
LASFDE278:
	.set L$set$731,Lframe0-Lsection__debug_frame
	.long L$set$731
	.quad	LFB13418
	.set L$set$732,LFE13418-LFB13418
	.quad L$set$732
	.byte	0x4
	.set L$set$733,LCFI312-LFB13418
	.long L$set$733
	.byte	0xe
	.uleb128 0x30
	.byte	0x9d
	.uleb128 0x6
	.byte	0x9e
	.uleb128 0x5
	.byte	0x4
	.set L$set$734,LCFI313-LCFI312
	.long L$set$734
	.byte	0xde
	.byte	0xdd
	.byte	0xe
	.uleb128 0
	.align	3
LEFDE278:
LSFDE280:
	.set L$set$735,LEFDE280-LASFDE280
	.long L$set$735
LASFDE280:
	.set L$set$736,Lframe0-Lsection__debug_frame
	.long L$set$736
	.quad	LFB13430
	.set L$set$737,LFE13430-LFB13430
	.quad L$set$737
	.byte	0x4
	.set L$set$738,LCFI314-LFB13430
	.long L$set$738
	.byte	0xe
	.uleb128 0x20
	.byte	0x9d
	.uleb128 0x4
	.byte	0x9e
	.uleb128 0x3
	.byte	0x4
	.set L$set$739,LCFI315-LCFI314
	.long L$set$739
	.byte	0xde
	.byte	0xdd
	.byte	0xe
	.uleb128 0
	.align	3
LEFDE280:
LSFDE282:
	.set L$set$740,LEFDE282-LASFDE282
	.long L$set$740
LASFDE282:
	.set L$set$741,Lframe0-Lsection__debug_frame
	.long L$set$741
	.quad	LFB13434
	.set L$set$742,LFE13434-LFB13434
	.quad L$set$742
	.byte	0x4
	.set L$set$743,LCFI316-LFB13434
	.long L$set$743
	.byte	0xe
	.uleb128 0x20
	.byte	0x9d
	.uleb128 0x4
	.byte	0x9e
	.uleb128 0x3
	.byte	0x4
	.set L$set$744,LCFI317-LCFI316
	.long L$set$744
	.byte	0xde
	.byte	0xdd
	.byte	0xe
	.uleb128 0
	.align	3
LEFDE282:
LSFDE284:
	.set L$set$745,LEFDE284-LASFDE284
	.long L$set$745
LASFDE284:
	.set L$set$746,Lframe0-Lsection__debug_frame
	.long L$set$746
	.quad	LFB13435
	.set L$set$747,LFE13435-LFB13435
	.quad L$set$747
	.byte	0x4
	.set L$set$748,LCFI318-LFB13435
	.long L$set$748
	.byte	0xe
	.uleb128 0x20
	.byte	0x9d
	.uleb128 0x4
	.byte	0x9e
	.uleb128 0x3
	.byte	0x4
	.set L$set$749,LCFI319-LCFI318
	.long L$set$749
	.byte	0xde
	.byte	0xdd
	.byte	0xe
	.uleb128 0
	.align	3
LEFDE284:
LSFDE286:
	.set L$set$750,LEFDE286-LASFDE286
	.long L$set$750
LASFDE286:
	.set L$set$751,Lframe0-Lsection__debug_frame
	.long L$set$751
	.quad	LFB13475
	.set L$set$752,LFE13475-LFB13475
	.quad L$set$752
	.byte	0x4
	.set L$set$753,LCFI320-LFB13475
	.long L$set$753
	.byte	0xe
	.uleb128 0x70
	.byte	0x9d
	.uleb128 0xe
	.byte	0x9e
	.uleb128 0xd
	.byte	0x4
	.set L$set$754,LCFI321-LCFI320
	.long L$set$754
	.byte	0x93
	.uleb128 0xc
	.byte	0x4
	.set L$set$755,LCFI322-LCFI321
	.long L$set$755
	.byte	0xde
	.byte	0xdd
	.byte	0xd3
	.byte	0xe
	.uleb128 0
	.align	3
LEFDE286:
LSFDE288:
	.set L$set$756,LEFDE288-LASFDE288
	.long L$set$756
LASFDE288:
	.set L$set$757,Lframe0-Lsection__debug_frame
	.long L$set$757
	.quad	LFB13546
	.set L$set$758,LFE13546-LFB13546
	.quad L$set$758
	.byte	0x4
	.set L$set$759,LCFI323-LFB13546
	.long L$set$759
	.byte	0xe
	.uleb128 0x30
	.byte	0x9d
	.uleb128 0x6
	.byte	0x9e
	.uleb128 0x5
	.byte	0x4
	.set L$set$760,LCFI324-LCFI323
	.long L$set$760
	.byte	0x93
	.uleb128 0x4
	.byte	0x94
	.uleb128 0x3
	.byte	0x4
	.set L$set$761,LCFI325-LCFI324
	.long L$set$761
	.byte	0xde
	.byte	0xdd
	.byte	0xd3
	.byte	0xd4
	.byte	0xe
	.uleb128 0
	.align	3
LEFDE288:
LSFDE290:
	.set L$set$762,LEFDE290-LASFDE290
	.long L$set$762
LASFDE290:
	.set L$set$763,Lframe0-Lsection__debug_frame
	.long L$set$763
	.quad	LFB13545
	.set L$set$764,LFE13545-LFB13545
	.quad L$set$764
	.byte	0x4
	.set L$set$765,LCFI326-LFB13545
	.long L$set$765
	.byte	0xe
	.uleb128 0x40
	.byte	0x9d
	.uleb128 0x8
	.byte	0x9e
	.uleb128 0x7
	.byte	0x4
	.set L$set$766,LCFI327-LCFI326
	.long L$set$766
	.byte	0xde
	.byte	0xdd
	.byte	0xe
	.uleb128 0
	.align	3
LEFDE290:
LSFDE292:
	.set L$set$767,LEFDE292-LASFDE292
	.long L$set$767
LASFDE292:
	.set L$set$768,Lframe0-Lsection__debug_frame
	.long L$set$768
	.quad	LFB13551
	.set L$set$769,LFE13551-LFB13551
	.quad L$set$769
	.byte	0x4
	.set L$set$770,LCFI328-LFB13551
	.long L$set$770
	.byte	0xe
	.uleb128 0x10
	.byte	0x4
	.set L$set$771,LCFI329-LCFI328
	.long L$set$771
	.byte	0xe
	.uleb128 0
	.align	3
LEFDE292:
LSFDE294:
	.set L$set$772,LEFDE294-LASFDE294
	.long L$set$772
LASFDE294:
	.set L$set$773,Lframe0-Lsection__debug_frame
	.long L$set$773
	.quad	LFB13550
	.set L$set$774,LFE13550-LFB13550
	.quad L$set$774
	.byte	0x4
	.set L$set$775,LCFI330-LFB13550
	.long L$set$775
	.byte	0xe
	.uleb128 0x30
	.byte	0x9d
	.uleb128 0x6
	.byte	0x9e
	.uleb128 0x5
	.byte	0x4
	.set L$set$776,LCFI331-LCFI330
	.long L$set$776
	.byte	0xde
	.byte	0xdd
	.byte	0xe
	.uleb128 0
	.align	3
LEFDE294:
LSFDE296:
	.set L$set$777,LEFDE296-LASFDE296
	.long L$set$777
LASFDE296:
	.set L$set$778,Lframe0-Lsection__debug_frame
	.long L$set$778
	.quad	LFB13586
	.set L$set$779,LFE13586-LFB13586
	.quad L$set$779
	.byte	0x4
	.set L$set$780,LCFI332-LFB13586
	.long L$set$780
	.byte	0xe
	.uleb128 0x20
	.byte	0x9d
	.uleb128 0x4
	.byte	0x9e
	.uleb128 0x3
	.byte	0x4
	.set L$set$781,LCFI333-LCFI332
	.long L$set$781
	.byte	0xde
	.byte	0xdd
	.byte	0xe
	.uleb128 0
	.align	3
LEFDE296:
LSFDE298:
	.set L$set$782,LEFDE298-LASFDE298
	.long L$set$782
LASFDE298:
	.set L$set$783,Lframe0-Lsection__debug_frame
	.long L$set$783
	.quad	LFB13587
	.set L$set$784,LFE13587-LFB13587
	.quad L$set$784
	.byte	0x4
	.set L$set$785,LCFI334-LFB13587
	.long L$set$785
	.byte	0xe
	.uleb128 0x10
	.byte	0x4
	.set L$set$786,LCFI335-LCFI334
	.long L$set$786
	.byte	0xe
	.uleb128 0
	.align	3
LEFDE298:
LSFDE300:
	.set L$set$787,LEFDE300-LASFDE300
	.long L$set$787
LASFDE300:
	.set L$set$788,Lframe0-Lsection__debug_frame
	.long L$set$788
	.quad	LFB13588
	.set L$set$789,LFE13588-LFB13588
	.quad L$set$789
	.byte	0x4
	.set L$set$790,LCFI336-LFB13588
	.long L$set$790
	.byte	0xe
	.uleb128 0x50
	.byte	0x9d
	.uleb128 0xa
	.byte	0x9e
	.uleb128 0x9
	.byte	0x4
	.set L$set$791,LCFI337-LCFI336
	.long L$set$791
	.byte	0x93
	.uleb128 0x8
	.byte	0x4
	.set L$set$792,LCFI338-LCFI337
	.long L$set$792
	.byte	0xde
	.byte	0xdd
	.byte	0xd3
	.byte	0xe
	.uleb128 0
	.align	3
LEFDE300:
LSFDE302:
	.set L$set$793,LEFDE302-LASFDE302
	.long L$set$793
LASFDE302:
	.set L$set$794,Lframe0-Lsection__debug_frame
	.long L$set$794
	.quad	LFB13589
	.set L$set$795,LFE13589-LFB13589
	.quad L$set$795
	.byte	0x4
	.set L$set$796,LCFI339-LFB13589
	.long L$set$796
	.byte	0xe
	.uleb128 0x30
	.byte	0x9d
	.uleb128 0x6
	.byte	0x9e
	.uleb128 0x5
	.byte	0x4
	.set L$set$797,LCFI340-LCFI339
	.long L$set$797
	.byte	0x93
	.uleb128 0x4
	.byte	0x4
	.set L$set$798,LCFI341-LCFI340
	.long L$set$798
	.byte	0xde
	.byte	0xdd
	.byte	0xd3
	.byte	0xe
	.uleb128 0
	.align	3
LEFDE302:
LSFDE304:
	.set L$set$799,LEFDE304-LASFDE304
	.long L$set$799
LASFDE304:
	.set L$set$800,Lframe0-Lsection__debug_frame
	.long L$set$800
	.quad	LFB13590
	.set L$set$801,LFE13590-LFB13590
	.quad L$set$801
	.byte	0x4
	.set L$set$802,LCFI342-LFB13590
	.long L$set$802
	.byte	0xe
	.uleb128 0x20
	.byte	0x9d
	.uleb128 0x4
	.byte	0x9e
	.uleb128 0x3
	.byte	0x4
	.set L$set$803,LCFI343-LCFI342
	.long L$set$803
	.byte	0xde
	.byte	0xdd
	.byte	0xe
	.uleb128 0
	.align	3
LEFDE304:
LSFDE306:
	.set L$set$804,LEFDE306-LASFDE306
	.long L$set$804
LASFDE306:
	.set L$set$805,Lframe0-Lsection__debug_frame
	.long L$set$805
	.quad	LFB13591
	.set L$set$806,LFE13591-LFB13591
	.quad L$set$806
	.byte	0x4
	.set L$set$807,LCFI344-LFB13591
	.long L$set$807
	.byte	0xe
	.uleb128 0x30
	.byte	0x9d
	.uleb128 0x6
	.byte	0x9e
	.uleb128 0x5
	.byte	0x4
	.set L$set$808,LCFI345-LCFI344
	.long L$set$808
	.byte	0xde
	.byte	0xdd
	.byte	0xe
	.uleb128 0
	.align	3
LEFDE306:
LSFDE308:
	.set L$set$809,LEFDE308-LASFDE308
	.long L$set$809
LASFDE308:
	.set L$set$810,Lframe0-Lsection__debug_frame
	.long L$set$810
	.quad	LFB13593
	.set L$set$811,LFE13593-LFB13593
	.quad L$set$811
	.byte	0x4
	.set L$set$812,LCFI346-LFB13593
	.long L$set$812
	.byte	0xe
	.uleb128 0x30
	.byte	0x9d
	.uleb128 0x6
	.byte	0x9e
	.uleb128 0x5
	.byte	0x4
	.set L$set$813,LCFI347-LCFI346
	.long L$set$813
	.byte	0xde
	.byte	0xdd
	.byte	0xe
	.uleb128 0
	.align	3
LEFDE308:
LSFDE310:
	.set L$set$814,LEFDE310-LASFDE310
	.long L$set$814
LASFDE310:
	.set L$set$815,Lframe0-Lsection__debug_frame
	.long L$set$815
	.quad	LFB13602
	.set L$set$816,LFE13602-LFB13602
	.quad L$set$816
	.byte	0x4
	.set L$set$817,LCFI348-LFB13602
	.long L$set$817
	.byte	0xe
	.uleb128 0x20
	.byte	0x9d
	.uleb128 0x4
	.byte	0x9e
	.uleb128 0x3
	.byte	0x4
	.set L$set$818,LCFI349-LCFI348
	.long L$set$818
	.byte	0xde
	.byte	0xdd
	.byte	0xe
	.uleb128 0
	.align	3
LEFDE310:
LSFDE312:
	.set L$set$819,LEFDE312-LASFDE312
	.long L$set$819
LASFDE312:
	.set L$set$820,Lframe0-Lsection__debug_frame
	.long L$set$820
	.quad	LFB13603
	.set L$set$821,LFE13603-LFB13603
	.quad L$set$821
	.byte	0x4
	.set L$set$822,LCFI350-LFB13603
	.long L$set$822
	.byte	0xe
	.uleb128 0x20
	.byte	0x9d
	.uleb128 0x4
	.byte	0x9e
	.uleb128 0x3
	.byte	0x4
	.set L$set$823,LCFI351-LCFI350
	.long L$set$823
	.byte	0xde
	.byte	0xdd
	.byte	0xe
	.uleb128 0
	.align	3
LEFDE312:
LSFDE314:
	.set L$set$824,LEFDE314-LASFDE314
	.long L$set$824
LASFDE314:
	.set L$set$825,Lframe0-Lsection__debug_frame
	.long L$set$825
	.quad	LFB13605
	.set L$set$826,LFE13605-LFB13605
	.quad L$set$826
	.byte	0x4
	.set L$set$827,LCFI352-LFB13605
	.long L$set$827
	.byte	0xe
	.uleb128 0x10
	.byte	0x4
	.set L$set$828,LCFI353-LCFI352
	.long L$set$828
	.byte	0xe
	.uleb128 0
	.align	3
LEFDE314:
LSFDE316:
	.set L$set$829,LEFDE316-LASFDE316
	.long L$set$829
LASFDE316:
	.set L$set$830,Lframe0-Lsection__debug_frame
	.long L$set$830
	.quad	LFB13607
	.set L$set$831,LFE13607-LFB13607
	.quad L$set$831
	.byte	0x4
	.set L$set$832,LCFI354-LFB13607
	.long L$set$832
	.byte	0xe
	.uleb128 0x50
	.byte	0x9d
	.uleb128 0xa
	.byte	0x9e
	.uleb128 0x9
	.byte	0x4
	.set L$set$833,LCFI355-LCFI354
	.long L$set$833
	.byte	0xde
	.byte	0xdd
	.byte	0xe
	.uleb128 0
	.align	3
LEFDE316:
LSFDE318:
	.set L$set$834,LEFDE318-LASFDE318
	.long L$set$834
LASFDE318:
	.set L$set$835,Lframe0-Lsection__debug_frame
	.long L$set$835
	.quad	LFB13609
	.set L$set$836,LFE13609-LFB13609
	.quad L$set$836
	.byte	0x4
	.set L$set$837,LCFI356-LFB13609
	.long L$set$837
	.byte	0xe
	.uleb128 0x10
	.byte	0x4
	.set L$set$838,LCFI357-LCFI356
	.long L$set$838
	.byte	0xe
	.uleb128 0
	.align	3
LEFDE318:
LSFDE320:
	.set L$set$839,LEFDE320-LASFDE320
	.long L$set$839
LASFDE320:
	.set L$set$840,Lframe0-Lsection__debug_frame
	.long L$set$840
	.quad	LFB13608
	.set L$set$841,LFE13608-LFB13608
	.quad L$set$841
	.byte	0x4
	.set L$set$842,LCFI358-LFB13608
	.long L$set$842
	.byte	0xe
	.uleb128 0x30
	.byte	0x9d
	.uleb128 0x6
	.byte	0x9e
	.uleb128 0x5
	.byte	0x4
	.set L$set$843,LCFI359-LCFI358
	.long L$set$843
	.byte	0xde
	.byte	0xdd
	.byte	0xe
	.uleb128 0
	.align	3
LEFDE320:
LSFDE322:
	.set L$set$844,LEFDE322-LASFDE322
	.long L$set$844
LASFDE322:
	.set L$set$845,Lframe0-Lsection__debug_frame
	.long L$set$845
	.quad	LFB13610
	.set L$set$846,LFE13610-LFB13610
	.quad L$set$846
	.byte	0x4
	.set L$set$847,LCFI360-LFB13610
	.long L$set$847
	.byte	0xe
	.uleb128 0x30
	.byte	0x9d
	.uleb128 0x6
	.byte	0x9e
	.uleb128 0x5
	.byte	0x4
	.set L$set$848,LCFI361-LCFI360
	.long L$set$848
	.byte	0xde
	.byte	0xdd
	.byte	0xe
	.uleb128 0
	.align	3
LEFDE322:
LSFDE324:
	.set L$set$849,LEFDE324-LASFDE324
	.long L$set$849
LASFDE324:
	.set L$set$850,Lframe0-Lsection__debug_frame
	.long L$set$850
	.quad	LFB13611
	.set L$set$851,LFE13611-LFB13611
	.quad L$set$851
	.byte	0x4
	.set L$set$852,LCFI362-LFB13611
	.long L$set$852
	.byte	0xe
	.uleb128 0x40
	.byte	0x9d
	.uleb128 0x8
	.byte	0x9e
	.uleb128 0x7
	.byte	0x4
	.set L$set$853,LCFI363-LCFI362
	.long L$set$853
	.byte	0xde
	.byte	0xdd
	.byte	0xe
	.uleb128 0
	.align	3
LEFDE324:
LSFDE326:
	.set L$set$854,LEFDE326-LASFDE326
	.long L$set$854
LASFDE326:
	.set L$set$855,Lframe0-Lsection__debug_frame
	.long L$set$855
	.quad	LFB13613
	.set L$set$856,LFE13613-LFB13613
	.quad L$set$856
	.byte	0x4
	.set L$set$857,LCFI364-LFB13613
	.long L$set$857
	.byte	0xe
	.uleb128 0x20
	.byte	0x9d
	.uleb128 0x4
	.byte	0x9e
	.uleb128 0x3
	.byte	0x4
	.set L$set$858,LCFI365-LCFI364
	.long L$set$858
	.byte	0xde
	.byte	0xdd
	.byte	0xe
	.uleb128 0
	.align	3
LEFDE326:
LSFDE328:
	.set L$set$859,LEFDE328-LASFDE328
	.long L$set$859
LASFDE328:
	.set L$set$860,Lframe0-Lsection__debug_frame
	.long L$set$860
	.quad	LFB13616
	.set L$set$861,LFE13616-LFB13616
	.quad L$set$861
	.byte	0x4
	.set L$set$862,LCFI366-LFB13616
	.long L$set$862
	.byte	0xe
	.uleb128 0x30
	.byte	0x4
	.set L$set$863,LCFI367-LCFI366
	.long L$set$863
	.byte	0xe
	.uleb128 0
	.align	3
LEFDE328:
LSFDE330:
	.set L$set$864,LEFDE330-LASFDE330
	.long L$set$864
LASFDE330:
	.set L$set$865,Lframe0-Lsection__debug_frame
	.long L$set$865
	.quad	LFB13617
	.set L$set$866,LFE13617-LFB13617
	.quad L$set$866
	.byte	0x4
	.set L$set$867,LCFI368-LFB13617
	.long L$set$867
	.byte	0xe
	.uleb128 0x40
	.byte	0x9d
	.uleb128 0x8
	.byte	0x9e
	.uleb128 0x7
	.byte	0x4
	.set L$set$868,LCFI369-LCFI368
	.long L$set$868
	.byte	0xde
	.byte	0xdd
	.byte	0xe
	.uleb128 0
	.align	3
LEFDE330:
LSFDE332:
	.set L$set$869,LEFDE332-LASFDE332
	.long L$set$869
LASFDE332:
	.set L$set$870,Lframe0-Lsection__debug_frame
	.long L$set$870
	.quad	LFB13634
	.set L$set$871,LFE13634-LFB13634
	.quad L$set$871
	.byte	0x4
	.set L$set$872,LCFI370-LFB13634
	.long L$set$872
	.byte	0xe
	.uleb128 0x10
	.byte	0x4
	.set L$set$873,LCFI371-LCFI370
	.long L$set$873
	.byte	0xe
	.uleb128 0
	.align	3
LEFDE332:
LSFDE334:
	.set L$set$874,LEFDE334-LASFDE334
	.long L$set$874
LASFDE334:
	.set L$set$875,Lframe0-Lsection__debug_frame
	.long L$set$875
	.quad	LFB13635
	.set L$set$876,LFE13635-LFB13635
	.quad L$set$876
	.byte	0x4
	.set L$set$877,LCFI372-LFB13635
	.long L$set$877
	.byte	0xe
	.uleb128 0x10
	.byte	0x4
	.set L$set$878,LCFI373-LCFI372
	.long L$set$878
	.byte	0xe
	.uleb128 0
	.align	3
LEFDE334:
LSFDE336:
	.set L$set$879,LEFDE336-LASFDE336
	.long L$set$879
LASFDE336:
	.set L$set$880,Lframe0-Lsection__debug_frame
	.long L$set$880
	.quad	LFB13636
	.set L$set$881,LFE13636-LFB13636
	.quad L$set$881
	.byte	0x4
	.set L$set$882,LCFI374-LFB13636
	.long L$set$882
	.byte	0xe
	.uleb128 0x20
	.byte	0x9d
	.uleb128 0x4
	.byte	0x9e
	.uleb128 0x3
	.byte	0x4
	.set L$set$883,LCFI375-LCFI374
	.long L$set$883
	.byte	0xde
	.byte	0xdd
	.byte	0xe
	.uleb128 0
	.align	3
LEFDE336:
LSFDE338:
	.set L$set$884,LEFDE338-LASFDE338
	.long L$set$884
LASFDE338:
	.set L$set$885,Lframe0-Lsection__debug_frame
	.long L$set$885
	.quad	LFB13730
	.set L$set$886,LFE13730-LFB13730
	.quad L$set$886
	.byte	0x4
	.set L$set$887,LCFI376-LFB13730
	.long L$set$887
	.byte	0xe
	.uleb128 0x10
	.byte	0x4
	.set L$set$888,LCFI377-LCFI376
	.long L$set$888
	.byte	0xe
	.uleb128 0
	.align	3
LEFDE338:
LSFDE340:
	.set L$set$889,LEFDE340-LASFDE340
	.long L$set$889
LASFDE340:
	.set L$set$890,Lframe0-Lsection__debug_frame
	.long L$set$890
	.quad	LFB13731
	.set L$set$891,LFE13731-LFB13731
	.quad L$set$891
	.byte	0x4
	.set L$set$892,LCFI378-LFB13731
	.long L$set$892
	.byte	0xe
	.uleb128 0x20
	.byte	0x4
	.set L$set$893,LCFI379-LCFI378
	.long L$set$893
	.byte	0xe
	.uleb128 0
	.align	3
LEFDE340:
LSFDE342:
	.set L$set$894,LEFDE342-LASFDE342
	.long L$set$894
LASFDE342:
	.set L$set$895,Lframe0-Lsection__debug_frame
	.long L$set$895
	.quad	LFB13732
	.set L$set$896,LFE13732-LFB13732
	.quad L$set$896
	.byte	0x4
	.set L$set$897,LCFI380-LFB13732
	.long L$set$897
	.byte	0xe
	.uleb128 0x30
	.byte	0x9d
	.uleb128 0x6
	.byte	0x9e
	.uleb128 0x5
	.byte	0x4
	.set L$set$898,LCFI381-LCFI380
	.long L$set$898
	.byte	0xde
	.byte	0xdd
	.byte	0xe
	.uleb128 0
	.align	3
LEFDE342:
LSFDE344:
	.set L$set$899,LEFDE344-LASFDE344
	.long L$set$899
LASFDE344:
	.set L$set$900,Lframe0-Lsection__debug_frame
	.long L$set$900
	.quad	LFB13734
	.set L$set$901,LFE13734-LFB13734
	.quad L$set$901
	.byte	0x4
	.set L$set$902,LCFI382-LFB13734
	.long L$set$902
	.byte	0xe
	.uleb128 0x30
	.byte	0x9d
	.uleb128 0x6
	.byte	0x9e
	.uleb128 0x5
	.byte	0x4
	.set L$set$903,LCFI383-LCFI382
	.long L$set$903
	.byte	0xde
	.byte	0xdd
	.byte	0xe
	.uleb128 0
	.align	3
LEFDE344:
LSFDE346:
	.set L$set$904,LEFDE346-LASFDE346
	.long L$set$904
LASFDE346:
	.set L$set$905,Lframe0-Lsection__debug_frame
	.long L$set$905
	.quad	LFB13745
	.set L$set$906,LFE13745-LFB13745
	.quad L$set$906
	.byte	0x4
	.set L$set$907,LCFI384-LFB13745
	.long L$set$907
	.byte	0xe
	.uleb128 0x30
	.byte	0x9d
	.uleb128 0x6
	.byte	0x9e
	.uleb128 0x5
	.byte	0x4
	.set L$set$908,LCFI385-LCFI384
	.long L$set$908
	.byte	0xde
	.byte	0xdd
	.byte	0xe
	.uleb128 0
	.align	3
LEFDE346:
LSFDE348:
	.set L$set$909,LEFDE348-LASFDE348
	.long L$set$909
LASFDE348:
	.set L$set$910,Lframe0-Lsection__debug_frame
	.long L$set$910
	.quad	LFB13746
	.set L$set$911,LFE13746-LFB13746
	.quad L$set$911
	.byte	0x4
	.set L$set$912,LCFI386-LFB13746
	.long L$set$912
	.byte	0xe
	.uleb128 0x10
	.byte	0x4
	.set L$set$913,LCFI387-LCFI386
	.long L$set$913
	.byte	0xe
	.uleb128 0
	.align	3
LEFDE348:
LSFDE350:
	.set L$set$914,LEFDE350-LASFDE350
	.long L$set$914
LASFDE350:
	.set L$set$915,Lframe0-Lsection__debug_frame
	.long L$set$915
	.quad	LFB13747
	.set L$set$916,LFE13747-LFB13747
	.quad L$set$916
	.byte	0x4
	.set L$set$917,LCFI388-LFB13747
	.long L$set$917
	.byte	0xe
	.uleb128 0x20
	.byte	0x9d
	.uleb128 0x4
	.byte	0x9e
	.uleb128 0x3
	.byte	0x4
	.set L$set$918,LCFI389-LCFI388
	.long L$set$918
	.byte	0xde
	.byte	0xdd
	.byte	0xe
	.uleb128 0
	.align	3
LEFDE350:
LSFDE352:
	.set L$set$919,LEFDE352-LASFDE352
	.long L$set$919
LASFDE352:
	.set L$set$920,Lframe0-Lsection__debug_frame
	.long L$set$920
	.quad	LFB13748
	.set L$set$921,LFE13748-LFB13748
	.quad L$set$921
	.byte	0x4
	.set L$set$922,LCFI390-LFB13748
	.long L$set$922
	.byte	0xe
	.uleb128 0x20
	.byte	0x9d
	.uleb128 0x4
	.byte	0x9e
	.uleb128 0x3
	.byte	0x4
	.set L$set$923,LCFI391-LCFI390
	.long L$set$923
	.byte	0xde
	.byte	0xdd
	.byte	0xe
	.uleb128 0
	.align	3
LEFDE352:
LSFDE354:
	.set L$set$924,LEFDE354-LASFDE354
	.long L$set$924
LASFDE354:
	.set L$set$925,Lframe0-Lsection__debug_frame
	.long L$set$925
	.quad	LFB13749
	.set L$set$926,LFE13749-LFB13749
	.quad L$set$926
	.byte	0x4
	.set L$set$927,LCFI392-LFB13749
	.long L$set$927
	.byte	0xe
	.uleb128 0x10
	.byte	0x4
	.set L$set$928,LCFI393-LCFI392
	.long L$set$928
	.byte	0xe
	.uleb128 0
	.align	3
LEFDE354:
LSFDE356:
	.set L$set$929,LEFDE356-LASFDE356
	.long L$set$929
LASFDE356:
	.set L$set$930,Lframe0-Lsection__debug_frame
	.long L$set$930
	.quad	LFB13750
	.set L$set$931,LFE13750-LFB13750
	.quad L$set$931
	.byte	0x4
	.set L$set$932,LCFI394-LFB13750
	.long L$set$932
	.byte	0xe
	.uleb128 0x30
	.byte	0x9d
	.uleb128 0x6
	.byte	0x9e
	.uleb128 0x5
	.byte	0x4
	.set L$set$933,LCFI395-LCFI394
	.long L$set$933
	.byte	0xde
	.byte	0xdd
	.byte	0xe
	.uleb128 0
	.align	3
LEFDE356:
LSFDE358:
	.set L$set$934,LEFDE358-LASFDE358
	.long L$set$934
LASFDE358:
	.set L$set$935,Lframe0-Lsection__debug_frame
	.long L$set$935
	.quad	LFB13751
	.set L$set$936,LFE13751-LFB13751
	.quad L$set$936
	.byte	0x4
	.set L$set$937,LCFI396-LFB13751
	.long L$set$937
	.byte	0xe
	.uleb128 0x40
	.byte	0x9d
	.uleb128 0x8
	.byte	0x9e
	.uleb128 0x7
	.byte	0x4
	.set L$set$938,LCFI397-LCFI396
	.long L$set$938
	.byte	0xde
	.byte	0xdd
	.byte	0xe
	.uleb128 0
	.align	3
LEFDE358:
LSFDE360:
	.set L$set$939,LEFDE360-LASFDE360
	.long L$set$939
LASFDE360:
	.set L$set$940,Lframe0-Lsection__debug_frame
	.long L$set$940
	.quad	LFB13752
	.set L$set$941,LFE13752-LFB13752
	.quad L$set$941
	.byte	0x4
	.set L$set$942,LCFI398-LFB13752
	.long L$set$942
	.byte	0xe
	.uleb128 0x10
	.byte	0x4
	.set L$set$943,LCFI399-LCFI398
	.long L$set$943
	.byte	0xe
	.uleb128 0
	.align	3
LEFDE360:
LSFDE362:
	.set L$set$944,LEFDE362-LASFDE362
	.long L$set$944
LASFDE362:
	.set L$set$945,Lframe0-Lsection__debug_frame
	.long L$set$945
	.quad	LFB13755
	.set L$set$946,LFE13755-LFB13755
	.quad L$set$946
	.byte	0x4
	.set L$set$947,LCFI400-LFB13755
	.long L$set$947
	.byte	0xe
	.uleb128 0x10
	.byte	0x4
	.set L$set$948,LCFI401-LCFI400
	.long L$set$948
	.byte	0xe
	.uleb128 0
	.align	3
LEFDE362:
LSFDE364:
	.set L$set$949,LEFDE364-LASFDE364
	.long L$set$949
LASFDE364:
	.set L$set$950,Lframe0-Lsection__debug_frame
	.long L$set$950
	.quad	LFB13759
	.set L$set$951,LFE13759-LFB13759
	.quad L$set$951
	.byte	0x4
	.set L$set$952,LCFI402-LFB13759
	.long L$set$952
	.byte	0xe
	.uleb128 0x50
	.byte	0x9d
	.uleb128 0xa
	.byte	0x9e
	.uleb128 0x9
	.byte	0x4
	.set L$set$953,LCFI403-LCFI402
	.long L$set$953
	.byte	0x93
	.uleb128 0x8
	.byte	0x4
	.set L$set$954,LCFI404-LCFI403
	.long L$set$954
	.byte	0xde
	.byte	0xdd
	.byte	0xd3
	.byte	0xe
	.uleb128 0
	.align	3
LEFDE364:
LSFDE366:
	.set L$set$955,LEFDE366-LASFDE366
	.long L$set$955
LASFDE366:
	.set L$set$956,Lframe0-Lsection__debug_frame
	.long L$set$956
	.quad	LFB13760
	.set L$set$957,LFE13760-LFB13760
	.quad L$set$957
	.byte	0x4
	.set L$set$958,LCFI405-LFB13760
	.long L$set$958
	.byte	0xe
	.uleb128 0x20
	.byte	0x9d
	.uleb128 0x4
	.byte	0x9e
	.uleb128 0x3
	.byte	0x4
	.set L$set$959,LCFI406-LCFI405
	.long L$set$959
	.byte	0xde
	.byte	0xdd
	.byte	0xe
	.uleb128 0
	.align	3
LEFDE366:
LSFDE368:
	.set L$set$960,LEFDE368-LASFDE368
	.long L$set$960
LASFDE368:
	.set L$set$961,Lframe0-Lsection__debug_frame
	.long L$set$961
	.quad	LFB13761
	.set L$set$962,LFE13761-LFB13761
	.quad L$set$962
	.byte	0x4
	.set L$set$963,LCFI407-LFB13761
	.long L$set$963
	.byte	0xe
	.uleb128 0x10
	.byte	0x4
	.set L$set$964,LCFI408-LCFI407
	.long L$set$964
	.byte	0xe
	.uleb128 0
	.align	3
LEFDE368:
LSFDE370:
	.set L$set$965,LEFDE370-LASFDE370
	.long L$set$965
LASFDE370:
	.set L$set$966,Lframe0-Lsection__debug_frame
	.long L$set$966
	.quad	LFB13871
	.set L$set$967,LFE13871-LFB13871
	.quad L$set$967
	.byte	0x4
	.set L$set$968,LCFI409-LFB13871
	.long L$set$968
	.byte	0xe
	.uleb128 0x10
	.byte	0x4
	.set L$set$969,LCFI410-LCFI409
	.long L$set$969
	.byte	0xe
	.uleb128 0
	.align	3
LEFDE370:
LSFDE372:
	.set L$set$970,LEFDE372-LASFDE372
	.long L$set$970
LASFDE372:
	.set L$set$971,Lframe0-Lsection__debug_frame
	.long L$set$971
	.quad	LFB13870
	.set L$set$972,LFE13870-LFB13870
	.quad L$set$972
	.byte	0x4
	.set L$set$973,LCFI411-LFB13870
	.long L$set$973
	.byte	0xe
	.uleb128 0x30
	.byte	0x9d
	.uleb128 0x6
	.byte	0x9e
	.uleb128 0x5
	.byte	0x4
	.set L$set$974,LCFI412-LCFI411
	.long L$set$974
	.byte	0xde
	.byte	0xdd
	.byte	0xe
	.uleb128 0
	.align	3
LEFDE372:
LSFDE374:
	.set L$set$975,LEFDE374-LASFDE374
	.long L$set$975
LASFDE374:
	.set L$set$976,Lframe0-Lsection__debug_frame
	.long L$set$976
	.quad	LFB13872
	.set L$set$977,LFE13872-LFB13872
	.quad L$set$977
	.byte	0x4
	.set L$set$978,LCFI413-LFB13872
	.long L$set$978
	.byte	0xe
	.uleb128 0x10
	.byte	0x4
	.set L$set$979,LCFI414-LCFI413
	.long L$set$979
	.byte	0xe
	.uleb128 0
	.align	3
LEFDE374:
LSFDE376:
	.set L$set$980,LEFDE376-LASFDE376
	.long L$set$980
LASFDE376:
	.set L$set$981,Lframe0-Lsection__debug_frame
	.long L$set$981
	.quad	LFB13874
	.set L$set$982,LFE13874-LFB13874
	.quad L$set$982
	.byte	0x4
	.set L$set$983,LCFI415-LFB13874
	.long L$set$983
	.byte	0xe
	.uleb128 0x40
	.byte	0x9d
	.uleb128 0x8
	.byte	0x9e
	.uleb128 0x7
	.byte	0x4
	.set L$set$984,LCFI416-LCFI415
	.long L$set$984
	.byte	0x93
	.uleb128 0x6
	.byte	0x94
	.uleb128 0x5
	.byte	0x4
	.set L$set$985,LCFI417-LCFI416
	.long L$set$985
	.byte	0xde
	.byte	0xdd
	.byte	0xd3
	.byte	0xd4
	.byte	0xe
	.uleb128 0
	.align	3
LEFDE376:
LSFDE378:
	.set L$set$986,LEFDE378-LASFDE378
	.long L$set$986
LASFDE378:
	.set L$set$987,Lframe0-Lsection__debug_frame
	.long L$set$987
	.quad	LFB13875
	.set L$set$988,LFE13875-LFB13875
	.quad L$set$988
	.byte	0x4
	.set L$set$989,LCFI418-LFB13875
	.long L$set$989
	.byte	0xe
	.uleb128 0x30
	.byte	0x9d
	.uleb128 0x6
	.byte	0x9e
	.uleb128 0x5
	.byte	0x4
	.set L$set$990,LCFI419-LCFI418
	.long L$set$990
	.byte	0xde
	.byte	0xdd
	.byte	0xe
	.uleb128 0
	.align	3
LEFDE378:
LSFDE380:
	.set L$set$991,LEFDE380-LASFDE380
	.long L$set$991
LASFDE380:
	.set L$set$992,Lframe0-Lsection__debug_frame
	.long L$set$992
	.quad	LFB13877
	.set L$set$993,LFE13877-LFB13877
	.quad L$set$993
	.byte	0x4
	.set L$set$994,LCFI420-LFB13877
	.long L$set$994
	.byte	0xe
	.uleb128 0x10
	.byte	0x4
	.set L$set$995,LCFI421-LCFI420
	.long L$set$995
	.byte	0xe
	.uleb128 0
	.align	3
LEFDE380:
LSFDE382:
	.set L$set$996,LEFDE382-LASFDE382
	.long L$set$996
LASFDE382:
	.set L$set$997,Lframe0-Lsection__debug_frame
	.long L$set$997
	.quad	LFB13876
	.set L$set$998,LFE13876-LFB13876
	.quad L$set$998
	.byte	0x4
	.set L$set$999,LCFI422-LFB13876
	.long L$set$999
	.byte	0xe
	.uleb128 0x30
	.byte	0x9d
	.uleb128 0x6
	.byte	0x9e
	.uleb128 0x5
	.byte	0x4
	.set L$set$1000,LCFI423-LCFI422
	.long L$set$1000
	.byte	0xde
	.byte	0xdd
	.byte	0xe
	.uleb128 0
	.align	3
LEFDE382:
LSFDE384:
	.set L$set$1001,LEFDE384-LASFDE384
	.long L$set$1001
LASFDE384:
	.set L$set$1002,Lframe0-Lsection__debug_frame
	.long L$set$1002
	.quad	LFB13878
	.set L$set$1003,LFE13878-LFB13878
	.quad L$set$1003
	.byte	0x4
	.set L$set$1004,LCFI424-LFB13878
	.long L$set$1004
	.byte	0xe
	.uleb128 0x40
	.byte	0x9d
	.uleb128 0x8
	.byte	0x9e
	.uleb128 0x7
	.byte	0x4
	.set L$set$1005,LCFI425-LCFI424
	.long L$set$1005
	.byte	0x93
	.uleb128 0x6
	.byte	0x94
	.uleb128 0x5
	.byte	0x95
	.uleb128 0x4
	.byte	0x4
	.set L$set$1006,LCFI426-LCFI425
	.long L$set$1006
	.byte	0xde
	.byte	0xdd
	.byte	0xd5
	.byte	0xd3
	.byte	0xd4
	.byte	0xe
	.uleb128 0
	.align	3
LEFDE384:
LSFDE386:
	.set L$set$1007,LEFDE386-LASFDE386
	.long L$set$1007
LASFDE386:
	.set L$set$1008,Lframe0-Lsection__debug_frame
	.long L$set$1008
	.quad	LFB13879
	.set L$set$1009,LFE13879-LFB13879
	.quad L$set$1009
	.byte	0x4
	.set L$set$1010,LCFI427-LFB13879
	.long L$set$1010
	.byte	0xe
	.uleb128 0x20
	.byte	0x9d
	.uleb128 0x4
	.byte	0x9e
	.uleb128 0x3
	.byte	0x4
	.set L$set$1011,LCFI428-LCFI427
	.long L$set$1011
	.byte	0xde
	.byte	0xdd
	.byte	0xe
	.uleb128 0
	.align	3
LEFDE386:
LSFDE388:
	.set L$set$1012,LEFDE388-LASFDE388
	.long L$set$1012
LASFDE388:
	.set L$set$1013,Lframe0-Lsection__debug_frame
	.long L$set$1013
	.quad	LFB13944
	.set L$set$1014,LFE13944-LFB13944
	.quad L$set$1014
	.byte	0x4
	.set L$set$1015,LCFI429-LFB13944
	.long L$set$1015
	.byte	0xe
	.uleb128 0x10
	.byte	0x4
	.set L$set$1016,LCFI430-LCFI429
	.long L$set$1016
	.byte	0xe
	.uleb128 0
	.align	3
LEFDE388:
LSFDE390:
	.set L$set$1017,LEFDE390-LASFDE390
	.long L$set$1017
LASFDE390:
	.set L$set$1018,Lframe0-Lsection__debug_frame
	.long L$set$1018
	.quad	LFB13943
	.set L$set$1019,LFE13943-LFB13943
	.quad L$set$1019
	.byte	0x4
	.set L$set$1020,LCFI431-LFB13943
	.long L$set$1020
	.byte	0xe
	.uleb128 0x30
	.byte	0x9d
	.uleb128 0x6
	.byte	0x9e
	.uleb128 0x5
	.byte	0x4
	.set L$set$1021,LCFI432-LCFI431
	.long L$set$1021
	.byte	0xde
	.byte	0xdd
	.byte	0xe
	.uleb128 0
	.align	3
LEFDE390:
LSFDE392:
	.set L$set$1022,LEFDE392-LASFDE392
	.long L$set$1022
LASFDE392:
	.set L$set$1023,Lframe0-Lsection__debug_frame
	.long L$set$1023
	.quad	LFB13945
	.set L$set$1024,LFE13945-LFB13945
	.quad L$set$1024
	.byte	0x4
	.set L$set$1025,LCFI433-LFB13945
	.long L$set$1025
	.byte	0xe
	.uleb128 0x10
	.byte	0x4
	.set L$set$1026,LCFI434-LCFI433
	.long L$set$1026
	.byte	0xe
	.uleb128 0
	.align	3
LEFDE392:
LSFDE394:
	.set L$set$1027,LEFDE394-LASFDE394
	.long L$set$1027
LASFDE394:
	.set L$set$1028,Lframe0-Lsection__debug_frame
	.long L$set$1028
	.quad	LFB13946
	.set L$set$1029,LFE13946-LFB13946
	.quad L$set$1029
	.byte	0x4
	.set L$set$1030,LCFI435-LFB13946
	.long L$set$1030
	.byte	0xe
	.uleb128 0x40
	.byte	0x9d
	.uleb128 0x8
	.byte	0x9e
	.uleb128 0x7
	.byte	0x4
	.set L$set$1031,LCFI436-LCFI435
	.long L$set$1031
	.byte	0xde
	.byte	0xdd
	.byte	0xe
	.uleb128 0
	.align	3
LEFDE394:
LSFDE396:
	.set L$set$1032,LEFDE396-LASFDE396
	.long L$set$1032
LASFDE396:
	.set L$set$1033,Lframe0-Lsection__debug_frame
	.long L$set$1033
	.quad	LFB14037
	.set L$set$1034,LFE14037-LFB14037
	.quad L$set$1034
	.byte	0x4
	.set L$set$1035,LCFI437-LFB14037
	.long L$set$1035
	.byte	0xe
	.uleb128 0x20
	.byte	0x9d
	.uleb128 0x4
	.byte	0x9e
	.uleb128 0x3
	.byte	0x4
	.set L$set$1036,LCFI438-LCFI437
	.long L$set$1036
	.byte	0xde
	.byte	0xdd
	.byte	0xe
	.uleb128 0
	.align	3
LEFDE396:
LSFDE398:
	.set L$set$1037,LEFDE398-LASFDE398
	.long L$set$1037
LASFDE398:
	.set L$set$1038,Lframe0-Lsection__debug_frame
	.long L$set$1038
	.quad	LFB14060
	.set L$set$1039,LFE14060-LFB14060
	.quad L$set$1039
	.byte	0x4
	.set L$set$1040,LCFI439-LFB14060
	.long L$set$1040
	.byte	0xe
	.uleb128 0x10
	.byte	0x9d
	.uleb128 0x2
	.byte	0x9e
	.uleb128 0x1
	.byte	0x4
	.set L$set$1041,LCFI440-LCFI439
	.long L$set$1041
	.byte	0xde
	.byte	0xdd
	.byte	0xe
	.uleb128 0
	.align	3
LEFDE398:
	.section __TEXT,__eh_frame,coalesced,no_toc+strip_static_syms+live_support
EH_frame1:
	.set L$set$1042,LECIE1-LSCIE1
	.long L$set$1042
LSCIE1:
	.long	0
	.byte	0x1
	.ascii "zPLR\0"
	.uleb128 0x1
	.sleb128 -8
	.byte	0x1e
	.uleb128 0x7
	.byte	0x9b
	.long	___gxx_personality_v0@GOT-.
	.byte	0x10
	.byte	0x10
	.byte	0xc
	.uleb128 0x1f
	.uleb128 0
	.align	3
LECIE1:
LSFDE401:
	.set L$set$1043,LEFDE401-LASFDE401
	.long L$set$1043
LASFDE401:
	.long	LASFDE401-EH_frame1
	.quad	LFB300-.
	.set L$set$1044,LFE300-LFB300
	.quad L$set$1044
	.uleb128 0x8
	.quad	0
	.align	3
LEFDE401:
LSFDE403:
	.set L$set$1045,LEFDE403-LASFDE403
	.long L$set$1045
LASFDE403:
	.long	LASFDE403-EH_frame1
	.quad	LFB462-.
	.set L$set$1046,LFE462-LFB462
	.quad L$set$1046
	.uleb128 0x8
	.quad	0
	.byte	0x4
	.set L$set$1047,LCFI0-LFB462
	.long L$set$1047
	.byte	0xe
	.uleb128 0x10
	.byte	0x4
	.set L$set$1048,LCFI1-LCFI0
	.long L$set$1048
	.byte	0xe
	.uleb128 0
	.align	3
LEFDE403:
LSFDE405:
	.set L$set$1049,LEFDE405-LASFDE405
	.long L$set$1049
LASFDE405:
	.long	LASFDE405-EH_frame1
	.quad	LFB464-.
	.set L$set$1050,LFE464-LFB464
	.quad L$set$1050
	.uleb128 0x8
	.quad	0
	.byte	0x4
	.set L$set$1051,LCFI2-LFB464
	.long L$set$1051
	.byte	0xe
	.uleb128 0x10
	.byte	0x4
	.set L$set$1052,LCFI3-LCFI2
	.long L$set$1052
	.byte	0xe
	.uleb128 0
	.align	3
LEFDE405:
LSFDE407:
	.set L$set$1053,LEFDE407-LASFDE407
	.long L$set$1053
LASFDE407:
	.long	LASFDE407-EH_frame1
	.quad	LFB1271-.
	.set L$set$1054,LFE1271-LFB1271
	.quad L$set$1054
	.uleb128 0x8
	.quad	0
	.byte	0x4
	.set L$set$1055,LCFI4-LFB1271
	.long L$set$1055
	.byte	0xe
	.uleb128 0x10
	.byte	0x4
	.set L$set$1056,LCFI5-LCFI4
	.long L$set$1056
	.byte	0xe
	.uleb128 0
	.align	3
LEFDE407:
LSFDE409:
	.set L$set$1057,LEFDE409-LASFDE409
	.long L$set$1057
LASFDE409:
	.long	LASFDE409-EH_frame1
	.quad	LFB1276-.
	.set L$set$1058,LFE1276-LFB1276
	.quad L$set$1058
	.uleb128 0x8
	.quad	0
	.byte	0x4
	.set L$set$1059,LCFI6-LFB1276
	.long L$set$1059
	.byte	0xe
	.uleb128 0x30
	.byte	0x9d
	.uleb128 0x6
	.byte	0x9e
	.uleb128 0x5
	.byte	0x4
	.set L$set$1060,LCFI7-LCFI6
	.long L$set$1060
	.byte	0xde
	.byte	0xdd
	.byte	0xe
	.uleb128 0
	.align	3
LEFDE409:
LSFDE411:
	.set L$set$1061,LEFDE411-LASFDE411
	.long L$set$1061
LASFDE411:
	.long	LASFDE411-EH_frame1
	.quad	LFB1280-.
	.set L$set$1062,LFE1280-LFB1280
	.quad L$set$1062
	.uleb128 0x8
	.quad	0
	.byte	0x4
	.set L$set$1063,LCFI8-LFB1280
	.long L$set$1063
	.byte	0xe
	.uleb128 0x30
	.byte	0x9d
	.uleb128 0x6
	.byte	0x9e
	.uleb128 0x5
	.byte	0x4
	.set L$set$1064,LCFI9-LCFI8
	.long L$set$1064
	.byte	0xde
	.byte	0xdd
	.byte	0xe
	.uleb128 0
	.align	3
LEFDE411:
LSFDE413:
	.set L$set$1065,LEFDE413-LASFDE413
	.long L$set$1065
LASFDE413:
	.long	LASFDE413-EH_frame1
	.quad	LFB3914-.
	.set L$set$1066,LFE3914-LFB3914
	.quad L$set$1066
	.uleb128 0x8
	.quad	0
	.byte	0x4
	.set L$set$1067,LCFI10-LFB3914
	.long L$set$1067
	.byte	0xe
	.uleb128 0x10
	.byte	0x4
	.set L$set$1068,LCFI11-LCFI10
	.long L$set$1068
	.byte	0xe
	.uleb128 0
	.align	3
LEFDE413:
LSFDE415:
	.set L$set$1069,LEFDE415-LASFDE415
	.long L$set$1069
LASFDE415:
	.long	LASFDE415-EH_frame1
	.quad	LFB11590-.
	.set L$set$1070,LFE11590-LFB11590
	.quad L$set$1070
	.uleb128 0x8
	.quad	0
	.byte	0x4
	.set L$set$1071,LCFI12-LFB11590
	.long L$set$1071
	.byte	0xe
	.uleb128 0x20
	.byte	0x9d
	.uleb128 0x4
	.byte	0x9e
	.uleb128 0x3
	.byte	0x4
	.set L$set$1072,LCFI13-LCFI12
	.long L$set$1072
	.byte	0xde
	.byte	0xdd
	.byte	0xe
	.uleb128 0
	.align	3
LEFDE415:
LSFDE417:
	.set L$set$1073,LEFDE417-LASFDE417
	.long L$set$1073
LASFDE417:
	.long	LASFDE417-EH_frame1
	.quad	LFB11591-.
	.set L$set$1074,LFE11591-LFB11591
	.quad L$set$1074
	.uleb128 0x8
	.quad	0
	.byte	0x4
	.set L$set$1075,LCFI14-LFB11591
	.long L$set$1075
	.byte	0xe
	.uleb128 0x20
	.byte	0x9d
	.uleb128 0x4
	.byte	0x9e
	.uleb128 0x3
	.byte	0x4
	.set L$set$1076,LCFI15-LCFI14
	.long L$set$1076
	.byte	0xde
	.byte	0xdd
	.byte	0xe
	.uleb128 0
	.align	3
LEFDE417:
LSFDE419:
	.set L$set$1077,LEFDE419-LASFDE419
	.long L$set$1077
LASFDE419:
	.long	LASFDE419-EH_frame1
	.quad	LFB11594-.
	.set L$set$1078,LFE11594-LFB11594
	.quad L$set$1078
	.uleb128 0x8
	.quad	0
	.byte	0x4
	.set L$set$1079,LCFI16-LFB11594
	.long L$set$1079
	.byte	0xe
	.uleb128 0x20
	.byte	0x9d
	.uleb128 0x4
	.byte	0x9e
	.uleb128 0x3
	.byte	0x4
	.set L$set$1080,LCFI17-LCFI16
	.long L$set$1080
	.byte	0xde
	.byte	0xdd
	.byte	0xe
	.uleb128 0
	.align	3
LEFDE419:
LSFDE421:
	.set L$set$1081,LEFDE421-LASFDE421
	.long L$set$1081
LASFDE421:
	.long	LASFDE421-EH_frame1
	.quad	LFB11584-.
	.set L$set$1082,LFE11584-LFB11584
	.quad L$set$1082
	.uleb128 0x8
	.quad	LLSDA11584-.
	.byte	0x4
	.set L$set$1083,LCFI18-LFB11584
	.long L$set$1083
	.byte	0xe
	.uleb128 0x50
	.byte	0x9d
	.uleb128 0xa
	.byte	0x9e
	.uleb128 0x9
	.byte	0x4
	.set L$set$1084,LCFI19-LCFI18
	.long L$set$1084
	.byte	0x93
	.uleb128 0x8
	.byte	0x94
	.uleb128 0x7
	.byte	0x4
	.set L$set$1085,LCFI20-LCFI19
	.long L$set$1085
	.byte	0xde
	.byte	0xdd
	.byte	0xd3
	.byte	0xd4
	.byte	0xe
	.uleb128 0
	.align	3
LEFDE421:
LSFDE423:
	.set L$set$1086,LEFDE423-LASFDE423
	.long L$set$1086
LASFDE423:
	.long	LASFDE423-EH_frame1
	.quad	LFB11601-.
	.set L$set$1087,LFE11601-LFB11601
	.quad L$set$1087
	.uleb128 0x8
	.quad	LLSDA11601-.
	.byte	0x4
	.set L$set$1088,LCFI21-LFB11601
	.long L$set$1088
	.byte	0xe
	.uleb128 0x50
	.byte	0x9d
	.uleb128 0xa
	.byte	0x9e
	.uleb128 0x9
	.byte	0x4
	.set L$set$1089,LCFI22-LCFI21
	.long L$set$1089
	.byte	0x93
	.uleb128 0x8
	.byte	0x94
	.uleb128 0x7
	.byte	0x4
	.set L$set$1090,LCFI23-LCFI22
	.long L$set$1090
	.byte	0xde
	.byte	0xdd
	.byte	0xd3
	.byte	0xd4
	.byte	0xe
	.uleb128 0
	.align	3
LEFDE423:
LSFDE425:
	.set L$set$1091,LEFDE425-LASFDE425
	.long L$set$1091
LASFDE425:
	.long	LASFDE425-EH_frame1
	.quad	LFB11604-.
	.set L$set$1092,LFE11604-LFB11604
	.quad L$set$1092
	.uleb128 0x8
	.quad	LLSDA11604-.
	.byte	0x4
	.set L$set$1093,LCFI24-LFB11604
	.long L$set$1093
	.byte	0xe
	.uleb128 0x1c0
	.byte	0x9d
	.uleb128 0x38
	.byte	0x9e
	.uleb128 0x37
	.byte	0x4
	.set L$set$1094,LCFI25-LCFI24
	.long L$set$1094
	.byte	0x93
	.uleb128 0x36
	.byte	0x4
	.set L$set$1095,LCFI26-LCFI25
	.long L$set$1095
	.byte	0xde
	.byte	0xdd
	.byte	0xd3
	.byte	0xe
	.uleb128 0
	.align	3
LEFDE425:
LSFDE427:
	.set L$set$1096,LEFDE427-LASFDE427
	.long L$set$1096
LASFDE427:
	.long	LASFDE427-EH_frame1
	.quad	LFB11615-.
	.set L$set$1097,LFE11615-LFB11615
	.quad L$set$1097
	.uleb128 0x8
	.quad	0
	.byte	0x4
	.set L$set$1098,LCFI27-LFB11615
	.long L$set$1098
	.byte	0xe
	.uleb128 0x20
	.byte	0x9d
	.uleb128 0x4
	.byte	0x9e
	.uleb128 0x3
	.byte	0x4
	.set L$set$1099,LCFI28-LCFI27
	.long L$set$1099
	.byte	0xde
	.byte	0xdd
	.byte	0xe
	.uleb128 0
	.align	3
LEFDE427:
LSFDE429:
	.set L$set$1100,LEFDE429-LASFDE429
	.long L$set$1100
LASFDE429:
	.long	LASFDE429-EH_frame1
	.quad	LFB11616-.
	.set L$set$1101,LFE11616-LFB11616
	.quad L$set$1101
	.uleb128 0x8
	.quad	0
	.byte	0x4
	.set L$set$1102,LCFI29-LFB11616
	.long L$set$1102
	.byte	0xe
	.uleb128 0x20
	.byte	0x9d
	.uleb128 0x4
	.byte	0x9e
	.uleb128 0x3
	.byte	0x4
	.set L$set$1103,LCFI30-LCFI29
	.long L$set$1103
	.byte	0xde
	.byte	0xdd
	.byte	0xe
	.uleb128 0
	.align	3
LEFDE429:
LSFDE431:
	.set L$set$1104,LEFDE431-LASFDE431
	.long L$set$1104
LASFDE431:
	.long	LASFDE431-EH_frame1
	.quad	LFB11617-.
	.set L$set$1105,LFE11617-LFB11617
	.quad L$set$1105
	.uleb128 0x8
	.quad	0
	.byte	0x4
	.set L$set$1106,LCFI31-LFB11617
	.long L$set$1106
	.byte	0xe
	.uleb128 0x20
	.byte	0x9d
	.uleb128 0x4
	.byte	0x9e
	.uleb128 0x3
	.byte	0x4
	.set L$set$1107,LCFI32-LCFI31
	.long L$set$1107
	.byte	0xde
	.byte	0xdd
	.byte	0xe
	.uleb128 0
	.align	3
LEFDE431:
LSFDE433:
	.set L$set$1108,LEFDE433-LASFDE433
	.long L$set$1108
LASFDE433:
	.long	LASFDE433-EH_frame1
	.quad	LFB11619-.
	.set L$set$1109,LFE11619-LFB11619
	.quad L$set$1109
	.uleb128 0x8
	.quad	0
	.byte	0x4
	.set L$set$1110,LCFI33-LFB11619
	.long L$set$1110
	.byte	0xe
	.uleb128 0x10
	.byte	0x4
	.set L$set$1111,LCFI34-LCFI33
	.long L$set$1111
	.byte	0xe
	.uleb128 0
	.align	3
LEFDE433:
LSFDE435:
	.set L$set$1112,LEFDE435-LASFDE435
	.long L$set$1112
LASFDE435:
	.long	LASFDE435-EH_frame1
	.quad	LFB11620-.
	.set L$set$1113,LFE11620-LFB11620
	.quad L$set$1113
	.uleb128 0x8
	.quad	0
	.byte	0x4
	.set L$set$1114,LCFI35-LFB11620
	.long L$set$1114
	.byte	0xe
	.uleb128 0x30
	.byte	0x9d
	.uleb128 0x6
	.byte	0x9e
	.uleb128 0x5
	.byte	0x4
	.set L$set$1115,LCFI36-LCFI35
	.long L$set$1115
	.byte	0x93
	.uleb128 0x4
	.byte	0x4
	.set L$set$1116,LCFI37-LCFI36
	.long L$set$1116
	.byte	0xde
	.byte	0xdd
	.byte	0xd3
	.byte	0xe
	.uleb128 0
	.align	3
LEFDE435:
LSFDE437:
	.set L$set$1117,LEFDE437-LASFDE437
	.long L$set$1117
LASFDE437:
	.long	LASFDE437-EH_frame1
	.quad	LFB11621-.
	.set L$set$1118,LFE11621-LFB11621
	.quad L$set$1118
	.uleb128 0x8
	.quad	0
	.byte	0x4
	.set L$set$1119,LCFI38-LFB11621
	.long L$set$1119
	.byte	0xe
	.uleb128 0x10
	.byte	0x4
	.set L$set$1120,LCFI39-LCFI38
	.long L$set$1120
	.byte	0xe
	.uleb128 0
	.align	3
LEFDE437:
LSFDE439:
	.set L$set$1121,LEFDE439-LASFDE439
	.long L$set$1121
LASFDE439:
	.long	LASFDE439-EH_frame1
	.quad	LFB11622-.
	.set L$set$1122,LFE11622-LFB11622
	.quad L$set$1122
	.uleb128 0x8
	.quad	0
	.byte	0x4
	.set L$set$1123,LCFI40-LFB11622
	.long L$set$1123
	.byte	0xe
	.uleb128 0x10
	.byte	0x4
	.set L$set$1124,LCFI41-LCFI40
	.long L$set$1124
	.byte	0xe
	.uleb128 0
	.align	3
LEFDE439:
LSFDE441:
	.set L$set$1125,LEFDE441-LASFDE441
	.long L$set$1125
LASFDE441:
	.long	LASFDE441-EH_frame1
	.quad	LFB11618-.
	.set L$set$1126,LFE11618-LFB11618
	.quad L$set$1126
	.uleb128 0x8
	.quad	LLSDA11618-.
	.byte	0x4
	.set L$set$1127,LCFI42-LFB11618
	.long L$set$1127
	.byte	0xe
	.uleb128 0xa0
	.byte	0x9d
	.uleb128 0x14
	.byte	0x9e
	.uleb128 0x13
	.byte	0x4
	.set L$set$1128,LCFI43-LCFI42
	.long L$set$1128
	.byte	0x93
	.uleb128 0x12
	.byte	0x4
	.set L$set$1129,LCFI44-LCFI43
	.long L$set$1129
	.byte	0xde
	.byte	0xdd
	.byte	0xd3
	.byte	0xe
	.uleb128 0
	.align	3
LEFDE441:
LSFDE443:
	.set L$set$1130,LEFDE443-LASFDE443
	.long L$set$1130
LASFDE443:
	.long	LASFDE443-EH_frame1
	.quad	LFB11623-.
	.set L$set$1131,LFE11623-LFB11623
	.quad L$set$1131
	.uleb128 0x8
	.quad	0
	.byte	0x4
	.set L$set$1132,LCFI45-LFB11623
	.long L$set$1132
	.byte	0xe
	.uleb128 0x50
	.byte	0x9d
	.uleb128 0xa
	.byte	0x9e
	.uleb128 0x9
	.byte	0x4
	.set L$set$1133,LCFI46-LCFI45
	.long L$set$1133
	.byte	0x93
	.uleb128 0x8
	.byte	0x4
	.set L$set$1134,LCFI47-LCFI46
	.long L$set$1134
	.byte	0xde
	.byte	0xdd
	.byte	0xd3
	.byte	0xe
	.uleb128 0
	.align	3
LEFDE443:
LSFDE445:
	.set L$set$1135,LEFDE445-LASFDE445
	.long L$set$1135
LASFDE445:
	.long	LASFDE445-EH_frame1
	.quad	LFB11624-.
	.set L$set$1136,LFE11624-LFB11624
	.quad L$set$1136
	.uleb128 0x8
	.quad	0
	.byte	0x4
	.set L$set$1137,LCFI48-LFB11624
	.long L$set$1137
	.byte	0xe
	.uleb128 0x50
	.byte	0x9d
	.uleb128 0xa
	.byte	0x9e
	.uleb128 0x9
	.byte	0x4
	.set L$set$1138,LCFI49-LCFI48
	.long L$set$1138
	.byte	0x93
	.uleb128 0x8
	.byte	0x4
	.set L$set$1139,LCFI50-LCFI49
	.long L$set$1139
	.byte	0xde
	.byte	0xdd
	.byte	0xd3
	.byte	0xe
	.uleb128 0
	.align	3
LEFDE445:
LSFDE447:
	.set L$set$1140,LEFDE447-LASFDE447
	.long L$set$1140
LASFDE447:
	.long	LASFDE447-EH_frame1
	.quad	LFB11625-.
	.set L$set$1141,LFE11625-LFB11625
	.quad L$set$1141
	.uleb128 0x8
	.quad	0
	.byte	0x4
	.set L$set$1142,LCFI51-LFB11625
	.long L$set$1142
	.byte	0xe
	.uleb128 0x30
	.byte	0x9d
	.uleb128 0x6
	.byte	0x9e
	.uleb128 0x5
	.byte	0x4
	.set L$set$1143,LCFI52-LCFI51
	.long L$set$1143
	.byte	0xde
	.byte	0xdd
	.byte	0xe
	.uleb128 0
	.align	3
LEFDE447:
LSFDE449:
	.set L$set$1144,LEFDE449-LASFDE449
	.long L$set$1144
LASFDE449:
	.long	LASFDE449-EH_frame1
	.quad	LFB11626-.
	.set L$set$1145,LFE11626-LFB11626
	.quad L$set$1145
	.uleb128 0x8
	.quad	0
	.byte	0x4
	.set L$set$1146,LCFI53-LFB11626
	.long L$set$1146
	.byte	0xe
	.uleb128 0x40
	.byte	0x9d
	.uleb128 0x8
	.byte	0x9e
	.uleb128 0x7
	.byte	0x4
	.set L$set$1147,LCFI54-LCFI53
	.long L$set$1147
	.byte	0xde
	.byte	0xdd
	.byte	0xe
	.uleb128 0
	.align	3
LEFDE449:
LSFDE451:
	.set L$set$1148,LEFDE451-LASFDE451
	.long L$set$1148
LASFDE451:
	.long	LASFDE451-EH_frame1
	.quad	LFB11627-.
	.set L$set$1149,LFE11627-LFB11627
	.quad L$set$1149
	.uleb128 0x8
	.quad	0
	.byte	0x4
	.set L$set$1150,LCFI55-LFB11627
	.long L$set$1150
	.byte	0xe
	.uleb128 0x30
	.byte	0x9d
	.uleb128 0x6
	.byte	0x9e
	.uleb128 0x5
	.byte	0x4
	.set L$set$1151,LCFI56-LCFI55
	.long L$set$1151
	.byte	0xde
	.byte	0xdd
	.byte	0xe
	.uleb128 0
	.align	3
LEFDE451:
LSFDE453:
	.set L$set$1152,LEFDE453-LASFDE453
	.long L$set$1152
LASFDE453:
	.long	LASFDE453-EH_frame1
	.quad	LFB11628-.
	.set L$set$1153,LFE11628-LFB11628
	.quad L$set$1153
	.uleb128 0x8
	.quad	0
	.byte	0x4
	.set L$set$1154,LCFI57-LFB11628
	.long L$set$1154
	.byte	0xe
	.uleb128 0x30
	.byte	0x9d
	.uleb128 0x6
	.byte	0x9e
	.uleb128 0x5
	.byte	0x4
	.set L$set$1155,LCFI58-LCFI57
	.long L$set$1155
	.byte	0xde
	.byte	0xdd
	.byte	0xe
	.uleb128 0
	.align	3
LEFDE453:
LSFDE455:
	.set L$set$1156,LEFDE455-LASFDE455
	.long L$set$1156
LASFDE455:
	.long	LASFDE455-EH_frame1
	.quad	LFB11629-.
	.set L$set$1157,LFE11629-LFB11629
	.quad L$set$1157
	.uleb128 0x8
	.quad	0
	.byte	0x4
	.set L$set$1158,LCFI59-LFB11629
	.long L$set$1158
	.byte	0xe
	.uleb128 0x50
	.byte	0x9d
	.uleb128 0xa
	.byte	0x9e
	.uleb128 0x9
	.byte	0x4
	.set L$set$1159,LCFI60-LCFI59
	.long L$set$1159
	.byte	0x5
	.uleb128 0x48
	.uleb128 0x8
	.byte	0x4
	.set L$set$1160,LCFI61-LCFI60
	.long L$set$1160
	.byte	0xde
	.byte	0xdd
	.byte	0x6
	.uleb128 0x48
	.byte	0xe
	.uleb128 0
	.align	3
LEFDE455:
LSFDE457:
	.set L$set$1161,LEFDE457-LASFDE457
	.long L$set$1161
LASFDE457:
	.long	LASFDE457-EH_frame1
	.quad	LFB11630-.
	.set L$set$1162,LFE11630-LFB11630
	.quad L$set$1162
	.uleb128 0x8
	.quad	0
	.byte	0x4
	.set L$set$1163,LCFI62-LFB11630
	.long L$set$1163
	.byte	0xe
	.uleb128 0x60
	.byte	0x9d
	.uleb128 0xc
	.byte	0x9e
	.uleb128 0xb
	.byte	0x4
	.set L$set$1164,LCFI63-LCFI62
	.long L$set$1164
	.byte	0xde
	.byte	0xdd
	.byte	0xe
	.uleb128 0
	.align	3
LEFDE457:
LSFDE459:
	.set L$set$1165,LEFDE459-LASFDE459
	.long L$set$1165
LASFDE459:
	.long	LASFDE459-EH_frame1
	.quad	LFB11631-.
	.set L$set$1166,LFE11631-LFB11631
	.quad L$set$1166
	.uleb128 0x8
	.quad	0
	.byte	0x4
	.set L$set$1167,LCFI64-LFB11631
	.long L$set$1167
	.byte	0xe
	.uleb128 0x40
	.byte	0x9d
	.uleb128 0x8
	.byte	0x9e
	.uleb128 0x7
	.byte	0x4
	.set L$set$1168,LCFI65-LCFI64
	.long L$set$1168
	.byte	0xde
	.byte	0xdd
	.byte	0xe
	.uleb128 0
	.align	3
LEFDE459:
LSFDE461:
	.set L$set$1169,LEFDE461-LASFDE461
	.long L$set$1169
LASFDE461:
	.long	LASFDE461-EH_frame1
	.quad	LFB11634-.
	.set L$set$1170,LFE11634-LFB11634
	.quad L$set$1170
	.uleb128 0x8
	.quad	LLSDA11634-.
	.byte	0x4
	.set L$set$1171,LCFI66-LFB11634
	.long L$set$1171
	.byte	0xe
	.uleb128 0x1c0
	.byte	0x9d
	.uleb128 0x38
	.byte	0x9e
	.uleb128 0x37
	.byte	0x4
	.set L$set$1172,LCFI67-LCFI66
	.long L$set$1172
	.byte	0x93
	.uleb128 0x36
	.byte	0x4
	.set L$set$1173,LCFI68-LCFI67
	.long L$set$1173
	.byte	0xde
	.byte	0xdd
	.byte	0xd3
	.byte	0xe
	.uleb128 0
	.align	3
LEFDE461:
LSFDE463:
	.set L$set$1174,LEFDE463-LASFDE463
	.long L$set$1174
LASFDE463:
	.long	LASFDE463-EH_frame1
	.quad	LFB11635-.
	.set L$set$1175,LFE11635-LFB11635
	.quad L$set$1175
	.uleb128 0x8
	.quad	0
	.byte	0x4
	.set L$set$1176,LCFI69-LFB11635
	.long L$set$1176
	.byte	0xe
	.uleb128 0x10
	.byte	0x4
	.set L$set$1177,LCFI70-LCFI69
	.long L$set$1177
	.byte	0xe
	.uleb128 0
	.align	3
LEFDE463:
LSFDE465:
	.set L$set$1178,LEFDE465-LASFDE465
	.long L$set$1178
LASFDE465:
	.long	LASFDE465-EH_frame1
	.quad	LFB11636-.
	.set L$set$1179,LFE11636-LFB11636
	.quad L$set$1179
	.uleb128 0x8
	.quad	0
	.byte	0x4
	.set L$set$1180,LCFI71-LFB11636
	.long L$set$1180
	.byte	0xe
	.uleb128 0x10
	.byte	0x4
	.set L$set$1181,LCFI72-LCFI71
	.long L$set$1181
	.byte	0xe
	.uleb128 0
	.align	3
LEFDE465:
LSFDE467:
	.set L$set$1182,LEFDE467-LASFDE467
	.long L$set$1182
LASFDE467:
	.long	LASFDE467-EH_frame1
	.quad	LFB11637-.
	.set L$set$1183,LFE11637-LFB11637
	.quad L$set$1183
	.uleb128 0x8
	.quad	0
	.byte	0x4
	.set L$set$1184,LCFI73-LFB11637
	.long L$set$1184
	.byte	0xe
	.uleb128 0x10
	.byte	0x4
	.set L$set$1185,LCFI74-LCFI73
	.long L$set$1185
	.byte	0xe
	.uleb128 0
	.align	3
LEFDE467:
LSFDE469:
	.set L$set$1186,LEFDE469-LASFDE469
	.long L$set$1186
LASFDE469:
	.long	LASFDE469-EH_frame1
	.quad	LFB11633-.
	.set L$set$1187,LFE11633-LFB11633
	.quad L$set$1187
	.uleb128 0x8
	.quad	LLSDA11633-.
	.byte	0x4
	.set L$set$1188,LCFI75-LFB11633
	.long L$set$1188
	.byte	0xe
	.uleb128 0xd0
	.byte	0x9d
	.uleb128 0x1a
	.byte	0x9e
	.uleb128 0x19
	.byte	0x4
	.set L$set$1189,LCFI76-LCFI75
	.long L$set$1189
	.byte	0x93
	.uleb128 0x18
	.byte	0x94
	.uleb128 0x17
	.byte	0x95
	.uleb128 0x16
	.byte	0x4
	.set L$set$1190,LCFI77-LCFI76
	.long L$set$1190
	.byte	0xde
	.byte	0xdd
	.byte	0xd5
	.byte	0xd3
	.byte	0xd4
	.byte	0xe
	.uleb128 0
	.align	3
LEFDE469:
LSFDE471:
	.set L$set$1191,LEFDE471-LASFDE471
	.long L$set$1191
LASFDE471:
	.long	LASFDE471-EH_frame1
	.quad	LFB11639-.
	.set L$set$1192,LFE11639-LFB11639
	.quad L$set$1192
	.uleb128 0x8
	.quad	LLSDA11639-.
	.byte	0x4
	.set L$set$1193,LCFI78-LFB11639
	.long L$set$1193
	.byte	0xe
	.uleb128 0x1c0
	.byte	0x9d
	.uleb128 0x38
	.byte	0x9e
	.uleb128 0x37
	.byte	0x4
	.set L$set$1194,LCFI79-LCFI78
	.long L$set$1194
	.byte	0x93
	.uleb128 0x36
	.byte	0x4
	.set L$set$1195,LCFI80-LCFI79
	.long L$set$1195
	.byte	0xde
	.byte	0xdd
	.byte	0xd3
	.byte	0xe
	.uleb128 0
	.align	3
LEFDE471:
LSFDE473:
	.set L$set$1196,LEFDE473-LASFDE473
	.long L$set$1196
LASFDE473:
	.long	LASFDE473-EH_frame1
	.quad	LFB11638-.
	.set L$set$1197,LFE11638-LFB11638
	.quad L$set$1197
	.uleb128 0x8
	.quad	LLSDA11638-.
	.byte	0x4
	.set L$set$1198,LCFI81-LFB11638
	.long L$set$1198
	.byte	0xe
	.uleb128 0xd0
	.byte	0x9d
	.uleb128 0x1a
	.byte	0x9e
	.uleb128 0x19
	.byte	0x4
	.set L$set$1199,LCFI82-LCFI81
	.long L$set$1199
	.byte	0x93
	.uleb128 0x18
	.byte	0x94
	.uleb128 0x17
	.byte	0x95
	.uleb128 0x16
	.byte	0x4
	.set L$set$1200,LCFI83-LCFI82
	.long L$set$1200
	.byte	0xde
	.byte	0xdd
	.byte	0xd5
	.byte	0xd3
	.byte	0xd4
	.byte	0xe
	.uleb128 0
	.align	3
LEFDE473:
LSFDE475:
	.set L$set$1201,LEFDE475-LASFDE475
	.long L$set$1201
LASFDE475:
	.long	LASFDE475-EH_frame1
	.quad	LFB11632-.
	.set L$set$1202,LFE11632-LFB11632
	.quad L$set$1202
	.uleb128 0x8
	.quad	LLSDA11632-.
	.byte	0x4
	.set L$set$1203,LCFI84-LFB11632
	.long L$set$1203
	.byte	0xe
	.uleb128 0x60
	.byte	0x9d
	.uleb128 0xc
	.byte	0x9e
	.uleb128 0xb
	.byte	0x4
	.set L$set$1204,LCFI85-LCFI84
	.long L$set$1204
	.byte	0x93
	.uleb128 0xa
	.byte	0x4
	.set L$set$1205,LCFI86-LCFI85
	.long L$set$1205
	.byte	0xde
	.byte	0xdd
	.byte	0xd3
	.byte	0xe
	.uleb128 0
	.align	3
LEFDE475:
LSFDE477:
	.set L$set$1206,LEFDE477-LASFDE477
	.long L$set$1206
LASFDE477:
	.long	LASFDE477-EH_frame1
	.quad	LFB11689-.
	.set L$set$1207,LFE11689-LFB11689
	.quad L$set$1207
	.uleb128 0x8
	.quad	0
	.byte	0x4
	.set L$set$1208,LCFI87-LFB11689
	.long L$set$1208
	.byte	0xe
	.uleb128 0x10
	.byte	0x4
	.set L$set$1209,LCFI88-LCFI87
	.long L$set$1209
	.byte	0xe
	.uleb128 0
	.align	3
LEFDE477:
LSFDE479:
	.set L$set$1210,LEFDE479-LASFDE479
	.long L$set$1210
LASFDE479:
	.long	LASFDE479-EH_frame1
	.quad	LFB11688-.
	.set L$set$1211,LFE11688-LFB11688
	.quad L$set$1211
	.uleb128 0x8
	.quad	0
	.byte	0x4
	.set L$set$1212,LCFI89-LFB11688
	.long L$set$1212
	.byte	0xe
	.uleb128 0x30
	.byte	0x9d
	.uleb128 0x6
	.byte	0x9e
	.uleb128 0x5
	.byte	0x4
	.set L$set$1213,LCFI90-LCFI89
	.long L$set$1213
	.byte	0xde
	.byte	0xdd
	.byte	0xe
	.uleb128 0
	.align	3
LEFDE479:
LSFDE481:
	.set L$set$1214,LEFDE481-LASFDE481
	.long L$set$1214
LASFDE481:
	.long	LASFDE481-EH_frame1
	.quad	LFB11693-.
	.set L$set$1215,LFE11693-LFB11693
	.quad L$set$1215
	.uleb128 0x8
	.quad	0
	.byte	0x4
	.set L$set$1216,LCFI91-LFB11693
	.long L$set$1216
	.byte	0xe
	.uleb128 0x40
	.byte	0x9d
	.uleb128 0x8
	.byte	0x9e
	.uleb128 0x7
	.byte	0x4
	.set L$set$1217,LCFI92-LCFI91
	.long L$set$1217
	.byte	0x93
	.uleb128 0x6
	.byte	0x4
	.set L$set$1218,LCFI93-LCFI92
	.long L$set$1218
	.byte	0xde
	.byte	0xdd
	.byte	0xd3
	.byte	0xe
	.uleb128 0
	.align	3
LEFDE481:
LSFDE483:
	.set L$set$1219,LEFDE483-LASFDE483
	.long L$set$1219
LASFDE483:
	.long	LASFDE483-EH_frame1
	.quad	LFB11694-.
	.set L$set$1220,LFE11694-LFB11694
	.quad L$set$1220
	.uleb128 0x8
	.quad	0
	.byte	0x4
	.set L$set$1221,LCFI94-LFB11694
	.long L$set$1221
	.byte	0xe
	.uleb128 0x30
	.byte	0x9d
	.uleb128 0x6
	.byte	0x9e
	.uleb128 0x5
	.byte	0x4
	.set L$set$1222,LCFI95-LCFI94
	.long L$set$1222
	.byte	0xde
	.byte	0xdd
	.byte	0xe
	.uleb128 0
	.align	3
LEFDE483:
LSFDE485:
	.set L$set$1223,LEFDE485-LASFDE485
	.long L$set$1223
LASFDE485:
	.long	LASFDE485-EH_frame1
	.quad	LFB11833-.
	.set L$set$1224,LFE11833-LFB11833
	.quad L$set$1224
	.uleb128 0x8
	.quad	0
	.byte	0x4
	.set L$set$1225,LCFI96-LFB11833
	.long L$set$1225
	.byte	0xe
	.uleb128 0x20
	.byte	0x9d
	.uleb128 0x4
	.byte	0x9e
	.uleb128 0x3
	.byte	0x4
	.set L$set$1226,LCFI97-LCFI96
	.long L$set$1226
	.byte	0xde
	.byte	0xdd
	.byte	0xe
	.uleb128 0
	.align	3
LEFDE485:
LSFDE487:
	.set L$set$1227,LEFDE487-LASFDE487
	.long L$set$1227
LASFDE487:
	.long	LASFDE487-EH_frame1
	.quad	LFB11838-.
	.set L$set$1228,LFE11838-LFB11838
	.quad L$set$1228
	.uleb128 0x8
	.quad	LLSDA11838-.
	.byte	0x4
	.set L$set$1229,LCFI98-LFB11838
	.long L$set$1229
	.byte	0xe
	.uleb128 0x20
	.byte	0x9d
	.uleb128 0x4
	.byte	0x9e
	.uleb128 0x3
	.byte	0x4
	.set L$set$1230,LCFI99-LCFI98
	.long L$set$1230
	.byte	0xde
	.byte	0xdd
	.byte	0xe
	.uleb128 0
	.align	3
LEFDE487:
LSFDE489:
	.set L$set$1231,LEFDE489-LASFDE489
	.long L$set$1231
LASFDE489:
	.long	LASFDE489-EH_frame1
	.quad	LFB11844-.
	.set L$set$1232,LFE11844-LFB11844
	.quad L$set$1232
	.uleb128 0x8
	.quad	0
	.byte	0x4
	.set L$set$1233,LCFI100-LFB11844
	.long L$set$1233
	.byte	0xe
	.uleb128 0x10
	.byte	0x4
	.set L$set$1234,LCFI101-LCFI100
	.long L$set$1234
	.byte	0xe
	.uleb128 0
	.align	3
LEFDE489:
LSFDE491:
	.set L$set$1235,LEFDE491-LASFDE491
	.long L$set$1235
LASFDE491:
	.long	LASFDE491-EH_frame1
	.quad	LFB11929-.
	.set L$set$1236,LFE11929-LFB11929
	.quad L$set$1236
	.uleb128 0x8
	.quad	0
	.byte	0x4
	.set L$set$1237,LCFI102-LFB11929
	.long L$set$1237
	.byte	0xe
	.uleb128 0x10
	.byte	0x4
	.set L$set$1238,LCFI103-LCFI102
	.long L$set$1238
	.byte	0xe
	.uleb128 0
	.align	3
LEFDE491:
LSFDE493:
	.set L$set$1239,LEFDE493-LASFDE493
	.long L$set$1239
LASFDE493:
	.long	LASFDE493-EH_frame1
	.quad	LFB12000-.
	.set L$set$1240,LFE12000-LFB12000
	.quad L$set$1240
	.uleb128 0x8
	.quad	0
	.byte	0x4
	.set L$set$1241,LCFI104-LFB12000
	.long L$set$1241
	.byte	0xe
	.uleb128 0x10
	.byte	0x4
	.set L$set$1242,LCFI105-LCFI104
	.long L$set$1242
	.byte	0xe
	.uleb128 0
	.align	3
LEFDE493:
LSFDE495:
	.set L$set$1243,LEFDE495-LASFDE495
	.long L$set$1243
LASFDE495:
	.long	LASFDE495-EH_frame1
	.quad	LFB12005-.
	.set L$set$1244,LFE12005-LFB12005
	.quad L$set$1244
	.uleb128 0x8
	.quad	0
	.byte	0x4
	.set L$set$1245,LCFI106-LFB12005
	.long L$set$1245
	.byte	0xe
	.uleb128 0x10
	.byte	0x4
	.set L$set$1246,LCFI107-LCFI106
	.long L$set$1246
	.byte	0xe
	.uleb128 0
	.align	3
LEFDE495:
LSFDE497:
	.set L$set$1247,LEFDE497-LASFDE497
	.long L$set$1247
LASFDE497:
	.long	LASFDE497-EH_frame1
	.quad	LFB12437-.
	.set L$set$1248,LFE12437-LFB12437
	.quad L$set$1248
	.uleb128 0x8
	.quad	0
	.byte	0x4
	.set L$set$1249,LCFI108-LFB12437
	.long L$set$1249
	.byte	0xe
	.uleb128 0x40
	.byte	0x9d
	.uleb128 0x8
	.byte	0x9e
	.uleb128 0x7
	.byte	0x4
	.set L$set$1250,LCFI109-LCFI108
	.long L$set$1250
	.byte	0x93
	.uleb128 0x6
	.byte	0x94
	.uleb128 0x5
	.byte	0x4
	.set L$set$1251,LCFI110-LCFI109
	.long L$set$1251
	.byte	0xde
	.byte	0xdd
	.byte	0xd3
	.byte	0xd4
	.byte	0xe
	.uleb128 0
	.align	3
LEFDE497:
LSFDE499:
	.set L$set$1252,LEFDE499-LASFDE499
	.long L$set$1252
LASFDE499:
	.long	LASFDE499-EH_frame1
	.quad	LFB12450-.
	.set L$set$1253,LFE12450-LFB12450
	.quad L$set$1253
	.uleb128 0x8
	.quad	LLSDA12450-.
	.byte	0x4
	.set L$set$1254,LCFI111-LFB12450
	.long L$set$1254
	.byte	0xe
	.uleb128 0x40
	.byte	0x9d
	.uleb128 0x8
	.byte	0x9e
	.uleb128 0x7
	.byte	0x4
	.set L$set$1255,LCFI112-LCFI111
	.long L$set$1255
	.byte	0x93
	.uleb128 0x6
	.byte	0x94
	.uleb128 0x5
	.byte	0x4
	.set L$set$1256,LCFI113-LCFI112
	.long L$set$1256
	.byte	0xde
	.byte	0xdd
	.byte	0xd3
	.byte	0xd4
	.byte	0xe
	.uleb128 0
	.align	3
LEFDE499:
LSFDE501:
	.set L$set$1257,LEFDE501-LASFDE501
	.long L$set$1257
LASFDE501:
	.long	LASFDE501-EH_frame1
	.quad	LFB12460-.
	.set L$set$1258,LFE12460-LFB12460
	.quad L$set$1258
	.uleb128 0x8
	.quad	0
	.byte	0x4
	.set L$set$1259,LCFI114-LFB12460
	.long L$set$1259
	.byte	0xe
	.uleb128 0x10
	.byte	0x4
	.set L$set$1260,LCFI115-LCFI114
	.long L$set$1260
	.byte	0xe
	.uleb128 0
	.align	3
LEFDE501:
LSFDE503:
	.set L$set$1261,LEFDE503-LASFDE503
	.long L$set$1261
LASFDE503:
	.long	LASFDE503-EH_frame1
	.quad	LFB12467-.
	.set L$set$1262,LFE12467-LFB12467
	.quad L$set$1262
	.uleb128 0x8
	.quad	0
	.byte	0x4
	.set L$set$1263,LCFI116-LFB12467
	.long L$set$1263
	.byte	0xe
	.uleb128 0x10
	.byte	0x4
	.set L$set$1264,LCFI117-LCFI116
	.long L$set$1264
	.byte	0xe
	.uleb128 0
	.align	3
LEFDE503:
LSFDE505:
	.set L$set$1265,LEFDE505-LASFDE505
	.long L$set$1265
LASFDE505:
	.long	LASFDE505-EH_frame1
	.quad	LFB12520-.
	.set L$set$1266,LFE12520-LFB12520
	.quad L$set$1266
	.uleb128 0x8
	.quad	0
	.byte	0x4
	.set L$set$1267,LCFI118-LFB12520
	.long L$set$1267
	.byte	0xe
	.uleb128 0x20
	.byte	0x9d
	.uleb128 0x4
	.byte	0x9e
	.uleb128 0x3
	.byte	0x4
	.set L$set$1268,LCFI119-LCFI118
	.long L$set$1268
	.byte	0xde
	.byte	0xdd
	.byte	0xe
	.uleb128 0
	.align	3
LEFDE505:
LSFDE507:
	.set L$set$1269,LEFDE507-LASFDE507
	.long L$set$1269
LASFDE507:
	.long	LASFDE507-EH_frame1
	.quad	LFB12522-.
	.set L$set$1270,LFE12522-LFB12522
	.quad L$set$1270
	.uleb128 0x8
	.quad	0
	.byte	0x4
	.set L$set$1271,LCFI120-LFB12522
	.long L$set$1271
	.byte	0xe
	.uleb128 0x10
	.byte	0x4
	.set L$set$1272,LCFI121-LCFI120
	.long L$set$1272
	.byte	0xe
	.uleb128 0
	.align	3
LEFDE507:
LSFDE509:
	.set L$set$1273,LEFDE509-LASFDE509
	.long L$set$1273
LASFDE509:
	.long	LASFDE509-EH_frame1
	.quad	LFB12525-.
	.set L$set$1274,LFE12525-LFB12525
	.quad L$set$1274
	.uleb128 0x8
	.quad	LLSDA12525-.
	.byte	0x4
	.set L$set$1275,LCFI122-LFB12525
	.long L$set$1275
	.byte	0xe
	.uleb128 0x20
	.byte	0x9d
	.uleb128 0x4
	.byte	0x9e
	.uleb128 0x3
	.byte	0x4
	.set L$set$1276,LCFI123-LCFI122
	.long L$set$1276
	.byte	0xde
	.byte	0xdd
	.byte	0xe
	.uleb128 0
	.align	3
LEFDE509:
LSFDE511:
	.set L$set$1277,LEFDE511-LASFDE511
	.long L$set$1277
LASFDE511:
	.long	LASFDE511-EH_frame1
	.quad	LFB12529-.
	.set L$set$1278,LFE12529-LFB12529
	.quad L$set$1278
	.uleb128 0x8
	.quad	LLSDA12529-.
	.byte	0x4
	.set L$set$1279,LCFI124-LFB12529
	.long L$set$1279
	.byte	0xe
	.uleb128 0x30
	.byte	0x9d
	.uleb128 0x6
	.byte	0x9e
	.uleb128 0x5
	.byte	0x4
	.set L$set$1280,LCFI125-LCFI124
	.long L$set$1280
	.byte	0x93
	.uleb128 0x4
	.byte	0x94
	.uleb128 0x3
	.byte	0x4
	.set L$set$1281,LCFI126-LCFI125
	.long L$set$1281
	.byte	0xde
	.byte	0xdd
	.byte	0xd3
	.byte	0xd4
	.byte	0xe
	.uleb128 0
	.align	3
LEFDE511:
LSFDE513:
	.set L$set$1282,LEFDE513-LASFDE513
	.long L$set$1282
LASFDE513:
	.long	LASFDE513-EH_frame1
	.quad	LFB12530-.
	.set L$set$1283,LFE12530-LFB12530
	.quad L$set$1283
	.uleb128 0x8
	.quad	0
	.byte	0x4
	.set L$set$1284,LCFI127-LFB12530
	.long L$set$1284
	.byte	0xe
	.uleb128 0x20
	.byte	0x9d
	.uleb128 0x4
	.byte	0x9e
	.uleb128 0x3
	.byte	0x4
	.set L$set$1285,LCFI128-LCFI127
	.long L$set$1285
	.byte	0xde
	.byte	0xdd
	.byte	0xe
	.uleb128 0
	.align	3
LEFDE513:
LSFDE515:
	.set L$set$1286,LEFDE515-LASFDE515
	.long L$set$1286
LASFDE515:
	.long	LASFDE515-EH_frame1
	.quad	LFB12547-.
	.set L$set$1287,LFE12547-LFB12547
	.quad L$set$1287
	.uleb128 0x8
	.quad	0
	.byte	0x4
	.set L$set$1288,LCFI129-LFB12547
	.long L$set$1288
	.byte	0xe
	.uleb128 0x30
	.byte	0x9d
	.uleb128 0x6
	.byte	0x9e
	.uleb128 0x5
	.byte	0x4
	.set L$set$1289,LCFI130-LCFI129
	.long L$set$1289
	.byte	0xde
	.byte	0xdd
	.byte	0xe
	.uleb128 0
	.align	3
LEFDE515:
LSFDE517:
	.set L$set$1290,LEFDE517-LASFDE517
	.long L$set$1290
LASFDE517:
	.long	LASFDE517-EH_frame1
	.quad	LFB12548-.
	.set L$set$1291,LFE12548-LFB12548
	.quad L$set$1291
	.uleb128 0x8
	.quad	0
	.byte	0x4
	.set L$set$1292,LCFI131-LFB12548
	.long L$set$1292
	.byte	0xe
	.uleb128 0x30
	.byte	0x9d
	.uleb128 0x6
	.byte	0x9e
	.uleb128 0x5
	.byte	0x4
	.set L$set$1293,LCFI132-LCFI131
	.long L$set$1293
	.byte	0xde
	.byte	0xdd
	.byte	0xe
	.uleb128 0
	.align	3
LEFDE517:
LSFDE519:
	.set L$set$1294,LEFDE519-LASFDE519
	.long L$set$1294
LASFDE519:
	.long	LASFDE519-EH_frame1
	.quad	LFB12556-.
	.set L$set$1295,LFE12556-LFB12556
	.quad L$set$1295
	.uleb128 0x8
	.quad	0
	.byte	0x4
	.set L$set$1296,LCFI133-LFB12556
	.long L$set$1296
	.byte	0xe
	.uleb128 0x20
	.byte	0x9d
	.uleb128 0x4
	.byte	0x9e
	.uleb128 0x3
	.byte	0x4
	.set L$set$1297,LCFI134-LCFI133
	.long L$set$1297
	.byte	0xde
	.byte	0xdd
	.byte	0xe
	.uleb128 0
	.align	3
LEFDE519:
LSFDE521:
	.set L$set$1298,LEFDE521-LASFDE521
	.long L$set$1298
LASFDE521:
	.long	LASFDE521-EH_frame1
	.quad	LFB12558-.
	.set L$set$1299,LFE12558-LFB12558
	.quad L$set$1299
	.uleb128 0x8
	.quad	0
	.byte	0x4
	.set L$set$1300,LCFI135-LFB12558
	.long L$set$1300
	.byte	0xe
	.uleb128 0x10
	.byte	0x4
	.set L$set$1301,LCFI136-LCFI135
	.long L$set$1301
	.byte	0xe
	.uleb128 0
	.align	3
LEFDE521:
LSFDE523:
	.set L$set$1302,LEFDE523-LASFDE523
	.long L$set$1302
LASFDE523:
	.long	LASFDE523-EH_frame1
	.quad	LFB12559-.
	.set L$set$1303,LFE12559-LFB12559
	.quad L$set$1303
	.uleb128 0x8
	.quad	0
	.byte	0x4
	.set L$set$1304,LCFI137-LFB12559
	.long L$set$1304
	.byte	0xe
	.uleb128 0x10
	.byte	0x4
	.set L$set$1305,LCFI138-LCFI137
	.long L$set$1305
	.byte	0xe
	.uleb128 0
	.align	3
LEFDE523:
LSFDE525:
	.set L$set$1306,LEFDE525-LASFDE525
	.long L$set$1306
LASFDE525:
	.long	LASFDE525-EH_frame1
	.quad	LFB12562-.
	.set L$set$1307,LFE12562-LFB12562
	.quad L$set$1307
	.uleb128 0x8
	.quad	LLSDA12562-.
	.byte	0x4
	.set L$set$1308,LCFI139-LFB12562
	.long L$set$1308
	.byte	0xe
	.uleb128 0x50
	.byte	0x9d
	.uleb128 0xa
	.byte	0x9e
	.uleb128 0x9
	.byte	0x4
	.set L$set$1309,LCFI140-LCFI139
	.long L$set$1309
	.byte	0x93
	.uleb128 0x8
	.byte	0x94
	.uleb128 0x7
	.byte	0x4
	.set L$set$1310,LCFI141-LCFI140
	.long L$set$1310
	.byte	0xde
	.byte	0xdd
	.byte	0xd3
	.byte	0xd4
	.byte	0xe
	.uleb128 0
	.align	3
LEFDE525:
LSFDE527:
	.set L$set$1311,LEFDE527-LASFDE527
	.long L$set$1311
LASFDE527:
	.long	LASFDE527-EH_frame1
	.quad	LFB12565-.
	.set L$set$1312,LFE12565-LFB12565
	.quad L$set$1312
	.uleb128 0x8
	.quad	LLSDA12565-.
	.byte	0x4
	.set L$set$1313,LCFI142-LFB12565
	.long L$set$1313
	.byte	0xe
	.uleb128 0x30
	.byte	0x9d
	.uleb128 0x6
	.byte	0x9e
	.uleb128 0x5
	.byte	0x4
	.set L$set$1314,LCFI143-LCFI142
	.long L$set$1314
	.byte	0x93
	.uleb128 0x4
	.byte	0x94
	.uleb128 0x3
	.byte	0x4
	.set L$set$1315,LCFI144-LCFI143
	.long L$set$1315
	.byte	0xde
	.byte	0xdd
	.byte	0xd3
	.byte	0xd4
	.byte	0xe
	.uleb128 0
	.align	3
LEFDE527:
LSFDE529:
	.set L$set$1316,LEFDE529-LASFDE529
	.long L$set$1316
LASFDE529:
	.long	LASFDE529-EH_frame1
	.quad	LFB12566-.
	.set L$set$1317,LFE12566-LFB12566
	.quad L$set$1317
	.uleb128 0x8
	.quad	0
	.byte	0x4
	.set L$set$1318,LCFI145-LFB12566
	.long L$set$1318
	.byte	0xe
	.uleb128 0x30
	.byte	0x9d
	.uleb128 0x6
	.byte	0x9e
	.uleb128 0x5
	.byte	0x4
	.set L$set$1319,LCFI146-LCFI145
	.long L$set$1319
	.byte	0xde
	.byte	0xdd
	.byte	0xe
	.uleb128 0
	.align	3
LEFDE529:
LSFDE531:
	.set L$set$1320,LEFDE531-LASFDE531
	.long L$set$1320
LASFDE531:
	.long	LASFDE531-EH_frame1
	.quad	LFB12567-.
	.set L$set$1321,LFE12567-LFB12567
	.quad L$set$1321
	.uleb128 0x8
	.quad	0
	.byte	0x4
	.set L$set$1322,LCFI147-LFB12567
	.long L$set$1322
	.byte	0xe
	.uleb128 0x30
	.byte	0x9d
	.uleb128 0x6
	.byte	0x9e
	.uleb128 0x5
	.byte	0x4
	.set L$set$1323,LCFI148-LCFI147
	.long L$set$1323
	.byte	0xde
	.byte	0xdd
	.byte	0xe
	.uleb128 0
	.align	3
LEFDE531:
LSFDE533:
	.set L$set$1324,LEFDE533-LASFDE533
	.long L$set$1324
LASFDE533:
	.long	LASFDE533-EH_frame1
	.quad	LFB12568-.
	.set L$set$1325,LFE12568-LFB12568
	.quad L$set$1325
	.uleb128 0x8
	.quad	0
	.byte	0x4
	.set L$set$1326,LCFI149-LFB12568
	.long L$set$1326
	.byte	0xe
	.uleb128 0x30
	.byte	0x9d
	.uleb128 0x6
	.byte	0x9e
	.uleb128 0x5
	.byte	0x4
	.set L$set$1327,LCFI150-LCFI149
	.long L$set$1327
	.byte	0x93
	.uleb128 0x4
	.byte	0x4
	.set L$set$1328,LCFI151-LCFI150
	.long L$set$1328
	.byte	0xde
	.byte	0xdd
	.byte	0xd3
	.byte	0xe
	.uleb128 0
	.align	3
LEFDE533:
LSFDE535:
	.set L$set$1329,LEFDE535-LASFDE535
	.long L$set$1329
LASFDE535:
	.long	LASFDE535-EH_frame1
	.quad	LFB12569-.
	.set L$set$1330,LFE12569-LFB12569
	.quad L$set$1330
	.uleb128 0x8
	.quad	0
	.byte	0x4
	.set L$set$1331,LCFI152-LFB12569
	.long L$set$1331
	.byte	0xe
	.uleb128 0x20
	.byte	0x9d
	.uleb128 0x4
	.byte	0x9e
	.uleb128 0x3
	.byte	0x4
	.set L$set$1332,LCFI153-LCFI152
	.long L$set$1332
	.byte	0xde
	.byte	0xdd
	.byte	0xe
	.uleb128 0
	.align	3
LEFDE535:
LSFDE537:
	.set L$set$1333,LEFDE537-LASFDE537
	.long L$set$1333
LASFDE537:
	.long	LASFDE537-EH_frame1
	.quad	LFB12570-.
	.set L$set$1334,LFE12570-LFB12570
	.quad L$set$1334
	.uleb128 0x8
	.quad	0
	.byte	0x4
	.set L$set$1335,LCFI154-LFB12570
	.long L$set$1335
	.byte	0xe
	.uleb128 0x20
	.byte	0x9d
	.uleb128 0x4
	.byte	0x9e
	.uleb128 0x3
	.byte	0x4
	.set L$set$1336,LCFI155-LCFI154
	.long L$set$1336
	.byte	0xde
	.byte	0xdd
	.byte	0xe
	.uleb128 0
	.align	3
LEFDE537:
LSFDE539:
	.set L$set$1337,LEFDE539-LASFDE539
	.long L$set$1337
LASFDE539:
	.long	LASFDE539-EH_frame1
	.quad	LFB12610-.
	.set L$set$1338,LFE12610-LFB12610
	.quad L$set$1338
	.uleb128 0x8
	.quad	0
	.byte	0x4
	.set L$set$1339,LCFI156-LFB12610
	.long L$set$1339
	.byte	0xe
	.uleb128 0x10
	.byte	0x4
	.set L$set$1340,LCFI157-LCFI156
	.long L$set$1340
	.byte	0xe
	.uleb128 0
	.align	3
LEFDE539:
LSFDE541:
	.set L$set$1341,LEFDE541-LASFDE541
	.long L$set$1341
LASFDE541:
	.long	LASFDE541-EH_frame1
	.quad	LFB12612-.
	.set L$set$1342,LFE12612-LFB12612
	.quad L$set$1342
	.uleb128 0x8
	.quad	0
	.byte	0x4
	.set L$set$1343,LCFI158-LFB12612
	.long L$set$1343
	.byte	0xe
	.uleb128 0x40
	.byte	0x9d
	.uleb128 0x8
	.byte	0x9e
	.uleb128 0x7
	.byte	0x4
	.set L$set$1344,LCFI159-LCFI158
	.long L$set$1344
	.byte	0x93
	.uleb128 0x6
	.byte	0x94
	.uleb128 0x5
	.byte	0x4
	.set L$set$1345,LCFI160-LCFI159
	.long L$set$1345
	.byte	0xde
	.byte	0xdd
	.byte	0xd3
	.byte	0xd4
	.byte	0xe
	.uleb128 0
	.align	3
LEFDE541:
LSFDE543:
	.set L$set$1346,LEFDE543-LASFDE543
	.long L$set$1346
LASFDE543:
	.long	LASFDE543-EH_frame1
	.quad	LFB12613-.
	.set L$set$1347,LFE12613-LFB12613
	.quad L$set$1347
	.uleb128 0x8
	.quad	0
	.byte	0x4
	.set L$set$1348,LCFI161-LFB12613
	.long L$set$1348
	.byte	0xe
	.uleb128 0x10
	.byte	0x4
	.set L$set$1349,LCFI162-LCFI161
	.long L$set$1349
	.byte	0xe
	.uleb128 0
	.align	3
LEFDE543:
LSFDE545:
	.set L$set$1350,LEFDE545-LASFDE545
	.long L$set$1350
LASFDE545:
	.long	LASFDE545-EH_frame1
	.quad	LFB12639-.
	.set L$set$1351,LFE12639-LFB12639
	.quad L$set$1351
	.uleb128 0x8
	.quad	0
	.byte	0x4
	.set L$set$1352,LCFI163-LFB12639
	.long L$set$1352
	.byte	0xe
	.uleb128 0x10
	.byte	0x4
	.set L$set$1353,LCFI164-LCFI163
	.long L$set$1353
	.byte	0xe
	.uleb128 0
	.align	3
LEFDE545:
LSFDE547:
	.set L$set$1354,LEFDE547-LASFDE547
	.long L$set$1354
LASFDE547:
	.long	LASFDE547-EH_frame1
	.quad	LFB12643-.
	.set L$set$1355,LFE12643-LFB12643
	.quad L$set$1355
	.uleb128 0x8
	.quad	0
	.byte	0x4
	.set L$set$1356,LCFI165-LFB12643
	.long L$set$1356
	.byte	0xe
	.uleb128 0x20
	.byte	0x9d
	.uleb128 0x4
	.byte	0x9e
	.uleb128 0x3
	.byte	0x4
	.set L$set$1357,LCFI166-LCFI165
	.long L$set$1357
	.byte	0xde
	.byte	0xdd
	.byte	0xe
	.uleb128 0
	.align	3
LEFDE547:
LSFDE549:
	.set L$set$1358,LEFDE549-LASFDE549
	.long L$set$1358
LASFDE549:
	.long	LASFDE549-EH_frame1
	.quad	LFB12648-.
	.set L$set$1359,LFE12648-LFB12648
	.quad L$set$1359
	.uleb128 0x8
	.quad	0
	.byte	0x4
	.set L$set$1360,LCFI167-LFB12648
	.long L$set$1360
	.byte	0xe
	.uleb128 0x20
	.byte	0x9d
	.uleb128 0x4
	.byte	0x9e
	.uleb128 0x3
	.byte	0x4
	.set L$set$1361,LCFI168-LCFI167
	.long L$set$1361
	.byte	0xde
	.byte	0xdd
	.byte	0xe
	.uleb128 0
	.align	3
LEFDE549:
LSFDE551:
	.set L$set$1362,LEFDE551-LASFDE551
	.long L$set$1362
LASFDE551:
	.long	LASFDE551-EH_frame1
	.quad	LFB12649-.
	.set L$set$1363,LFE12649-LFB12649
	.quad L$set$1363
	.uleb128 0x8
	.quad	0
	.byte	0x4
	.set L$set$1364,LCFI169-LFB12649
	.long L$set$1364
	.byte	0xe
	.uleb128 0x10
	.byte	0x4
	.set L$set$1365,LCFI170-LCFI169
	.long L$set$1365
	.byte	0xe
	.uleb128 0
	.align	3
LEFDE551:
LSFDE553:
	.set L$set$1366,LEFDE553-LASFDE553
	.long L$set$1366
LASFDE553:
	.long	LASFDE553-EH_frame1
	.quad	LFB12650-.
	.set L$set$1367,LFE12650-LFB12650
	.quad L$set$1367
	.uleb128 0x8
	.quad	0
	.byte	0x4
	.set L$set$1368,LCFI171-LFB12650
	.long L$set$1368
	.byte	0xe
	.uleb128 0x10
	.byte	0x4
	.set L$set$1369,LCFI172-LCFI171
	.long L$set$1369
	.byte	0xe
	.uleb128 0
	.align	3
LEFDE553:
LSFDE555:
	.set L$set$1370,LEFDE555-LASFDE555
	.long L$set$1370
LASFDE555:
	.long	LASFDE555-EH_frame1
	.quad	LFB12653-.
	.set L$set$1371,LFE12653-LFB12653
	.quad L$set$1371
	.uleb128 0x8
	.quad	0
	.byte	0x4
	.set L$set$1372,LCFI173-LFB12653
	.long L$set$1372
	.byte	0xe
	.uleb128 0x30
	.byte	0x9d
	.uleb128 0x6
	.byte	0x9e
	.uleb128 0x5
	.byte	0x4
	.set L$set$1373,LCFI174-LCFI173
	.long L$set$1373
	.byte	0xde
	.byte	0xdd
	.byte	0xe
	.uleb128 0
	.align	3
LEFDE555:
LSFDE557:
	.set L$set$1374,LEFDE557-LASFDE557
	.long L$set$1374
LASFDE557:
	.long	LASFDE557-EH_frame1
	.quad	LFB12654-.
	.set L$set$1375,LFE12654-LFB12654
	.quad L$set$1375
	.uleb128 0x8
	.quad	0
	.byte	0x4
	.set L$set$1376,LCFI175-LFB12654
	.long L$set$1376
	.byte	0xe
	.uleb128 0x30
	.byte	0x9d
	.uleb128 0x6
	.byte	0x9e
	.uleb128 0x5
	.byte	0x4
	.set L$set$1377,LCFI176-LCFI175
	.long L$set$1377
	.byte	0x93
	.uleb128 0x4
	.byte	0x4
	.set L$set$1378,LCFI177-LCFI176
	.long L$set$1378
	.byte	0xde
	.byte	0xdd
	.byte	0xd3
	.byte	0xe
	.uleb128 0
	.align	3
LEFDE557:
LSFDE559:
	.set L$set$1379,LEFDE559-LASFDE559
	.long L$set$1379
LASFDE559:
	.long	LASFDE559-EH_frame1
	.quad	LFB12655-.
	.set L$set$1380,LFE12655-LFB12655
	.quad L$set$1380
	.uleb128 0x8
	.quad	0
	.byte	0x4
	.set L$set$1381,LCFI178-LFB12655
	.long L$set$1381
	.byte	0xe
	.uleb128 0x10
	.byte	0x4
	.set L$set$1382,LCFI179-LCFI178
	.long L$set$1382
	.byte	0xe
	.uleb128 0
	.align	3
LEFDE559:
LSFDE561:
	.set L$set$1383,LEFDE561-LASFDE561
	.long L$set$1383
LASFDE561:
	.long	LASFDE561-EH_frame1
	.quad	LFB12656-.
	.set L$set$1384,LFE12656-LFB12656
	.quad L$set$1384
	.uleb128 0x8
	.quad	0
	.byte	0x4
	.set L$set$1385,LCFI180-LFB12656
	.long L$set$1385
	.byte	0xe
	.uleb128 0x10
	.byte	0x4
	.set L$set$1386,LCFI181-LCFI180
	.long L$set$1386
	.byte	0xe
	.uleb128 0
	.align	3
LEFDE561:
LSFDE563:
	.set L$set$1387,LEFDE563-LASFDE563
	.long L$set$1387
LASFDE563:
	.long	LASFDE563-EH_frame1
	.quad	LFB12657-.
	.set L$set$1388,LFE12657-LFB12657
	.quad L$set$1388
	.uleb128 0x8
	.quad	0
	.byte	0x4
	.set L$set$1389,LCFI182-LFB12657
	.long L$set$1389
	.byte	0xe
	.uleb128 0x10
	.byte	0x4
	.set L$set$1390,LCFI183-LCFI182
	.long L$set$1390
	.byte	0xe
	.uleb128 0
	.align	3
LEFDE563:
LSFDE565:
	.set L$set$1391,LEFDE565-LASFDE565
	.long L$set$1391
LASFDE565:
	.long	LASFDE565-EH_frame1
	.quad	LFB12658-.
	.set L$set$1392,LFE12658-LFB12658
	.quad L$set$1392
	.uleb128 0x8
	.quad	0
	.byte	0x4
	.set L$set$1393,LCFI184-LFB12658
	.long L$set$1393
	.byte	0xe
	.uleb128 0x30
	.byte	0x9d
	.uleb128 0x6
	.byte	0x9e
	.uleb128 0x5
	.byte	0x4
	.set L$set$1394,LCFI185-LCFI184
	.long L$set$1394
	.byte	0xde
	.byte	0xdd
	.byte	0xe
	.uleb128 0
	.align	3
LEFDE565:
LSFDE567:
	.set L$set$1395,LEFDE567-LASFDE567
	.long L$set$1395
LASFDE567:
	.long	LASFDE567-EH_frame1
	.quad	LFB12706-.
	.set L$set$1396,LFE12706-LFB12706
	.quad L$set$1396
	.uleb128 0x8
	.quad	0
	.byte	0x4
	.set L$set$1397,LCFI186-LFB12706
	.long L$set$1397
	.byte	0xe
	.uleb128 0x30
	.byte	0x9d
	.uleb128 0x6
	.byte	0x9e
	.uleb128 0x5
	.byte	0x4
	.set L$set$1398,LCFI187-LCFI186
	.long L$set$1398
	.byte	0xde
	.byte	0xdd
	.byte	0xe
	.uleb128 0
	.align	3
LEFDE567:
LSFDE569:
	.set L$set$1399,LEFDE569-LASFDE569
	.long L$set$1399
LASFDE569:
	.long	LASFDE569-EH_frame1
	.quad	LFB12707-.
	.set L$set$1400,LFE12707-LFB12707
	.quad L$set$1400
	.uleb128 0x8
	.quad	0
	.byte	0x4
	.set L$set$1401,LCFI188-LFB12707
	.long L$set$1401
	.byte	0xe
	.uleb128 0x20
	.byte	0x9d
	.uleb128 0x4
	.byte	0x9e
	.uleb128 0x3
	.byte	0x4
	.set L$set$1402,LCFI189-LCFI188
	.long L$set$1402
	.byte	0xde
	.byte	0xdd
	.byte	0xe
	.uleb128 0
	.align	3
LEFDE569:
LSFDE571:
	.set L$set$1403,LEFDE571-LASFDE571
	.long L$set$1403
LASFDE571:
	.long	LASFDE571-EH_frame1
	.quad	LFB12709-.
	.set L$set$1404,LFE12709-LFB12709
	.quad L$set$1404
	.uleb128 0x8
	.quad	0
	.byte	0x4
	.set L$set$1405,LCFI190-LFB12709
	.long L$set$1405
	.byte	0xe
	.uleb128 0x30
	.byte	0x9d
	.uleb128 0x6
	.byte	0x9e
	.uleb128 0x5
	.byte	0x4
	.set L$set$1406,LCFI191-LCFI190
	.long L$set$1406
	.byte	0x93
	.uleb128 0x4
	.byte	0x4
	.set L$set$1407,LCFI192-LCFI191
	.long L$set$1407
	.byte	0xde
	.byte	0xdd
	.byte	0xd3
	.byte	0xe
	.uleb128 0
	.align	3
LEFDE571:
LSFDE573:
	.set L$set$1408,LEFDE573-LASFDE573
	.long L$set$1408
LASFDE573:
	.long	LASFDE573-EH_frame1
	.quad	LFB12943-.
	.set L$set$1409,LFE12943-LFB12943
	.quad L$set$1409
	.uleb128 0x8
	.quad	0
	.byte	0x4
	.set L$set$1410,LCFI193-LFB12943
	.long L$set$1410
	.byte	0xe
	.uleb128 0x30
	.byte	0x9d
	.uleb128 0x6
	.byte	0x9e
	.uleb128 0x5
	.byte	0x4
	.set L$set$1411,LCFI194-LCFI193
	.long L$set$1411
	.byte	0x93
	.uleb128 0x4
	.byte	0x4
	.set L$set$1412,LCFI195-LCFI194
	.long L$set$1412
	.byte	0xde
	.byte	0xdd
	.byte	0xd3
	.byte	0xe
	.uleb128 0
	.align	3
LEFDE573:
LSFDE575:
	.set L$set$1413,LEFDE575-LASFDE575
	.long L$set$1413
LASFDE575:
	.long	LASFDE575-EH_frame1
	.quad	LFB12944-.
	.set L$set$1414,LFE12944-LFB12944
	.quad L$set$1414
	.uleb128 0x8
	.quad	0
	.byte	0x4
	.set L$set$1415,LCFI196-LFB12944
	.long L$set$1415
	.byte	0xe
	.uleb128 0x10
	.byte	0x4
	.set L$set$1416,LCFI197-LCFI196
	.long L$set$1416
	.byte	0xe
	.uleb128 0
	.align	3
LEFDE575:
LSFDE577:
	.set L$set$1417,LEFDE577-LASFDE577
	.long L$set$1417
LASFDE577:
	.long	LASFDE577-EH_frame1
	.quad	LFB12945-.
	.set L$set$1418,LFE12945-LFB12945
	.quad L$set$1418
	.uleb128 0x8
	.quad	0
	.byte	0x4
	.set L$set$1419,LCFI198-LFB12945
	.long L$set$1419
	.byte	0xe
	.uleb128 0x30
	.byte	0x9d
	.uleb128 0x6
	.byte	0x9e
	.uleb128 0x5
	.byte	0x4
	.set L$set$1420,LCFI199-LCFI198
	.long L$set$1420
	.byte	0xde
	.byte	0xdd
	.byte	0xe
	.uleb128 0
	.align	3
LEFDE577:
LSFDE579:
	.set L$set$1421,LEFDE579-LASFDE579
	.long L$set$1421
LASFDE579:
	.long	LASFDE579-EH_frame1
	.quad	LFB12957-.
	.set L$set$1422,LFE12957-LFB12957
	.quad L$set$1422
	.uleb128 0x8
	.quad	LLSDA12957-.
	.byte	0x4
	.set L$set$1423,LCFI200-LFB12957
	.long L$set$1423
	.byte	0xe
	.uleb128 0x30
	.byte	0x9d
	.uleb128 0x6
	.byte	0x9e
	.uleb128 0x5
	.byte	0x4
	.set L$set$1424,LCFI201-LCFI200
	.long L$set$1424
	.byte	0x93
	.uleb128 0x4
	.byte	0x4
	.set L$set$1425,LCFI202-LCFI201
	.long L$set$1425
	.byte	0xde
	.byte	0xdd
	.byte	0xd3
	.byte	0xe
	.uleb128 0
	.align	3
LEFDE579:
LSFDE581:
	.set L$set$1426,LEFDE581-LASFDE581
	.long L$set$1426
LASFDE581:
	.long	LASFDE581-EH_frame1
	.quad	LFB12959-.
	.set L$set$1427,LFE12959-LFB12959
	.quad L$set$1427
	.uleb128 0x8
	.quad	0
	.byte	0x4
	.set L$set$1428,LCFI203-LFB12959
	.long L$set$1428
	.byte	0xe
	.uleb128 0x30
	.byte	0x9d
	.uleb128 0x6
	.byte	0x9e
	.uleb128 0x5
	.byte	0x4
	.set L$set$1429,LCFI204-LCFI203
	.long L$set$1429
	.byte	0xde
	.byte	0xdd
	.byte	0xe
	.uleb128 0
	.align	3
LEFDE581:
LSFDE583:
	.set L$set$1430,LEFDE583-LASFDE583
	.long L$set$1430
LASFDE583:
	.long	LASFDE583-EH_frame1
	.quad	LFB12962-.
	.set L$set$1431,LFE12962-LFB12962
	.quad L$set$1431
	.uleb128 0x8
	.quad	0
	.byte	0x4
	.set L$set$1432,LCFI205-LFB12962
	.long L$set$1432
	.byte	0xe
	.uleb128 0x30
	.byte	0x9d
	.uleb128 0x6
	.byte	0x9e
	.uleb128 0x5
	.byte	0x4
	.set L$set$1433,LCFI206-LCFI205
	.long L$set$1433
	.byte	0xde
	.byte	0xdd
	.byte	0xe
	.uleb128 0
	.align	3
LEFDE583:
LSFDE585:
	.set L$set$1434,LEFDE585-LASFDE585
	.long L$set$1434
LASFDE585:
	.long	LASFDE585-EH_frame1
	.quad	LFB13035-.
	.set L$set$1435,LFE13035-LFB13035
	.quad L$set$1435
	.uleb128 0x8
	.quad	0
	.byte	0x4
	.set L$set$1436,LCFI207-LFB13035
	.long L$set$1436
	.byte	0xe
	.uleb128 0x20
	.byte	0x9d
	.uleb128 0x4
	.byte	0x9e
	.uleb128 0x3
	.byte	0x4
	.set L$set$1437,LCFI208-LCFI207
	.long L$set$1437
	.byte	0xde
	.byte	0xdd
	.byte	0xe
	.uleb128 0
	.align	3
LEFDE585:
LSFDE587:
	.set L$set$1438,LEFDE587-LASFDE587
	.long L$set$1438
LASFDE587:
	.long	LASFDE587-EH_frame1
	.quad	LFB13038-.
	.set L$set$1439,LFE13038-LFB13038
	.quad L$set$1439
	.uleb128 0x8
	.quad	0
	.byte	0x4
	.set L$set$1440,LCFI209-LFB13038
	.long L$set$1440
	.byte	0xe
	.uleb128 0x10
	.byte	0x4
	.set L$set$1441,LCFI210-LCFI209
	.long L$set$1441
	.byte	0xe
	.uleb128 0
	.align	3
LEFDE587:
LSFDE589:
	.set L$set$1442,LEFDE589-LASFDE589
	.long L$set$1442
LASFDE589:
	.long	LASFDE589-EH_frame1
	.quad	LFB13040-.
	.set L$set$1443,LFE13040-LFB13040
	.quad L$set$1443
	.uleb128 0x8
	.quad	0
	.byte	0x4
	.set L$set$1444,LCFI211-LFB13040
	.long L$set$1444
	.byte	0xe
	.uleb128 0x30
	.byte	0x9d
	.uleb128 0x6
	.byte	0x9e
	.uleb128 0x5
	.byte	0x4
	.set L$set$1445,LCFI212-LCFI211
	.long L$set$1445
	.byte	0xde
	.byte	0xdd
	.byte	0xe
	.uleb128 0
	.align	3
LEFDE589:
LSFDE591:
	.set L$set$1446,LEFDE591-LASFDE591
	.long L$set$1446
LASFDE591:
	.long	LASFDE591-EH_frame1
	.quad	LFB13041-.
	.set L$set$1447,LFE13041-LFB13041
	.quad L$set$1447
	.uleb128 0x8
	.quad	0
	.byte	0x4
	.set L$set$1448,LCFI213-LFB13041
	.long L$set$1448
	.byte	0xe
	.uleb128 0x10
	.byte	0x4
	.set L$set$1449,LCFI214-LCFI213
	.long L$set$1449
	.byte	0xe
	.uleb128 0
	.align	3
LEFDE591:
LSFDE593:
	.set L$set$1450,LEFDE593-LASFDE593
	.long L$set$1450
LASFDE593:
	.long	LASFDE593-EH_frame1
	.quad	LFB13042-.
	.set L$set$1451,LFE13042-LFB13042
	.quad L$set$1451
	.uleb128 0x8
	.quad	0
	.byte	0x4
	.set L$set$1452,LCFI215-LFB13042
	.long L$set$1452
	.byte	0xe
	.uleb128 0x30
	.byte	0x9d
	.uleb128 0x6
	.byte	0x9e
	.uleb128 0x5
	.byte	0x4
	.set L$set$1453,LCFI216-LCFI215
	.long L$set$1453
	.byte	0xde
	.byte	0xdd
	.byte	0xe
	.uleb128 0
	.align	3
LEFDE593:
LSFDE595:
	.set L$set$1454,LEFDE595-LASFDE595
	.long L$set$1454
LASFDE595:
	.long	LASFDE595-EH_frame1
	.quad	LFB13043-.
	.set L$set$1455,LFE13043-LFB13043
	.quad L$set$1455
	.uleb128 0x8
	.quad	0
	.byte	0x4
	.set L$set$1456,LCFI217-LFB13043
	.long L$set$1456
	.byte	0xe
	.uleb128 0x10
	.byte	0x4
	.set L$set$1457,LCFI218-LCFI217
	.long L$set$1457
	.byte	0xe
	.uleb128 0
	.align	3
LEFDE595:
LSFDE597:
	.set L$set$1458,LEFDE597-LASFDE597
	.long L$set$1458
LASFDE597:
	.long	LASFDE597-EH_frame1
	.quad	LFB13044-.
	.set L$set$1459,LFE13044-LFB13044
	.quad L$set$1459
	.uleb128 0x8
	.quad	0
	.byte	0x4
	.set L$set$1460,LCFI219-LFB13044
	.long L$set$1460
	.byte	0xe
	.uleb128 0x30
	.byte	0x9d
	.uleb128 0x6
	.byte	0x9e
	.uleb128 0x5
	.byte	0x4
	.set L$set$1461,LCFI220-LCFI219
	.long L$set$1461
	.byte	0x93
	.uleb128 0x4
	.byte	0x94
	.uleb128 0x3
	.byte	0x4
	.set L$set$1462,LCFI221-LCFI220
	.long L$set$1462
	.byte	0xde
	.byte	0xdd
	.byte	0xd3
	.byte	0xd4
	.byte	0xe
	.uleb128 0
	.align	3
LEFDE597:
LSFDE599:
	.set L$set$1463,LEFDE599-LASFDE599
	.long L$set$1463
LASFDE599:
	.long	LASFDE599-EH_frame1
	.quad	LFB13077-.
	.set L$set$1464,LFE13077-LFB13077
	.quad L$set$1464
	.uleb128 0x8
	.quad	0
	.byte	0x4
	.set L$set$1465,LCFI222-LFB13077
	.long L$set$1465
	.byte	0xe
	.uleb128 0x10
	.byte	0x4
	.set L$set$1466,LCFI223-LCFI222
	.long L$set$1466
	.byte	0xe
	.uleb128 0
	.align	3
LEFDE599:
LSFDE601:
	.set L$set$1467,LEFDE601-LASFDE601
	.long L$set$1467
LASFDE601:
	.long	LASFDE601-EH_frame1
	.quad	LFB13081-.
	.set L$set$1468,LFE13081-LFB13081
	.quad L$set$1468
	.uleb128 0x8
	.quad	0
	.byte	0x4
	.set L$set$1469,LCFI224-LFB13081
	.long L$set$1469
	.byte	0xe
	.uleb128 0x10
	.byte	0x4
	.set L$set$1470,LCFI225-LCFI224
	.long L$set$1470
	.byte	0xe
	.uleb128 0
	.align	3
LEFDE601:
LSFDE603:
	.set L$set$1471,LEFDE603-LASFDE603
	.long L$set$1471
LASFDE603:
	.long	LASFDE603-EH_frame1
	.quad	LFB13086-.
	.set L$set$1472,LFE13086-LFB13086
	.quad L$set$1472
	.uleb128 0x8
	.quad	0
	.byte	0x4
	.set L$set$1473,LCFI226-LFB13086
	.long L$set$1473
	.byte	0xe
	.uleb128 0x20
	.byte	0x9d
	.uleb128 0x4
	.byte	0x9e
	.uleb128 0x3
	.byte	0x4
	.set L$set$1474,LCFI227-LCFI226
	.long L$set$1474
	.byte	0xde
	.byte	0xdd
	.byte	0xe
	.uleb128 0
	.align	3
LEFDE603:
LSFDE605:
	.set L$set$1475,LEFDE605-LASFDE605
	.long L$set$1475
LASFDE605:
	.long	LASFDE605-EH_frame1
	.quad	LFB13087-.
	.set L$set$1476,LFE13087-LFB13087
	.quad L$set$1476
	.uleb128 0x8
	.quad	0
	.byte	0x4
	.set L$set$1477,LCFI228-LFB13087
	.long L$set$1477
	.byte	0xe
	.uleb128 0x20
	.byte	0x9d
	.uleb128 0x4
	.byte	0x9e
	.uleb128 0x3
	.byte	0x4
	.set L$set$1478,LCFI229-LCFI228
	.long L$set$1478
	.byte	0xde
	.byte	0xdd
	.byte	0xe
	.uleb128 0
	.align	3
LEFDE605:
LSFDE607:
	.set L$set$1479,LEFDE607-LASFDE607
	.long L$set$1479
LASFDE607:
	.long	LASFDE607-EH_frame1
	.quad	LFB13090-.
	.set L$set$1480,LFE13090-LFB13090
	.quad L$set$1480
	.uleb128 0x8
	.quad	LLSDA13090-.
	.byte	0x4
	.set L$set$1481,LCFI230-LFB13090
	.long L$set$1481
	.byte	0xe
	.uleb128 0x20
	.byte	0x9d
	.uleb128 0x4
	.byte	0x9e
	.uleb128 0x3
	.byte	0x4
	.set L$set$1482,LCFI231-LCFI230
	.long L$set$1482
	.byte	0xde
	.byte	0xdd
	.byte	0xe
	.uleb128 0
	.align	3
LEFDE607:
LSFDE609:
	.set L$set$1483,LEFDE609-LASFDE609
	.long L$set$1483
LASFDE609:
	.long	LASFDE609-EH_frame1
	.quad	LFB13092-.
	.set L$set$1484,LFE13092-LFB13092
	.quad L$set$1484
	.uleb128 0x8
	.quad	0
	.byte	0x4
	.set L$set$1485,LCFI232-LFB13092
	.long L$set$1485
	.byte	0xe
	.uleb128 0x10
	.byte	0x4
	.set L$set$1486,LCFI233-LCFI232
	.long L$set$1486
	.byte	0xe
	.uleb128 0
	.align	3
LEFDE609:
LSFDE611:
	.set L$set$1487,LEFDE611-LASFDE611
	.long L$set$1487
LASFDE611:
	.long	LASFDE611-EH_frame1
	.quad	LFB13093-.
	.set L$set$1488,LFE13093-LFB13093
	.quad L$set$1488
	.uleb128 0x8
	.quad	0
	.byte	0x4
	.set L$set$1489,LCFI234-LFB13093
	.long L$set$1489
	.byte	0xe
	.uleb128 0x30
	.byte	0x9d
	.uleb128 0x6
	.byte	0x9e
	.uleb128 0x5
	.byte	0x4
	.set L$set$1490,LCFI235-LCFI234
	.long L$set$1490
	.byte	0x93
	.uleb128 0x4
	.byte	0x4
	.set L$set$1491,LCFI236-LCFI235
	.long L$set$1491
	.byte	0xde
	.byte	0xdd
	.byte	0xd3
	.byte	0xe
	.uleb128 0
	.align	3
LEFDE611:
LSFDE613:
	.set L$set$1492,LEFDE613-LASFDE613
	.long L$set$1492
LASFDE613:
	.long	LASFDE613-EH_frame1
	.quad	LFB13095-.
	.set L$set$1493,LFE13095-LFB13095
	.quad L$set$1493
	.uleb128 0x8
	.quad	0
	.byte	0x4
	.set L$set$1494,LCFI237-LFB13095
	.long L$set$1494
	.byte	0xe
	.uleb128 0x30
	.byte	0x9d
	.uleb128 0x6
	.byte	0x9e
	.uleb128 0x5
	.byte	0x4
	.set L$set$1495,LCFI238-LCFI237
	.long L$set$1495
	.byte	0x93
	.uleb128 0x4
	.byte	0x94
	.uleb128 0x3
	.byte	0x4
	.set L$set$1496,LCFI239-LCFI238
	.long L$set$1496
	.byte	0xde
	.byte	0xdd
	.byte	0xd3
	.byte	0xd4
	.byte	0xe
	.uleb128 0
	.align	3
LEFDE613:
LSFDE615:
	.set L$set$1497,LEFDE615-LASFDE615
	.long L$set$1497
LASFDE615:
	.long	LASFDE615-EH_frame1
	.quad	LFB13094-.
	.set L$set$1498,LFE13094-LFB13094
	.quad L$set$1498
	.uleb128 0x8
	.quad	0
	.byte	0x4
	.set L$set$1499,LCFI240-LFB13094
	.long L$set$1499
	.byte	0xe
	.uleb128 0x50
	.byte	0x9d
	.uleb128 0xa
	.byte	0x9e
	.uleb128 0x9
	.byte	0x4
	.set L$set$1500,LCFI241-LCFI240
	.long L$set$1500
	.byte	0x93
	.uleb128 0x8
	.byte	0x4
	.set L$set$1501,LCFI242-LCFI241
	.long L$set$1501
	.byte	0xde
	.byte	0xdd
	.byte	0xd3
	.byte	0xe
	.uleb128 0
	.align	3
LEFDE615:
LSFDE617:
	.set L$set$1502,LEFDE617-LASFDE617
	.long L$set$1502
LASFDE617:
	.long	LASFDE617-EH_frame1
	.quad	LFB13096-.
	.set L$set$1503,LFE13096-LFB13096
	.quad L$set$1503
	.uleb128 0x8
	.quad	0
	.byte	0x4
	.set L$set$1504,LCFI243-LFB13096
	.long L$set$1504
	.byte	0xe
	.uleb128 0x10
	.byte	0x4
	.set L$set$1505,LCFI244-LCFI243
	.long L$set$1505
	.byte	0xe
	.uleb128 0
	.align	3
LEFDE617:
LSFDE619:
	.set L$set$1506,LEFDE619-LASFDE619
	.long L$set$1506
LASFDE619:
	.long	LASFDE619-EH_frame1
	.quad	LFB13097-.
	.set L$set$1507,LFE13097-LFB13097
	.quad L$set$1507
	.uleb128 0x8
	.quad	0
	.byte	0x4
	.set L$set$1508,LCFI245-LFB13097
	.long L$set$1508
	.byte	0xe
	.uleb128 0x30
	.byte	0x9d
	.uleb128 0x6
	.byte	0x9e
	.uleb128 0x5
	.byte	0x4
	.set L$set$1509,LCFI246-LCFI245
	.long L$set$1509
	.byte	0xde
	.byte	0xdd
	.byte	0xe
	.uleb128 0
	.align	3
LEFDE619:
LSFDE621:
	.set L$set$1510,LEFDE621-LASFDE621
	.long L$set$1510
LASFDE621:
	.long	LASFDE621-EH_frame1
	.quad	LFB13100-.
	.set L$set$1511,LFE13100-LFB13100
	.quad L$set$1511
	.uleb128 0x8
	.quad	0
	.byte	0x4
	.set L$set$1512,LCFI247-LFB13100
	.long L$set$1512
	.byte	0xe
	.uleb128 0x10
	.byte	0x4
	.set L$set$1513,LCFI248-LCFI247
	.long L$set$1513
	.byte	0xe
	.uleb128 0
	.align	3
LEFDE621:
LSFDE623:
	.set L$set$1514,LEFDE623-LASFDE623
	.long L$set$1514
LASFDE623:
	.long	LASFDE623-EH_frame1
	.quad	LFB13122-.
	.set L$set$1515,LFE13122-LFB13122
	.quad L$set$1515
	.uleb128 0x8
	.quad	0
	.byte	0x4
	.set L$set$1516,LCFI249-LFB13122
	.long L$set$1516
	.byte	0xe
	.uleb128 0x10
	.byte	0x4
	.set L$set$1517,LCFI250-LCFI249
	.long L$set$1517
	.byte	0xe
	.uleb128 0
	.align	3
LEFDE623:
LSFDE625:
	.set L$set$1518,LEFDE625-LASFDE625
	.long L$set$1518
LASFDE625:
	.long	LASFDE625-EH_frame1
	.quad	LFB13123-.
	.set L$set$1519,LFE13123-LFB13123
	.quad L$set$1519
	.uleb128 0x8
	.quad	0
	.byte	0x4
	.set L$set$1520,LCFI251-LFB13123
	.long L$set$1520
	.byte	0xe
	.uleb128 0x10
	.byte	0x4
	.set L$set$1521,LCFI252-LCFI251
	.long L$set$1521
	.byte	0xe
	.uleb128 0
	.align	3
LEFDE625:
LSFDE627:
	.set L$set$1522,LEFDE627-LASFDE627
	.long L$set$1522
LASFDE627:
	.long	LASFDE627-EH_frame1
	.quad	LFB13125-.
	.set L$set$1523,LFE13125-LFB13125
	.quad L$set$1523
	.uleb128 0x8
	.quad	0
	.byte	0x4
	.set L$set$1524,LCFI253-LFB13125
	.long L$set$1524
	.byte	0xe
	.uleb128 0x10
	.byte	0x4
	.set L$set$1525,LCFI254-LCFI253
	.long L$set$1525
	.byte	0xe
	.uleb128 0
	.align	3
LEFDE627:
LSFDE629:
	.set L$set$1526,LEFDE629-LASFDE629
	.long L$set$1526
LASFDE629:
	.long	LASFDE629-EH_frame1
	.quad	LFB13126-.
	.set L$set$1527,LFE13126-LFB13126
	.quad L$set$1527
	.uleb128 0x8
	.quad	0
	.byte	0x4
	.set L$set$1528,LCFI255-LFB13126
	.long L$set$1528
	.byte	0xe
	.uleb128 0x30
	.byte	0x9d
	.uleb128 0x6
	.byte	0x9e
	.uleb128 0x5
	.byte	0x4
	.set L$set$1529,LCFI256-LCFI255
	.long L$set$1529
	.byte	0xde
	.byte	0xdd
	.byte	0xe
	.uleb128 0
	.align	3
LEFDE629:
LSFDE631:
	.set L$set$1530,LEFDE631-LASFDE631
	.long L$set$1530
LASFDE631:
	.long	LASFDE631-EH_frame1
	.quad	LFB13150-.
	.set L$set$1531,LFE13150-LFB13150
	.quad L$set$1531
	.uleb128 0x8
	.quad	0
	.byte	0x4
	.set L$set$1532,LCFI257-LFB13150
	.long L$set$1532
	.byte	0xe
	.uleb128 0x20
	.byte	0x9d
	.uleb128 0x4
	.byte	0x9e
	.uleb128 0x3
	.byte	0x4
	.set L$set$1533,LCFI258-LCFI257
	.long L$set$1533
	.byte	0xde
	.byte	0xdd
	.byte	0xe
	.uleb128 0
	.align	3
LEFDE631:
LSFDE633:
	.set L$set$1534,LEFDE633-LASFDE633
	.long L$set$1534
LASFDE633:
	.long	LASFDE633-EH_frame1
	.quad	LFB13154-.
	.set L$set$1535,LFE13154-LFB13154
	.quad L$set$1535
	.uleb128 0x8
	.quad	0
	.byte	0x4
	.set L$set$1536,LCFI259-LFB13154
	.long L$set$1536
	.byte	0xe
	.uleb128 0x40
	.byte	0x9d
	.uleb128 0x8
	.byte	0x9e
	.uleb128 0x7
	.byte	0x4
	.set L$set$1537,LCFI260-LCFI259
	.long L$set$1537
	.byte	0x93
	.uleb128 0x6
	.byte	0x4
	.set L$set$1538,LCFI261-LCFI260
	.long L$set$1538
	.byte	0xde
	.byte	0xdd
	.byte	0xd3
	.byte	0xe
	.uleb128 0
	.align	3
LEFDE633:
LSFDE635:
	.set L$set$1539,LEFDE635-LASFDE635
	.long L$set$1539
LASFDE635:
	.long	LASFDE635-EH_frame1
	.quad	LFB13156-.
	.set L$set$1540,LFE13156-LFB13156
	.quad L$set$1540
	.uleb128 0x8
	.quad	0
	.byte	0x4
	.set L$set$1541,LCFI262-LFB13156
	.long L$set$1541
	.byte	0xe
	.uleb128 0x20
	.byte	0x9d
	.uleb128 0x4
	.byte	0x9e
	.uleb128 0x3
	.byte	0x4
	.set L$set$1542,LCFI263-LCFI262
	.long L$set$1542
	.byte	0xde
	.byte	0xdd
	.byte	0xe
	.uleb128 0
	.align	3
LEFDE635:
LSFDE637:
	.set L$set$1543,LEFDE637-LASFDE637
	.long L$set$1543
LASFDE637:
	.long	LASFDE637-EH_frame1
	.quad	LFB13187-.
	.set L$set$1544,LFE13187-LFB13187
	.quad L$set$1544
	.uleb128 0x8
	.quad	0
	.byte	0x4
	.set L$set$1545,LCFI264-LFB13187
	.long L$set$1545
	.byte	0xe
	.uleb128 0x40
	.byte	0x9d
	.uleb128 0x8
	.byte	0x9e
	.uleb128 0x7
	.byte	0x4
	.set L$set$1546,LCFI265-LCFI264
	.long L$set$1546
	.byte	0x93
	.uleb128 0x6
	.byte	0x4
	.set L$set$1547,LCFI266-LCFI265
	.long L$set$1547
	.byte	0xde
	.byte	0xdd
	.byte	0xd3
	.byte	0xe
	.uleb128 0
	.align	3
LEFDE637:
LSFDE639:
	.set L$set$1548,LEFDE639-LASFDE639
	.long L$set$1548
LASFDE639:
	.long	LASFDE639-EH_frame1
	.quad	LFB13188-.
	.set L$set$1549,LFE13188-LFB13188
	.quad L$set$1549
	.uleb128 0x8
	.quad	0
	.byte	0x4
	.set L$set$1550,LCFI267-LFB13188
	.long L$set$1550
	.byte	0xe
	.uleb128 0x50
	.byte	0x9d
	.uleb128 0xa
	.byte	0x9e
	.uleb128 0x9
	.byte	0x4
	.set L$set$1551,LCFI268-LCFI267
	.long L$set$1551
	.byte	0x93
	.uleb128 0x8
	.byte	0x4
	.set L$set$1552,LCFI269-LCFI268
	.long L$set$1552
	.byte	0xde
	.byte	0xdd
	.byte	0xd3
	.byte	0xe
	.uleb128 0
	.align	3
LEFDE639:
LSFDE641:
	.set L$set$1553,LEFDE641-LASFDE641
	.long L$set$1553
LASFDE641:
	.long	LASFDE641-EH_frame1
	.quad	LFB13309-.
	.set L$set$1554,LFE13309-LFB13309
	.quad L$set$1554
	.uleb128 0x8
	.quad	0
	.byte	0x4
	.set L$set$1555,LCFI270-LFB13309
	.long L$set$1555
	.byte	0xe
	.uleb128 0x30
	.byte	0x9d
	.uleb128 0x6
	.byte	0x9e
	.uleb128 0x5
	.byte	0x4
	.set L$set$1556,LCFI271-LCFI270
	.long L$set$1556
	.byte	0x93
	.uleb128 0x4
	.byte	0x4
	.set L$set$1557,LCFI272-LCFI271
	.long L$set$1557
	.byte	0xde
	.byte	0xdd
	.byte	0xd3
	.byte	0xe
	.uleb128 0
	.align	3
LEFDE641:
LSFDE643:
	.set L$set$1558,LEFDE643-LASFDE643
	.long L$set$1558
LASFDE643:
	.long	LASFDE643-EH_frame1
	.quad	LFB13310-.
	.set L$set$1559,LFE13310-LFB13310
	.quad L$set$1559
	.uleb128 0x8
	.quad	0
	.byte	0x4
	.set L$set$1560,LCFI273-LFB13310
	.long L$set$1560
	.byte	0xe
	.uleb128 0x40
	.byte	0x9d
	.uleb128 0x8
	.byte	0x9e
	.uleb128 0x7
	.byte	0x4
	.set L$set$1561,LCFI274-LCFI273
	.long L$set$1561
	.byte	0xde
	.byte	0xdd
	.byte	0xe
	.uleb128 0
	.align	3
LEFDE643:
LSFDE645:
	.set L$set$1562,LEFDE645-LASFDE645
	.long L$set$1562
LASFDE645:
	.long	LASFDE645-EH_frame1
	.quad	LFB13314-.
	.set L$set$1563,LFE13314-LFB13314
	.quad L$set$1563
	.uleb128 0x8
	.quad	0
	.byte	0x4
	.set L$set$1564,LCFI275-LFB13314
	.long L$set$1564
	.byte	0xe
	.uleb128 0x50
	.byte	0x9d
	.uleb128 0xa
	.byte	0x9e
	.uleb128 0x9
	.byte	0x4
	.set L$set$1565,LCFI276-LCFI275
	.long L$set$1565
	.byte	0xde
	.byte	0xdd
	.byte	0xe
	.uleb128 0
	.align	3
LEFDE645:
LSFDE647:
	.set L$set$1566,LEFDE647-LASFDE647
	.long L$set$1566
LASFDE647:
	.long	LASFDE647-EH_frame1
	.quad	LFB13357-.
	.set L$set$1567,LFE13357-LFB13357
	.quad L$set$1567
	.uleb128 0x8
	.quad	0
	.byte	0x4
	.set L$set$1568,LCFI277-LFB13357
	.long L$set$1568
	.byte	0xe
	.uleb128 0x10
	.byte	0x4
	.set L$set$1569,LCFI278-LCFI277
	.long L$set$1569
	.byte	0xe
	.uleb128 0
	.align	3
LEFDE647:
LSFDE649:
	.set L$set$1570,LEFDE649-LASFDE649
	.long L$set$1570
LASFDE649:
	.long	LASFDE649-EH_frame1
	.quad	LFB13359-.
	.set L$set$1571,LFE13359-LFB13359
	.quad L$set$1571
	.uleb128 0x8
	.quad	0
	.byte	0x4
	.set L$set$1572,LCFI279-LFB13359
	.long L$set$1572
	.byte	0xe
	.uleb128 0x50
	.byte	0x9d
	.uleb128 0xa
	.byte	0x9e
	.uleb128 0x9
	.byte	0x4
	.set L$set$1573,LCFI280-LCFI279
	.long L$set$1573
	.byte	0xde
	.byte	0xdd
	.byte	0xe
	.uleb128 0
	.align	3
LEFDE649:
LSFDE651:
	.set L$set$1574,LEFDE651-LASFDE651
	.long L$set$1574
LASFDE651:
	.long	LASFDE651-EH_frame1
	.quad	LFB13360-.
	.set L$set$1575,LFE13360-LFB13360
	.quad L$set$1575
	.uleb128 0x8
	.quad	0
	.byte	0x4
	.set L$set$1576,LCFI281-LFB13360
	.long L$set$1576
	.byte	0xe
	.uleb128 0x20
	.byte	0x9d
	.uleb128 0x4
	.byte	0x9e
	.uleb128 0x3
	.byte	0x4
	.set L$set$1577,LCFI282-LCFI281
	.long L$set$1577
	.byte	0xde
	.byte	0xdd
	.byte	0xe
	.uleb128 0
	.align	3
LEFDE651:
LSFDE653:
	.set L$set$1578,LEFDE653-LASFDE653
	.long L$set$1578
LASFDE653:
	.long	LASFDE653-EH_frame1
	.quad	LFB13362-.
	.set L$set$1579,LFE13362-LFB13362
	.quad L$set$1579
	.uleb128 0x8
	.quad	0
	.byte	0x4
	.set L$set$1580,LCFI283-LFB13362
	.long L$set$1580
	.byte	0xe
	.uleb128 0x30
	.byte	0x9d
	.uleb128 0x6
	.byte	0x9e
	.uleb128 0x5
	.byte	0x4
	.set L$set$1581,LCFI284-LCFI283
	.long L$set$1581
	.byte	0x93
	.uleb128 0x4
	.byte	0x4
	.set L$set$1582,LCFI285-LCFI284
	.long L$set$1582
	.byte	0xde
	.byte	0xdd
	.byte	0xd3
	.byte	0xe
	.uleb128 0
	.align	3
LEFDE653:
LSFDE655:
	.set L$set$1583,LEFDE655-LASFDE655
	.long L$set$1583
LASFDE655:
	.long	LASFDE655-EH_frame1
	.quad	LFB13361-.
	.set L$set$1584,LFE13361-LFB13361
	.quad L$set$1584
	.uleb128 0x8
	.quad	0
	.byte	0x4
	.set L$set$1585,LCFI286-LFB13361
	.long L$set$1585
	.byte	0xe
	.uleb128 0x30
	.byte	0x9d
	.uleb128 0x6
	.byte	0x9e
	.uleb128 0x5
	.byte	0x4
	.set L$set$1586,LCFI287-LCFI286
	.long L$set$1586
	.byte	0xde
	.byte	0xdd
	.byte	0xe
	.uleb128 0
	.align	3
LEFDE655:
LSFDE657:
	.set L$set$1587,LEFDE657-LASFDE657
	.long L$set$1587
LASFDE657:
	.long	LASFDE657-EH_frame1
	.quad	LFB13363-.
	.set L$set$1588,LFE13363-LFB13363
	.quad L$set$1588
	.uleb128 0x8
	.quad	0
	.byte	0x4
	.set L$set$1589,LCFI288-LFB13363
	.long L$set$1589
	.byte	0xe
	.uleb128 0x80
	.byte	0x9d
	.uleb128 0x10
	.byte	0x9e
	.uleb128 0xf
	.byte	0x4
	.set L$set$1590,LCFI289-LCFI288
	.long L$set$1590
	.byte	0x93
	.uleb128 0xe
	.byte	0x94
	.uleb128 0xd
	.byte	0x4
	.set L$set$1591,LCFI290-LCFI289
	.long L$set$1591
	.byte	0xde
	.byte	0xdd
	.byte	0xd3
	.byte	0xd4
	.byte	0xe
	.uleb128 0
	.align	3
LEFDE657:
LSFDE659:
	.set L$set$1592,LEFDE659-LASFDE659
	.long L$set$1592
LASFDE659:
	.long	LASFDE659-EH_frame1
	.quad	LFB13367-.
	.set L$set$1593,LFE13367-LFB13367
	.quad L$set$1593
	.uleb128 0x8
	.quad	0
	.byte	0x4
	.set L$set$1594,LCFI291-LFB13367
	.long L$set$1594
	.byte	0xe
	.uleb128 0x30
	.byte	0x9d
	.uleb128 0x6
	.byte	0x9e
	.uleb128 0x5
	.byte	0x4
	.set L$set$1595,LCFI292-LCFI291
	.long L$set$1595
	.byte	0xde
	.byte	0xdd
	.byte	0xe
	.uleb128 0
	.align	3
LEFDE659:
LSFDE661:
	.set L$set$1596,LEFDE661-LASFDE661
	.long L$set$1596
LASFDE661:
	.long	LASFDE661-EH_frame1
	.quad	LFB13397-.
	.set L$set$1597,LFE13397-LFB13397
	.quad L$set$1597
	.uleb128 0x8
	.quad	0
	.byte	0x4
	.set L$set$1598,LCFI293-LFB13397
	.long L$set$1598
	.byte	0xe
	.uleb128 0x20
	.byte	0x9d
	.uleb128 0x4
	.byte	0x9e
	.uleb128 0x3
	.byte	0x4
	.set L$set$1599,LCFI294-LCFI293
	.long L$set$1599
	.byte	0xde
	.byte	0xdd
	.byte	0xe
	.uleb128 0
	.align	3
LEFDE661:
LSFDE663:
	.set L$set$1600,LEFDE663-LASFDE663
	.long L$set$1600
LASFDE663:
	.long	LASFDE663-EH_frame1
	.quad	LFB13398-.
	.set L$set$1601,LFE13398-LFB13398
	.quad L$set$1601
	.uleb128 0x8
	.quad	0
	.byte	0x4
	.set L$set$1602,LCFI295-LFB13398
	.long L$set$1602
	.byte	0xe
	.uleb128 0x30
	.byte	0x9d
	.uleb128 0x6
	.byte	0x9e
	.uleb128 0x5
	.byte	0x4
	.set L$set$1603,LCFI296-LCFI295
	.long L$set$1603
	.byte	0xde
	.byte	0xdd
	.byte	0xe
	.uleb128 0
	.align	3
LEFDE663:
LSFDE665:
	.set L$set$1604,LEFDE665-LASFDE665
	.long L$set$1604
LASFDE665:
	.long	LASFDE665-EH_frame1
	.quad	LFB13399-.
	.set L$set$1605,LFE13399-LFB13399
	.quad L$set$1605
	.uleb128 0x8
	.quad	0
	.byte	0x4
	.set L$set$1606,LCFI297-LFB13399
	.long L$set$1606
	.byte	0xe
	.uleb128 0x10
	.byte	0x4
	.set L$set$1607,LCFI298-LCFI297
	.long L$set$1607
	.byte	0xe
	.uleb128 0
	.align	3
LEFDE665:
LSFDE667:
	.set L$set$1608,LEFDE667-LASFDE667
	.long L$set$1608
LASFDE667:
	.long	LASFDE667-EH_frame1
	.quad	LFB13400-.
	.set L$set$1609,LFE13400-LFB13400
	.quad L$set$1609
	.uleb128 0x8
	.quad	0
	.byte	0x4
	.set L$set$1610,LCFI299-LFB13400
	.long L$set$1610
	.byte	0xe
	.uleb128 0x10
	.byte	0x4
	.set L$set$1611,LCFI300-LCFI299
	.long L$set$1611
	.byte	0xe
	.uleb128 0
	.align	3
LEFDE667:
LSFDE669:
	.set L$set$1612,LEFDE669-LASFDE669
	.long L$set$1612
LASFDE669:
	.long	LASFDE669-EH_frame1
	.quad	LFB13401-.
	.set L$set$1613,LFE13401-LFB13401
	.quad L$set$1613
	.uleb128 0x8
	.quad	0
	.byte	0x4
	.set L$set$1614,LCFI301-LFB13401
	.long L$set$1614
	.byte	0xe
	.uleb128 0x20
	.byte	0x4
	.set L$set$1615,LCFI302-LCFI301
	.long L$set$1615
	.byte	0xe
	.uleb128 0
	.align	3
LEFDE669:
LSFDE671:
	.set L$set$1616,LEFDE671-LASFDE671
	.long L$set$1616
LASFDE671:
	.long	LASFDE671-EH_frame1
	.quad	LFB13402-.
	.set L$set$1617,LFE13402-LFB13402
	.quad L$set$1617
	.uleb128 0x8
	.quad	0
	.byte	0x4
	.set L$set$1618,LCFI303-LFB13402
	.long L$set$1618
	.byte	0xe
	.uleb128 0x40
	.byte	0x9d
	.uleb128 0x8
	.byte	0x9e
	.uleb128 0x7
	.byte	0x4
	.set L$set$1619,LCFI304-LCFI303
	.long L$set$1619
	.byte	0x93
	.uleb128 0x6
	.byte	0x4
	.set L$set$1620,LCFI305-LCFI304
	.long L$set$1620
	.byte	0xde
	.byte	0xdd
	.byte	0xd3
	.byte	0xe
	.uleb128 0
	.align	3
LEFDE671:
LSFDE673:
	.set L$set$1621,LEFDE673-LASFDE673
	.long L$set$1621
LASFDE673:
	.long	LASFDE673-EH_frame1
	.quad	LFB13403-.
	.set L$set$1622,LFE13403-LFB13403
	.quad L$set$1622
	.uleb128 0x8
	.quad	0
	.byte	0x4
	.set L$set$1623,LCFI306-LFB13403
	.long L$set$1623
	.byte	0xe
	.uleb128 0x20
	.byte	0x9d
	.uleb128 0x4
	.byte	0x9e
	.uleb128 0x3
	.byte	0x4
	.set L$set$1624,LCFI307-LCFI306
	.long L$set$1624
	.byte	0xde
	.byte	0xdd
	.byte	0xe
	.uleb128 0
	.align	3
LEFDE673:
LSFDE675:
	.set L$set$1625,LEFDE675-LASFDE675
	.long L$set$1625
LASFDE675:
	.long	LASFDE675-EH_frame1
	.quad	LFB13404-.
	.set L$set$1626,LFE13404-LFB13404
	.quad L$set$1626
	.uleb128 0x8
	.quad	0
	.byte	0x4
	.set L$set$1627,LCFI308-LFB13404
	.long L$set$1627
	.byte	0xe
	.uleb128 0x30
	.byte	0x9d
	.uleb128 0x6
	.byte	0x9e
	.uleb128 0x5
	.byte	0x4
	.set L$set$1628,LCFI309-LCFI308
	.long L$set$1628
	.byte	0xde
	.byte	0xdd
	.byte	0xe
	.uleb128 0
	.align	3
LEFDE675:
LSFDE677:
	.set L$set$1629,LEFDE677-LASFDE677
	.long L$set$1629
LASFDE677:
	.long	LASFDE677-EH_frame1
	.quad	LFB13405-.
	.set L$set$1630,LFE13405-LFB13405
	.quad L$set$1630
	.uleb128 0x8
	.quad	0
	.byte	0x4
	.set L$set$1631,LCFI310-LFB13405
	.long L$set$1631
	.byte	0xe
	.uleb128 0x20
	.byte	0x9d
	.uleb128 0x4
	.byte	0x9e
	.uleb128 0x3
	.byte	0x4
	.set L$set$1632,LCFI311-LCFI310
	.long L$set$1632
	.byte	0xde
	.byte	0xdd
	.byte	0xe
	.uleb128 0
	.align	3
LEFDE677:
LSFDE679:
	.set L$set$1633,LEFDE679-LASFDE679
	.long L$set$1633
LASFDE679:
	.long	LASFDE679-EH_frame1
	.quad	LFB13418-.
	.set L$set$1634,LFE13418-LFB13418
	.quad L$set$1634
	.uleb128 0x8
	.quad	0
	.byte	0x4
	.set L$set$1635,LCFI312-LFB13418
	.long L$set$1635
	.byte	0xe
	.uleb128 0x30
	.byte	0x9d
	.uleb128 0x6
	.byte	0x9e
	.uleb128 0x5
	.byte	0x4
	.set L$set$1636,LCFI313-LCFI312
	.long L$set$1636
	.byte	0xde
	.byte	0xdd
	.byte	0xe
	.uleb128 0
	.align	3
LEFDE679:
LSFDE681:
	.set L$set$1637,LEFDE681-LASFDE681
	.long L$set$1637
LASFDE681:
	.long	LASFDE681-EH_frame1
	.quad	LFB13430-.
	.set L$set$1638,LFE13430-LFB13430
	.quad L$set$1638
	.uleb128 0x8
	.quad	0
	.byte	0x4
	.set L$set$1639,LCFI314-LFB13430
	.long L$set$1639
	.byte	0xe
	.uleb128 0x20
	.byte	0x9d
	.uleb128 0x4
	.byte	0x9e
	.uleb128 0x3
	.byte	0x4
	.set L$set$1640,LCFI315-LCFI314
	.long L$set$1640
	.byte	0xde
	.byte	0xdd
	.byte	0xe
	.uleb128 0
	.align	3
LEFDE681:
LSFDE683:
	.set L$set$1641,LEFDE683-LASFDE683
	.long L$set$1641
LASFDE683:
	.long	LASFDE683-EH_frame1
	.quad	LFB13434-.
	.set L$set$1642,LFE13434-LFB13434
	.quad L$set$1642
	.uleb128 0x8
	.quad	0
	.byte	0x4
	.set L$set$1643,LCFI316-LFB13434
	.long L$set$1643
	.byte	0xe
	.uleb128 0x20
	.byte	0x9d
	.uleb128 0x4
	.byte	0x9e
	.uleb128 0x3
	.byte	0x4
	.set L$set$1644,LCFI317-LCFI316
	.long L$set$1644
	.byte	0xde
	.byte	0xdd
	.byte	0xe
	.uleb128 0
	.align	3
LEFDE683:
LSFDE685:
	.set L$set$1645,LEFDE685-LASFDE685
	.long L$set$1645
LASFDE685:
	.long	LASFDE685-EH_frame1
	.quad	LFB13435-.
	.set L$set$1646,LFE13435-LFB13435
	.quad L$set$1646
	.uleb128 0x8
	.quad	0
	.byte	0x4
	.set L$set$1647,LCFI318-LFB13435
	.long L$set$1647
	.byte	0xe
	.uleb128 0x20
	.byte	0x9d
	.uleb128 0x4
	.byte	0x9e
	.uleb128 0x3
	.byte	0x4
	.set L$set$1648,LCFI319-LCFI318
	.long L$set$1648
	.byte	0xde
	.byte	0xdd
	.byte	0xe
	.uleb128 0
	.align	3
LEFDE685:
LSFDE687:
	.set L$set$1649,LEFDE687-LASFDE687
	.long L$set$1649
LASFDE687:
	.long	LASFDE687-EH_frame1
	.quad	LFB13475-.
	.set L$set$1650,LFE13475-LFB13475
	.quad L$set$1650
	.uleb128 0x8
	.quad	0
	.byte	0x4
	.set L$set$1651,LCFI320-LFB13475
	.long L$set$1651
	.byte	0xe
	.uleb128 0x70
	.byte	0x9d
	.uleb128 0xe
	.byte	0x9e
	.uleb128 0xd
	.byte	0x4
	.set L$set$1652,LCFI321-LCFI320
	.long L$set$1652
	.byte	0x93
	.uleb128 0xc
	.byte	0x4
	.set L$set$1653,LCFI322-LCFI321
	.long L$set$1653
	.byte	0xde
	.byte	0xdd
	.byte	0xd3
	.byte	0xe
	.uleb128 0
	.align	3
LEFDE687:
LSFDE689:
	.set L$set$1654,LEFDE689-LASFDE689
	.long L$set$1654
LASFDE689:
	.long	LASFDE689-EH_frame1
	.quad	LFB13546-.
	.set L$set$1655,LFE13546-LFB13546
	.quad L$set$1655
	.uleb128 0x8
	.quad	0
	.byte	0x4
	.set L$set$1656,LCFI323-LFB13546
	.long L$set$1656
	.byte	0xe
	.uleb128 0x30
	.byte	0x9d
	.uleb128 0x6
	.byte	0x9e
	.uleb128 0x5
	.byte	0x4
	.set L$set$1657,LCFI324-LCFI323
	.long L$set$1657
	.byte	0x93
	.uleb128 0x4
	.byte	0x94
	.uleb128 0x3
	.byte	0x4
	.set L$set$1658,LCFI325-LCFI324
	.long L$set$1658
	.byte	0xde
	.byte	0xdd
	.byte	0xd3
	.byte	0xd4
	.byte	0xe
	.uleb128 0
	.align	3
LEFDE689:
LSFDE691:
	.set L$set$1659,LEFDE691-LASFDE691
	.long L$set$1659
LASFDE691:
	.long	LASFDE691-EH_frame1
	.quad	LFB13545-.
	.set L$set$1660,LFE13545-LFB13545
	.quad L$set$1660
	.uleb128 0x8
	.quad	0
	.byte	0x4
	.set L$set$1661,LCFI326-LFB13545
	.long L$set$1661
	.byte	0xe
	.uleb128 0x40
	.byte	0x9d
	.uleb128 0x8
	.byte	0x9e
	.uleb128 0x7
	.byte	0x4
	.set L$set$1662,LCFI327-LCFI326
	.long L$set$1662
	.byte	0xde
	.byte	0xdd
	.byte	0xe
	.uleb128 0
	.align	3
LEFDE691:
LSFDE693:
	.set L$set$1663,LEFDE693-LASFDE693
	.long L$set$1663
LASFDE693:
	.long	LASFDE693-EH_frame1
	.quad	LFB13551-.
	.set L$set$1664,LFE13551-LFB13551
	.quad L$set$1664
	.uleb128 0x8
	.quad	0
	.byte	0x4
	.set L$set$1665,LCFI328-LFB13551
	.long L$set$1665
	.byte	0xe
	.uleb128 0x10
	.byte	0x4
	.set L$set$1666,LCFI329-LCFI328
	.long L$set$1666
	.byte	0xe
	.uleb128 0
	.align	3
LEFDE693:
LSFDE695:
	.set L$set$1667,LEFDE695-LASFDE695
	.long L$set$1667
LASFDE695:
	.long	LASFDE695-EH_frame1
	.quad	LFB13550-.
	.set L$set$1668,LFE13550-LFB13550
	.quad L$set$1668
	.uleb128 0x8
	.quad	0
	.byte	0x4
	.set L$set$1669,LCFI330-LFB13550
	.long L$set$1669
	.byte	0xe
	.uleb128 0x30
	.byte	0x9d
	.uleb128 0x6
	.byte	0x9e
	.uleb128 0x5
	.byte	0x4
	.set L$set$1670,LCFI331-LCFI330
	.long L$set$1670
	.byte	0xde
	.byte	0xdd
	.byte	0xe
	.uleb128 0
	.align	3
LEFDE695:
LSFDE697:
	.set L$set$1671,LEFDE697-LASFDE697
	.long L$set$1671
LASFDE697:
	.long	LASFDE697-EH_frame1
	.quad	LFB13586-.
	.set L$set$1672,LFE13586-LFB13586
	.quad L$set$1672
	.uleb128 0x8
	.quad	0
	.byte	0x4
	.set L$set$1673,LCFI332-LFB13586
	.long L$set$1673
	.byte	0xe
	.uleb128 0x20
	.byte	0x9d
	.uleb128 0x4
	.byte	0x9e
	.uleb128 0x3
	.byte	0x4
	.set L$set$1674,LCFI333-LCFI332
	.long L$set$1674
	.byte	0xde
	.byte	0xdd
	.byte	0xe
	.uleb128 0
	.align	3
LEFDE697:
LSFDE699:
	.set L$set$1675,LEFDE699-LASFDE699
	.long L$set$1675
LASFDE699:
	.long	LASFDE699-EH_frame1
	.quad	LFB13587-.
	.set L$set$1676,LFE13587-LFB13587
	.quad L$set$1676
	.uleb128 0x8
	.quad	0
	.byte	0x4
	.set L$set$1677,LCFI334-LFB13587
	.long L$set$1677
	.byte	0xe
	.uleb128 0x10
	.byte	0x4
	.set L$set$1678,LCFI335-LCFI334
	.long L$set$1678
	.byte	0xe
	.uleb128 0
	.align	3
LEFDE699:
LSFDE701:
	.set L$set$1679,LEFDE701-LASFDE701
	.long L$set$1679
LASFDE701:
	.long	LASFDE701-EH_frame1
	.quad	LFB13588-.
	.set L$set$1680,LFE13588-LFB13588
	.quad L$set$1680
	.uleb128 0x8
	.quad	0
	.byte	0x4
	.set L$set$1681,LCFI336-LFB13588
	.long L$set$1681
	.byte	0xe
	.uleb128 0x50
	.byte	0x9d
	.uleb128 0xa
	.byte	0x9e
	.uleb128 0x9
	.byte	0x4
	.set L$set$1682,LCFI337-LCFI336
	.long L$set$1682
	.byte	0x93
	.uleb128 0x8
	.byte	0x4
	.set L$set$1683,LCFI338-LCFI337
	.long L$set$1683
	.byte	0xde
	.byte	0xdd
	.byte	0xd3
	.byte	0xe
	.uleb128 0
	.align	3
LEFDE701:
LSFDE703:
	.set L$set$1684,LEFDE703-LASFDE703
	.long L$set$1684
LASFDE703:
	.long	LASFDE703-EH_frame1
	.quad	LFB13589-.
	.set L$set$1685,LFE13589-LFB13589
	.quad L$set$1685
	.uleb128 0x8
	.quad	0
	.byte	0x4
	.set L$set$1686,LCFI339-LFB13589
	.long L$set$1686
	.byte	0xe
	.uleb128 0x30
	.byte	0x9d
	.uleb128 0x6
	.byte	0x9e
	.uleb128 0x5
	.byte	0x4
	.set L$set$1687,LCFI340-LCFI339
	.long L$set$1687
	.byte	0x93
	.uleb128 0x4
	.byte	0x4
	.set L$set$1688,LCFI341-LCFI340
	.long L$set$1688
	.byte	0xde
	.byte	0xdd
	.byte	0xd3
	.byte	0xe
	.uleb128 0
	.align	3
LEFDE703:
LSFDE705:
	.set L$set$1689,LEFDE705-LASFDE705
	.long L$set$1689
LASFDE705:
	.long	LASFDE705-EH_frame1
	.quad	LFB13590-.
	.set L$set$1690,LFE13590-LFB13590
	.quad L$set$1690
	.uleb128 0x8
	.quad	0
	.byte	0x4
	.set L$set$1691,LCFI342-LFB13590
	.long L$set$1691
	.byte	0xe
	.uleb128 0x20
	.byte	0x9d
	.uleb128 0x4
	.byte	0x9e
	.uleb128 0x3
	.byte	0x4
	.set L$set$1692,LCFI343-LCFI342
	.long L$set$1692
	.byte	0xde
	.byte	0xdd
	.byte	0xe
	.uleb128 0
	.align	3
LEFDE705:
LSFDE707:
	.set L$set$1693,LEFDE707-LASFDE707
	.long L$set$1693
LASFDE707:
	.long	LASFDE707-EH_frame1
	.quad	LFB13591-.
	.set L$set$1694,LFE13591-LFB13591
	.quad L$set$1694
	.uleb128 0x8
	.quad	0
	.byte	0x4
	.set L$set$1695,LCFI344-LFB13591
	.long L$set$1695
	.byte	0xe
	.uleb128 0x30
	.byte	0x9d
	.uleb128 0x6
	.byte	0x9e
	.uleb128 0x5
	.byte	0x4
	.set L$set$1696,LCFI345-LCFI344
	.long L$set$1696
	.byte	0xde
	.byte	0xdd
	.byte	0xe
	.uleb128 0
	.align	3
LEFDE707:
LSFDE709:
	.set L$set$1697,LEFDE709-LASFDE709
	.long L$set$1697
LASFDE709:
	.long	LASFDE709-EH_frame1
	.quad	LFB13593-.
	.set L$set$1698,LFE13593-LFB13593
	.quad L$set$1698
	.uleb128 0x8
	.quad	0
	.byte	0x4
	.set L$set$1699,LCFI346-LFB13593
	.long L$set$1699
	.byte	0xe
	.uleb128 0x30
	.byte	0x9d
	.uleb128 0x6
	.byte	0x9e
	.uleb128 0x5
	.byte	0x4
	.set L$set$1700,LCFI347-LCFI346
	.long L$set$1700
	.byte	0xde
	.byte	0xdd
	.byte	0xe
	.uleb128 0
	.align	3
LEFDE709:
LSFDE711:
	.set L$set$1701,LEFDE711-LASFDE711
	.long L$set$1701
LASFDE711:
	.long	LASFDE711-EH_frame1
	.quad	LFB13602-.
	.set L$set$1702,LFE13602-LFB13602
	.quad L$set$1702
	.uleb128 0x8
	.quad	0
	.byte	0x4
	.set L$set$1703,LCFI348-LFB13602
	.long L$set$1703
	.byte	0xe
	.uleb128 0x20
	.byte	0x9d
	.uleb128 0x4
	.byte	0x9e
	.uleb128 0x3
	.byte	0x4
	.set L$set$1704,LCFI349-LCFI348
	.long L$set$1704
	.byte	0xde
	.byte	0xdd
	.byte	0xe
	.uleb128 0
	.align	3
LEFDE711:
LSFDE713:
	.set L$set$1705,LEFDE713-LASFDE713
	.long L$set$1705
LASFDE713:
	.long	LASFDE713-EH_frame1
	.quad	LFB13603-.
	.set L$set$1706,LFE13603-LFB13603
	.quad L$set$1706
	.uleb128 0x8
	.quad	0
	.byte	0x4
	.set L$set$1707,LCFI350-LFB13603
	.long L$set$1707
	.byte	0xe
	.uleb128 0x20
	.byte	0x9d
	.uleb128 0x4
	.byte	0x9e
	.uleb128 0x3
	.byte	0x4
	.set L$set$1708,LCFI351-LCFI350
	.long L$set$1708
	.byte	0xde
	.byte	0xdd
	.byte	0xe
	.uleb128 0
	.align	3
LEFDE713:
LSFDE715:
	.set L$set$1709,LEFDE715-LASFDE715
	.long L$set$1709
LASFDE715:
	.long	LASFDE715-EH_frame1
	.quad	LFB13605-.
	.set L$set$1710,LFE13605-LFB13605
	.quad L$set$1710
	.uleb128 0x8
	.quad	0
	.byte	0x4
	.set L$set$1711,LCFI352-LFB13605
	.long L$set$1711
	.byte	0xe
	.uleb128 0x10
	.byte	0x4
	.set L$set$1712,LCFI353-LCFI352
	.long L$set$1712
	.byte	0xe
	.uleb128 0
	.align	3
LEFDE715:
LSFDE717:
	.set L$set$1713,LEFDE717-LASFDE717
	.long L$set$1713
LASFDE717:
	.long	LASFDE717-EH_frame1
	.quad	LFB13607-.
	.set L$set$1714,LFE13607-LFB13607
	.quad L$set$1714
	.uleb128 0x8
	.quad	0
	.byte	0x4
	.set L$set$1715,LCFI354-LFB13607
	.long L$set$1715
	.byte	0xe
	.uleb128 0x50
	.byte	0x9d
	.uleb128 0xa
	.byte	0x9e
	.uleb128 0x9
	.byte	0x4
	.set L$set$1716,LCFI355-LCFI354
	.long L$set$1716
	.byte	0xde
	.byte	0xdd
	.byte	0xe
	.uleb128 0
	.align	3
LEFDE717:
LSFDE719:
	.set L$set$1717,LEFDE719-LASFDE719
	.long L$set$1717
LASFDE719:
	.long	LASFDE719-EH_frame1
	.quad	LFB13609-.
	.set L$set$1718,LFE13609-LFB13609
	.quad L$set$1718
	.uleb128 0x8
	.quad	0
	.byte	0x4
	.set L$set$1719,LCFI356-LFB13609
	.long L$set$1719
	.byte	0xe
	.uleb128 0x10
	.byte	0x4
	.set L$set$1720,LCFI357-LCFI356
	.long L$set$1720
	.byte	0xe
	.uleb128 0
	.align	3
LEFDE719:
LSFDE721:
	.set L$set$1721,LEFDE721-LASFDE721
	.long L$set$1721
LASFDE721:
	.long	LASFDE721-EH_frame1
	.quad	LFB13608-.
	.set L$set$1722,LFE13608-LFB13608
	.quad L$set$1722
	.uleb128 0x8
	.quad	0
	.byte	0x4
	.set L$set$1723,LCFI358-LFB13608
	.long L$set$1723
	.byte	0xe
	.uleb128 0x30
	.byte	0x9d
	.uleb128 0x6
	.byte	0x9e
	.uleb128 0x5
	.byte	0x4
	.set L$set$1724,LCFI359-LCFI358
	.long L$set$1724
	.byte	0xde
	.byte	0xdd
	.byte	0xe
	.uleb128 0
	.align	3
LEFDE721:
LSFDE723:
	.set L$set$1725,LEFDE723-LASFDE723
	.long L$set$1725
LASFDE723:
	.long	LASFDE723-EH_frame1
	.quad	LFB13610-.
	.set L$set$1726,LFE13610-LFB13610
	.quad L$set$1726
	.uleb128 0x8
	.quad	0
	.byte	0x4
	.set L$set$1727,LCFI360-LFB13610
	.long L$set$1727
	.byte	0xe
	.uleb128 0x30
	.byte	0x9d
	.uleb128 0x6
	.byte	0x9e
	.uleb128 0x5
	.byte	0x4
	.set L$set$1728,LCFI361-LCFI360
	.long L$set$1728
	.byte	0xde
	.byte	0xdd
	.byte	0xe
	.uleb128 0
	.align	3
LEFDE723:
LSFDE725:
	.set L$set$1729,LEFDE725-LASFDE725
	.long L$set$1729
LASFDE725:
	.long	LASFDE725-EH_frame1
	.quad	LFB13611-.
	.set L$set$1730,LFE13611-LFB13611
	.quad L$set$1730
	.uleb128 0x8
	.quad	0
	.byte	0x4
	.set L$set$1731,LCFI362-LFB13611
	.long L$set$1731
	.byte	0xe
	.uleb128 0x40
	.byte	0x9d
	.uleb128 0x8
	.byte	0x9e
	.uleb128 0x7
	.byte	0x4
	.set L$set$1732,LCFI363-LCFI362
	.long L$set$1732
	.byte	0xde
	.byte	0xdd
	.byte	0xe
	.uleb128 0
	.align	3
LEFDE725:
LSFDE727:
	.set L$set$1733,LEFDE727-LASFDE727
	.long L$set$1733
LASFDE727:
	.long	LASFDE727-EH_frame1
	.quad	LFB13613-.
	.set L$set$1734,LFE13613-LFB13613
	.quad L$set$1734
	.uleb128 0x8
	.quad	0
	.byte	0x4
	.set L$set$1735,LCFI364-LFB13613
	.long L$set$1735
	.byte	0xe
	.uleb128 0x20
	.byte	0x9d
	.uleb128 0x4
	.byte	0x9e
	.uleb128 0x3
	.byte	0x4
	.set L$set$1736,LCFI365-LCFI364
	.long L$set$1736
	.byte	0xde
	.byte	0xdd
	.byte	0xe
	.uleb128 0
	.align	3
LEFDE727:
LSFDE729:
	.set L$set$1737,LEFDE729-LASFDE729
	.long L$set$1737
LASFDE729:
	.long	LASFDE729-EH_frame1
	.quad	LFB13616-.
	.set L$set$1738,LFE13616-LFB13616
	.quad L$set$1738
	.uleb128 0x8
	.quad	0
	.byte	0x4
	.set L$set$1739,LCFI366-LFB13616
	.long L$set$1739
	.byte	0xe
	.uleb128 0x30
	.byte	0x4
	.set L$set$1740,LCFI367-LCFI366
	.long L$set$1740
	.byte	0xe
	.uleb128 0
	.align	3
LEFDE729:
LSFDE731:
	.set L$set$1741,LEFDE731-LASFDE731
	.long L$set$1741
LASFDE731:
	.long	LASFDE731-EH_frame1
	.quad	LFB13617-.
	.set L$set$1742,LFE13617-LFB13617
	.quad L$set$1742
	.uleb128 0x8
	.quad	0
	.byte	0x4
	.set L$set$1743,LCFI368-LFB13617
	.long L$set$1743
	.byte	0xe
	.uleb128 0x40
	.byte	0x9d
	.uleb128 0x8
	.byte	0x9e
	.uleb128 0x7
	.byte	0x4
	.set L$set$1744,LCFI369-LCFI368
	.long L$set$1744
	.byte	0xde
	.byte	0xdd
	.byte	0xe
	.uleb128 0
	.align	3
LEFDE731:
LSFDE733:
	.set L$set$1745,LEFDE733-LASFDE733
	.long L$set$1745
LASFDE733:
	.long	LASFDE733-EH_frame1
	.quad	LFB13634-.
	.set L$set$1746,LFE13634-LFB13634
	.quad L$set$1746
	.uleb128 0x8
	.quad	0
	.byte	0x4
	.set L$set$1747,LCFI370-LFB13634
	.long L$set$1747
	.byte	0xe
	.uleb128 0x10
	.byte	0x4
	.set L$set$1748,LCFI371-LCFI370
	.long L$set$1748
	.byte	0xe
	.uleb128 0
	.align	3
LEFDE733:
LSFDE735:
	.set L$set$1749,LEFDE735-LASFDE735
	.long L$set$1749
LASFDE735:
	.long	LASFDE735-EH_frame1
	.quad	LFB13635-.
	.set L$set$1750,LFE13635-LFB13635
	.quad L$set$1750
	.uleb128 0x8
	.quad	0
	.byte	0x4
	.set L$set$1751,LCFI372-LFB13635
	.long L$set$1751
	.byte	0xe
	.uleb128 0x10
	.byte	0x4
	.set L$set$1752,LCFI373-LCFI372
	.long L$set$1752
	.byte	0xe
	.uleb128 0
	.align	3
LEFDE735:
LSFDE737:
	.set L$set$1753,LEFDE737-LASFDE737
	.long L$set$1753
LASFDE737:
	.long	LASFDE737-EH_frame1
	.quad	LFB13636-.
	.set L$set$1754,LFE13636-LFB13636
	.quad L$set$1754
	.uleb128 0x8
	.quad	0
	.byte	0x4
	.set L$set$1755,LCFI374-LFB13636
	.long L$set$1755
	.byte	0xe
	.uleb128 0x20
	.byte	0x9d
	.uleb128 0x4
	.byte	0x9e
	.uleb128 0x3
	.byte	0x4
	.set L$set$1756,LCFI375-LCFI374
	.long L$set$1756
	.byte	0xde
	.byte	0xdd
	.byte	0xe
	.uleb128 0
	.align	3
LEFDE737:
LSFDE739:
	.set L$set$1757,LEFDE739-LASFDE739
	.long L$set$1757
LASFDE739:
	.long	LASFDE739-EH_frame1
	.quad	LFB13730-.
	.set L$set$1758,LFE13730-LFB13730
	.quad L$set$1758
	.uleb128 0x8
	.quad	0
	.byte	0x4
	.set L$set$1759,LCFI376-LFB13730
	.long L$set$1759
	.byte	0xe
	.uleb128 0x10
	.byte	0x4
	.set L$set$1760,LCFI377-LCFI376
	.long L$set$1760
	.byte	0xe
	.uleb128 0
	.align	3
LEFDE739:
LSFDE741:
	.set L$set$1761,LEFDE741-LASFDE741
	.long L$set$1761
LASFDE741:
	.long	LASFDE741-EH_frame1
	.quad	LFB13731-.
	.set L$set$1762,LFE13731-LFB13731
	.quad L$set$1762
	.uleb128 0x8
	.quad	0
	.byte	0x4
	.set L$set$1763,LCFI378-LFB13731
	.long L$set$1763
	.byte	0xe
	.uleb128 0x20
	.byte	0x4
	.set L$set$1764,LCFI379-LCFI378
	.long L$set$1764
	.byte	0xe
	.uleb128 0
	.align	3
LEFDE741:
LSFDE743:
	.set L$set$1765,LEFDE743-LASFDE743
	.long L$set$1765
LASFDE743:
	.long	LASFDE743-EH_frame1
	.quad	LFB13732-.
	.set L$set$1766,LFE13732-LFB13732
	.quad L$set$1766
	.uleb128 0x8
	.quad	LLSDA13732-.
	.byte	0x4
	.set L$set$1767,LCFI380-LFB13732
	.long L$set$1767
	.byte	0xe
	.uleb128 0x30
	.byte	0x9d
	.uleb128 0x6
	.byte	0x9e
	.uleb128 0x5
	.byte	0x4
	.set L$set$1768,LCFI381-LCFI380
	.long L$set$1768
	.byte	0xde
	.byte	0xdd
	.byte	0xe
	.uleb128 0
	.align	3
LEFDE743:
LSFDE745:
	.set L$set$1769,LEFDE745-LASFDE745
	.long L$set$1769
LASFDE745:
	.long	LASFDE745-EH_frame1
	.quad	LFB13734-.
	.set L$set$1770,LFE13734-LFB13734
	.quad L$set$1770
	.uleb128 0x8
	.quad	0
	.byte	0x4
	.set L$set$1771,LCFI382-LFB13734
	.long L$set$1771
	.byte	0xe
	.uleb128 0x30
	.byte	0x9d
	.uleb128 0x6
	.byte	0x9e
	.uleb128 0x5
	.byte	0x4
	.set L$set$1772,LCFI383-LCFI382
	.long L$set$1772
	.byte	0xde
	.byte	0xdd
	.byte	0xe
	.uleb128 0
	.align	3
LEFDE745:
LSFDE747:
	.set L$set$1773,LEFDE747-LASFDE747
	.long L$set$1773
LASFDE747:
	.long	LASFDE747-EH_frame1
	.quad	LFB13745-.
	.set L$set$1774,LFE13745-LFB13745
	.quad L$set$1774
	.uleb128 0x8
	.quad	0
	.byte	0x4
	.set L$set$1775,LCFI384-LFB13745
	.long L$set$1775
	.byte	0xe
	.uleb128 0x30
	.byte	0x9d
	.uleb128 0x6
	.byte	0x9e
	.uleb128 0x5
	.byte	0x4
	.set L$set$1776,LCFI385-LCFI384
	.long L$set$1776
	.byte	0xde
	.byte	0xdd
	.byte	0xe
	.uleb128 0
	.align	3
LEFDE747:
LSFDE749:
	.set L$set$1777,LEFDE749-LASFDE749
	.long L$set$1777
LASFDE749:
	.long	LASFDE749-EH_frame1
	.quad	LFB13746-.
	.set L$set$1778,LFE13746-LFB13746
	.quad L$set$1778
	.uleb128 0x8
	.quad	0
	.byte	0x4
	.set L$set$1779,LCFI386-LFB13746
	.long L$set$1779
	.byte	0xe
	.uleb128 0x10
	.byte	0x4
	.set L$set$1780,LCFI387-LCFI386
	.long L$set$1780
	.byte	0xe
	.uleb128 0
	.align	3
LEFDE749:
LSFDE751:
	.set L$set$1781,LEFDE751-LASFDE751
	.long L$set$1781
LASFDE751:
	.long	LASFDE751-EH_frame1
	.quad	LFB13747-.
	.set L$set$1782,LFE13747-LFB13747
	.quad L$set$1782
	.uleb128 0x8
	.quad	0
	.byte	0x4
	.set L$set$1783,LCFI388-LFB13747
	.long L$set$1783
	.byte	0xe
	.uleb128 0x20
	.byte	0x9d
	.uleb128 0x4
	.byte	0x9e
	.uleb128 0x3
	.byte	0x4
	.set L$set$1784,LCFI389-LCFI388
	.long L$set$1784
	.byte	0xde
	.byte	0xdd
	.byte	0xe
	.uleb128 0
	.align	3
LEFDE751:
LSFDE753:
	.set L$set$1785,LEFDE753-LASFDE753
	.long L$set$1785
LASFDE753:
	.long	LASFDE753-EH_frame1
	.quad	LFB13748-.
	.set L$set$1786,LFE13748-LFB13748
	.quad L$set$1786
	.uleb128 0x8
	.quad	0
	.byte	0x4
	.set L$set$1787,LCFI390-LFB13748
	.long L$set$1787
	.byte	0xe
	.uleb128 0x20
	.byte	0x9d
	.uleb128 0x4
	.byte	0x9e
	.uleb128 0x3
	.byte	0x4
	.set L$set$1788,LCFI391-LCFI390
	.long L$set$1788
	.byte	0xde
	.byte	0xdd
	.byte	0xe
	.uleb128 0
	.align	3
LEFDE753:
LSFDE755:
	.set L$set$1789,LEFDE755-LASFDE755
	.long L$set$1789
LASFDE755:
	.long	LASFDE755-EH_frame1
	.quad	LFB13749-.
	.set L$set$1790,LFE13749-LFB13749
	.quad L$set$1790
	.uleb128 0x8
	.quad	0
	.byte	0x4
	.set L$set$1791,LCFI392-LFB13749
	.long L$set$1791
	.byte	0xe
	.uleb128 0x10
	.byte	0x4
	.set L$set$1792,LCFI393-LCFI392
	.long L$set$1792
	.byte	0xe
	.uleb128 0
	.align	3
LEFDE755:
LSFDE757:
	.set L$set$1793,LEFDE757-LASFDE757
	.long L$set$1793
LASFDE757:
	.long	LASFDE757-EH_frame1
	.quad	LFB13750-.
	.set L$set$1794,LFE13750-LFB13750
	.quad L$set$1794
	.uleb128 0x8
	.quad	0
	.byte	0x4
	.set L$set$1795,LCFI394-LFB13750
	.long L$set$1795
	.byte	0xe
	.uleb128 0x30
	.byte	0x9d
	.uleb128 0x6
	.byte	0x9e
	.uleb128 0x5
	.byte	0x4
	.set L$set$1796,LCFI395-LCFI394
	.long L$set$1796
	.byte	0xde
	.byte	0xdd
	.byte	0xe
	.uleb128 0
	.align	3
LEFDE757:
LSFDE759:
	.set L$set$1797,LEFDE759-LASFDE759
	.long L$set$1797
LASFDE759:
	.long	LASFDE759-EH_frame1
	.quad	LFB13751-.
	.set L$set$1798,LFE13751-LFB13751
	.quad L$set$1798
	.uleb128 0x8
	.quad	0
	.byte	0x4
	.set L$set$1799,LCFI396-LFB13751
	.long L$set$1799
	.byte	0xe
	.uleb128 0x40
	.byte	0x9d
	.uleb128 0x8
	.byte	0x9e
	.uleb128 0x7
	.byte	0x4
	.set L$set$1800,LCFI397-LCFI396
	.long L$set$1800
	.byte	0xde
	.byte	0xdd
	.byte	0xe
	.uleb128 0
	.align	3
LEFDE759:
LSFDE761:
	.set L$set$1801,LEFDE761-LASFDE761
	.long L$set$1801
LASFDE761:
	.long	LASFDE761-EH_frame1
	.quad	LFB13752-.
	.set L$set$1802,LFE13752-LFB13752
	.quad L$set$1802
	.uleb128 0x8
	.quad	0
	.byte	0x4
	.set L$set$1803,LCFI398-LFB13752
	.long L$set$1803
	.byte	0xe
	.uleb128 0x10
	.byte	0x4
	.set L$set$1804,LCFI399-LCFI398
	.long L$set$1804
	.byte	0xe
	.uleb128 0
	.align	3
LEFDE761:
LSFDE763:
	.set L$set$1805,LEFDE763-LASFDE763
	.long L$set$1805
LASFDE763:
	.long	LASFDE763-EH_frame1
	.quad	LFB13755-.
	.set L$set$1806,LFE13755-LFB13755
	.quad L$set$1806
	.uleb128 0x8
	.quad	0
	.byte	0x4
	.set L$set$1807,LCFI400-LFB13755
	.long L$set$1807
	.byte	0xe
	.uleb128 0x10
	.byte	0x4
	.set L$set$1808,LCFI401-LCFI400
	.long L$set$1808
	.byte	0xe
	.uleb128 0
	.align	3
LEFDE763:
LSFDE765:
	.set L$set$1809,LEFDE765-LASFDE765
	.long L$set$1809
LASFDE765:
	.long	LASFDE765-EH_frame1
	.quad	LFB13759-.
	.set L$set$1810,LFE13759-LFB13759
	.quad L$set$1810
	.uleb128 0x8
	.quad	LLSDA13759-.
	.byte	0x4
	.set L$set$1811,LCFI402-LFB13759
	.long L$set$1811
	.byte	0xe
	.uleb128 0x50
	.byte	0x9d
	.uleb128 0xa
	.byte	0x9e
	.uleb128 0x9
	.byte	0x4
	.set L$set$1812,LCFI403-LCFI402
	.long L$set$1812
	.byte	0x93
	.uleb128 0x8
	.byte	0x4
	.set L$set$1813,LCFI404-LCFI403
	.long L$set$1813
	.byte	0xde
	.byte	0xdd
	.byte	0xd3
	.byte	0xe
	.uleb128 0
	.align	3
LEFDE765:
LSFDE767:
	.set L$set$1814,LEFDE767-LASFDE767
	.long L$set$1814
LASFDE767:
	.long	LASFDE767-EH_frame1
	.quad	LFB13760-.
	.set L$set$1815,LFE13760-LFB13760
	.quad L$set$1815
	.uleb128 0x8
	.quad	0
	.byte	0x4
	.set L$set$1816,LCFI405-LFB13760
	.long L$set$1816
	.byte	0xe
	.uleb128 0x20
	.byte	0x9d
	.uleb128 0x4
	.byte	0x9e
	.uleb128 0x3
	.byte	0x4
	.set L$set$1817,LCFI406-LCFI405
	.long L$set$1817
	.byte	0xde
	.byte	0xdd
	.byte	0xe
	.uleb128 0
	.align	3
LEFDE767:
LSFDE769:
	.set L$set$1818,LEFDE769-LASFDE769
	.long L$set$1818
LASFDE769:
	.long	LASFDE769-EH_frame1
	.quad	LFB13761-.
	.set L$set$1819,LFE13761-LFB13761
	.quad L$set$1819
	.uleb128 0x8
	.quad	0
	.byte	0x4
	.set L$set$1820,LCFI407-LFB13761
	.long L$set$1820
	.byte	0xe
	.uleb128 0x10
	.byte	0x4
	.set L$set$1821,LCFI408-LCFI407
	.long L$set$1821
	.byte	0xe
	.uleb128 0
	.align	3
LEFDE769:
LSFDE771:
	.set L$set$1822,LEFDE771-LASFDE771
	.long L$set$1822
LASFDE771:
	.long	LASFDE771-EH_frame1
	.quad	LFB13871-.
	.set L$set$1823,LFE13871-LFB13871
	.quad L$set$1823
	.uleb128 0x8
	.quad	0
	.byte	0x4
	.set L$set$1824,LCFI409-LFB13871
	.long L$set$1824
	.byte	0xe
	.uleb128 0x10
	.byte	0x4
	.set L$set$1825,LCFI410-LCFI409
	.long L$set$1825
	.byte	0xe
	.uleb128 0
	.align	3
LEFDE771:
LSFDE773:
	.set L$set$1826,LEFDE773-LASFDE773
	.long L$set$1826
LASFDE773:
	.long	LASFDE773-EH_frame1
	.quad	LFB13870-.
	.set L$set$1827,LFE13870-LFB13870
	.quad L$set$1827
	.uleb128 0x8
	.quad	0
	.byte	0x4
	.set L$set$1828,LCFI411-LFB13870
	.long L$set$1828
	.byte	0xe
	.uleb128 0x30
	.byte	0x9d
	.uleb128 0x6
	.byte	0x9e
	.uleb128 0x5
	.byte	0x4
	.set L$set$1829,LCFI412-LCFI411
	.long L$set$1829
	.byte	0xde
	.byte	0xdd
	.byte	0xe
	.uleb128 0
	.align	3
LEFDE773:
LSFDE775:
	.set L$set$1830,LEFDE775-LASFDE775
	.long L$set$1830
LASFDE775:
	.long	LASFDE775-EH_frame1
	.quad	LFB13872-.
	.set L$set$1831,LFE13872-LFB13872
	.quad L$set$1831
	.uleb128 0x8
	.quad	0
	.byte	0x4
	.set L$set$1832,LCFI413-LFB13872
	.long L$set$1832
	.byte	0xe
	.uleb128 0x10
	.byte	0x4
	.set L$set$1833,LCFI414-LCFI413
	.long L$set$1833
	.byte	0xe
	.uleb128 0
	.align	3
LEFDE775:
LSFDE777:
	.set L$set$1834,LEFDE777-LASFDE777
	.long L$set$1834
LASFDE777:
	.long	LASFDE777-EH_frame1
	.quad	LFB13874-.
	.set L$set$1835,LFE13874-LFB13874
	.quad L$set$1835
	.uleb128 0x8
	.quad	0
	.byte	0x4
	.set L$set$1836,LCFI415-LFB13874
	.long L$set$1836
	.byte	0xe
	.uleb128 0x40
	.byte	0x9d
	.uleb128 0x8
	.byte	0x9e
	.uleb128 0x7
	.byte	0x4
	.set L$set$1837,LCFI416-LCFI415
	.long L$set$1837
	.byte	0x93
	.uleb128 0x6
	.byte	0x94
	.uleb128 0x5
	.byte	0x4
	.set L$set$1838,LCFI417-LCFI416
	.long L$set$1838
	.byte	0xde
	.byte	0xdd
	.byte	0xd3
	.byte	0xd4
	.byte	0xe
	.uleb128 0
	.align	3
LEFDE777:
LSFDE779:
	.set L$set$1839,LEFDE779-LASFDE779
	.long L$set$1839
LASFDE779:
	.long	LASFDE779-EH_frame1
	.quad	LFB13875-.
	.set L$set$1840,LFE13875-LFB13875
	.quad L$set$1840
	.uleb128 0x8
	.quad	0
	.byte	0x4
	.set L$set$1841,LCFI418-LFB13875
	.long L$set$1841
	.byte	0xe
	.uleb128 0x30
	.byte	0x9d
	.uleb128 0x6
	.byte	0x9e
	.uleb128 0x5
	.byte	0x4
	.set L$set$1842,LCFI419-LCFI418
	.long L$set$1842
	.byte	0xde
	.byte	0xdd
	.byte	0xe
	.uleb128 0
	.align	3
LEFDE779:
LSFDE781:
	.set L$set$1843,LEFDE781-LASFDE781
	.long L$set$1843
LASFDE781:
	.long	LASFDE781-EH_frame1
	.quad	LFB13877-.
	.set L$set$1844,LFE13877-LFB13877
	.quad L$set$1844
	.uleb128 0x8
	.quad	0
	.byte	0x4
	.set L$set$1845,LCFI420-LFB13877
	.long L$set$1845
	.byte	0xe
	.uleb128 0x10
	.byte	0x4
	.set L$set$1846,LCFI421-LCFI420
	.long L$set$1846
	.byte	0xe
	.uleb128 0
	.align	3
LEFDE781:
LSFDE783:
	.set L$set$1847,LEFDE783-LASFDE783
	.long L$set$1847
LASFDE783:
	.long	LASFDE783-EH_frame1
	.quad	LFB13876-.
	.set L$set$1848,LFE13876-LFB13876
	.quad L$set$1848
	.uleb128 0x8
	.quad	0
	.byte	0x4
	.set L$set$1849,LCFI422-LFB13876
	.long L$set$1849
	.byte	0xe
	.uleb128 0x30
	.byte	0x9d
	.uleb128 0x6
	.byte	0x9e
	.uleb128 0x5
	.byte	0x4
	.set L$set$1850,LCFI423-LCFI422
	.long L$set$1850
	.byte	0xde
	.byte	0xdd
	.byte	0xe
	.uleb128 0
	.align	3
LEFDE783:
LSFDE785:
	.set L$set$1851,LEFDE785-LASFDE785
	.long L$set$1851
LASFDE785:
	.long	LASFDE785-EH_frame1
	.quad	LFB13878-.
	.set L$set$1852,LFE13878-LFB13878
	.quad L$set$1852
	.uleb128 0x8
	.quad	LLSDA13878-.
	.byte	0x4
	.set L$set$1853,LCFI424-LFB13878
	.long L$set$1853
	.byte	0xe
	.uleb128 0x40
	.byte	0x9d
	.uleb128 0x8
	.byte	0x9e
	.uleb128 0x7
	.byte	0x4
	.set L$set$1854,LCFI425-LCFI424
	.long L$set$1854
	.byte	0x93
	.uleb128 0x6
	.byte	0x94
	.uleb128 0x5
	.byte	0x95
	.uleb128 0x4
	.byte	0x4
	.set L$set$1855,LCFI426-LCFI425
	.long L$set$1855
	.byte	0xde
	.byte	0xdd
	.byte	0xd5
	.byte	0xd3
	.byte	0xd4
	.byte	0xe
	.uleb128 0
	.align	3
LEFDE785:
LSFDE787:
	.set L$set$1856,LEFDE787-LASFDE787
	.long L$set$1856
LASFDE787:
	.long	LASFDE787-EH_frame1
	.quad	LFB13879-.
	.set L$set$1857,LFE13879-LFB13879
	.quad L$set$1857
	.uleb128 0x8
	.quad	0
	.byte	0x4
	.set L$set$1858,LCFI427-LFB13879
	.long L$set$1858
	.byte	0xe
	.uleb128 0x20
	.byte	0x9d
	.uleb128 0x4
	.byte	0x9e
	.uleb128 0x3
	.byte	0x4
	.set L$set$1859,LCFI428-LCFI427
	.long L$set$1859
	.byte	0xde
	.byte	0xdd
	.byte	0xe
	.uleb128 0
	.align	3
LEFDE787:
LSFDE789:
	.set L$set$1860,LEFDE789-LASFDE789
	.long L$set$1860
LASFDE789:
	.long	LASFDE789-EH_frame1
	.quad	LFB13944-.
	.set L$set$1861,LFE13944-LFB13944
	.quad L$set$1861
	.uleb128 0x8
	.quad	0
	.byte	0x4
	.set L$set$1862,LCFI429-LFB13944
	.long L$set$1862
	.byte	0xe
	.uleb128 0x10
	.byte	0x4
	.set L$set$1863,LCFI430-LCFI429
	.long L$set$1863
	.byte	0xe
	.uleb128 0
	.align	3
LEFDE789:
LSFDE791:
	.set L$set$1864,LEFDE791-LASFDE791
	.long L$set$1864
LASFDE791:
	.long	LASFDE791-EH_frame1
	.quad	LFB13943-.
	.set L$set$1865,LFE13943-LFB13943
	.quad L$set$1865
	.uleb128 0x8
	.quad	0
	.byte	0x4
	.set L$set$1866,LCFI431-LFB13943
	.long L$set$1866
	.byte	0xe
	.uleb128 0x30
	.byte	0x9d
	.uleb128 0x6
	.byte	0x9e
	.uleb128 0x5
	.byte	0x4
	.set L$set$1867,LCFI432-LCFI431
	.long L$set$1867
	.byte	0xde
	.byte	0xdd
	.byte	0xe
	.uleb128 0
	.align	3
LEFDE791:
LSFDE793:
	.set L$set$1868,LEFDE793-LASFDE793
	.long L$set$1868
LASFDE793:
	.long	LASFDE793-EH_frame1
	.quad	LFB13945-.
	.set L$set$1869,LFE13945-LFB13945
	.quad L$set$1869
	.uleb128 0x8
	.quad	0
	.byte	0x4
	.set L$set$1870,LCFI433-LFB13945
	.long L$set$1870
	.byte	0xe
	.uleb128 0x10
	.byte	0x4
	.set L$set$1871,LCFI434-LCFI433
	.long L$set$1871
	.byte	0xe
	.uleb128 0
	.align	3
LEFDE793:
LSFDE795:
	.set L$set$1872,LEFDE795-LASFDE795
	.long L$set$1872
LASFDE795:
	.long	LASFDE795-EH_frame1
	.quad	LFB13946-.
	.set L$set$1873,LFE13946-LFB13946
	.quad L$set$1873
	.uleb128 0x8
	.quad	0
	.byte	0x4
	.set L$set$1874,LCFI435-LFB13946
	.long L$set$1874
	.byte	0xe
	.uleb128 0x40
	.byte	0x9d
	.uleb128 0x8
	.byte	0x9e
	.uleb128 0x7
	.byte	0x4
	.set L$set$1875,LCFI436-LCFI435
	.long L$set$1875
	.byte	0xde
	.byte	0xdd
	.byte	0xe
	.uleb128 0
	.align	3
LEFDE795:
LSFDE797:
	.set L$set$1876,LEFDE797-LASFDE797
	.long L$set$1876
LASFDE797:
	.long	LASFDE797-EH_frame1
	.quad	LFB14037-.
	.set L$set$1877,LFE14037-LFB14037
	.quad L$set$1877
	.uleb128 0x8
	.quad	0
	.byte	0x4
	.set L$set$1878,LCFI437-LFB14037
	.long L$set$1878
	.byte	0xe
	.uleb128 0x20
	.byte	0x9d
	.uleb128 0x4
	.byte	0x9e
	.uleb128 0x3
	.byte	0x4
	.set L$set$1879,LCFI438-LCFI437
	.long L$set$1879
	.byte	0xde
	.byte	0xdd
	.byte	0xe
	.uleb128 0
	.align	3
LEFDE797:
LSFDE799:
	.set L$set$1880,LEFDE799-LASFDE799
	.long L$set$1880
LASFDE799:
	.long	LASFDE799-EH_frame1
	.quad	LFB14060-.
	.set L$set$1881,LFE14060-LFB14060
	.quad L$set$1881
	.uleb128 0x8
	.quad	0
	.byte	0x4
	.set L$set$1882,LCFI439-LFB14060
	.long L$set$1882
	.byte	0xe
	.uleb128 0x10
	.byte	0x9d
	.uleb128 0x2
	.byte	0x9e
	.uleb128 0x1
	.byte	0x4
	.set L$set$1883,LCFI440-LCFI439
	.long L$set$1883
	.byte	0xde
	.byte	0xdd
	.byte	0xe
	.uleb128 0
	.align	3
LEFDE799:
	.text
Letext0:
	.file 27 "/Library/Developer/CommandLineTools/SDKs/MacOSX.sdk/usr/include/arm/_types.h"
	.file 28 "/Library/Developer/CommandLineTools/SDKs/MacOSX.sdk/usr/include/sys/_types.h"
	.file 29 "/Library/Developer/CommandLineTools/SDKs/MacOSX.sdk/usr/include/sys/_pthread/_pthread_types.h"
	.file 30 "/Library/Developer/CommandLineTools/SDKs/MacOSX.sdk/usr/include/_types.h"
	.file 31 "/Library/Developer/CommandLineTools/SDKs/MacOSX.sdk/usr/include/arm/signal.h"
	.file 32 "/Library/Developer/CommandLineTools/SDKs/MacOSX.sdk/usr/include/sys/_types/_int8_t.h"
	.file 33 "/Library/Developer/CommandLineTools/SDKs/MacOSX.sdk/usr/include/sys/_types/_int16_t.h"
	.file 34 "/Library/Developer/CommandLineTools/SDKs/MacOSX.sdk/usr/include/sys/_types/_int32_t.h"
	.file 35 "/Library/Developer/CommandLineTools/SDKs/MacOSX.sdk/usr/include/sys/_types/_int64_t.h"
	.file 36 "/Library/Developer/CommandLineTools/SDKs/MacOSX.sdk/usr/include/sys/_types/_intptr_t.h"
	.file 37 "/Library/Developer/CommandLineTools/SDKs/MacOSX.sdk/usr/include/sys/_types/_uintptr_t.h"
	.file 38 "/Library/Developer/CommandLineTools/SDKs/MacOSX.sdk/usr/include/sys/_types/_size_t.h"
	.file 39 "/Library/Developer/CommandLineTools/SDKs/MacOSX.sdk/usr/include/_types/_uint8_t.h"
	.file 40 "/Library/Developer/CommandLineTools/SDKs/MacOSX.sdk/usr/include/_types/_uint16_t.h"
	.file 41 "/Library/Developer/CommandLineTools/SDKs/MacOSX.sdk/usr/include/_types/_uint32_t.h"
	.file 42 "/Library/Developer/CommandLineTools/SDKs/MacOSX.sdk/usr/include/_types/_uint64_t.h"
	.file 43 "/opt/homebrew/Cellar/gcc/11.2.0/lib/gcc/11/gcc/aarch64-apple-darwin20/11.1.0/include-fixed/stdint.h"
	.file 44 "/Library/Developer/CommandLineTools/SDKs/MacOSX.sdk/usr/include/_types/_intmax_t.h"
	.file 45 "/Library/Developer/CommandLineTools/SDKs/MacOSX.sdk/usr/include/_types/_uintmax_t.h"
	.file 46 "/Library/Developer/CommandLineTools/SDKs/MacOSX.sdk/usr/include/stdlib.h"
	.file 47 "/opt/homebrew/Cellar/gcc/11.2.0/include/c++/11.1.0/cstdlib"
	.file 48 "/opt/homebrew/Cellar/gcc/11.2.0/include/c++/11.1.0/stdlib.h"
	.file 49 "/opt/homebrew/Cellar/gcc/11.2.0/include/c++/11.1.0/bits/std_abs.h"
	.file 50 "/Library/Developer/CommandLineTools/SDKs/MacOSX.sdk/usr/include/sys/_types/_wint_t.h"
	.file 51 "/Library/Developer/CommandLineTools/SDKs/MacOSX.sdk/usr/include/_ctype.h"
	.file 52 "/opt/homebrew/Cellar/gcc/11.2.0/include/c++/11.1.0/cctype"
	.file 53 "/Library/Developer/CommandLineTools/SDKs/MacOSX.sdk/usr/include/_locale.h"
	.file 54 "/opt/homebrew/Cellar/gcc/11.2.0/include/c++/11.1.0/clocale"
	.file 55 "/Library/Developer/CommandLineTools/SDKs/MacOSX.sdk/usr/include/locale.h"
	.file 56 "/opt/homebrew/Cellar/gcc/11.2.0/lib/gcc/11/gcc/aarch64-apple-darwin20/11.1.0/include-fixed/math.h"
	.file 57 "/opt/homebrew/Cellar/gcc/11.2.0/include/c++/11.1.0/cmath"
	.file 58 "/opt/homebrew/Cellar/gcc/11.2.0/include/c++/11.1.0/ext/numeric_traits.h"
	.file 59 "/opt/homebrew/Cellar/gcc/11.2.0/include/c++/11.1.0/aarch64-apple-darwin20/bits/c++config.h"
	.file 60 "/opt/homebrew/Cellar/gcc/11.2.0/include/c++/11.1.0/concepts"
	.file 61 "/opt/homebrew/Cellar/gcc/11.2.0/include/c++/11.1.0/compare"
	.file 62 "/opt/homebrew/Cellar/gcc/11.2.0/include/c++/11.1.0/bits/stl_pair.h"
	.file 63 "/opt/homebrew/Cellar/gcc/11.2.0/include/c++/11.1.0/bits/iterator_concepts.h"
	.file 64 "/opt/homebrew/Cellar/gcc/11.2.0/include/c++/11.1.0/limits"
	.file 65 "/Library/Developer/CommandLineTools/SDKs/MacOSX.sdk/usr/include/setjmp.h"
	.file 66 "/opt/homebrew/Cellar/gcc/11.2.0/include/c++/11.1.0/csetjmp"
	.file 67 "/Library/Developer/CommandLineTools/SDKs/MacOSX.sdk/usr/include/sys/_pthread/_pthread_t.h"
	.file 68 "/opt/homebrew/Cellar/gcc/11.2.0/include/c++/11.1.0/csignal"
	.file 69 "/Library/Developer/CommandLineTools/SDKs/MacOSX.sdk/usr/include/sys/signal.h"
	.file 70 "/Library/Developer/CommandLineTools/SDKs/MacOSX.sdk/usr/include/signal.h"
	.file 71 "/opt/homebrew/Cellar/gcc/11.2.0/lib/gcc/11/gcc/aarch64-apple-darwin20/11.1.0/include/stdarg.h"
	.file 72 "/opt/homebrew/Cellar/gcc/11.2.0/include/c++/11.1.0/cstdarg"
	.file 73 "/opt/homebrew/Cellar/gcc/11.2.0/lib/gcc/11/gcc/aarch64-apple-darwin20/11.1.0/include/stddef.h"
	.file 74 "/opt/homebrew/Cellar/gcc/11.2.0/include/c++/11.1.0/cstddef"
	.file 75 "/Library/Developer/CommandLineTools/SDKs/MacOSX.sdk/usr/include/_stdio.h"
	.file 76 "/opt/homebrew/Cellar/gcc/11.2.0/include/c++/11.1.0/cstdio"
	.file 77 "/opt/homebrew/Cellar/gcc/11.2.0/lib/gcc/11/gcc/aarch64-apple-darwin20/11.1.0/include-fixed/stdio.h"
	.file 78 "/Library/Developer/CommandLineTools/SDKs/MacOSX.sdk/usr/include/string.h"
	.file 79 "/opt/homebrew/Cellar/gcc/11.2.0/include/c++/11.1.0/cstring"
	.file 80 "/Library/Developer/CommandLineTools/SDKs/MacOSX.sdk/usr/include/sys/_types/_clock_t.h"
	.file 81 "/Library/Developer/CommandLineTools/SDKs/MacOSX.sdk/usr/include/sys/_types/_time_t.h"
	.file 82 "/Library/Developer/CommandLineTools/SDKs/MacOSX.sdk/usr/include/sys/_types/_timespec.h"
	.file 83 "/Library/Developer/CommandLineTools/SDKs/MacOSX.sdk/usr/include/time.h"
	.file 84 "/opt/homebrew/Cellar/gcc/11.2.0/include/c++/11.1.0/ctime"
	.file 85 "/Library/Developer/CommandLineTools/SDKs/MacOSX.sdk/usr/include/sys/_types/_mbstate_t.h"
	.file 86 "/Library/Developer/CommandLineTools/SDKs/MacOSX.sdk/usr/include/_types/_wctype_t.h"
	.file 87 "/opt/homebrew/Cellar/gcc/11.2.0/include/c++/11.1.0/cwchar"
	.file 88 "/Library/Developer/CommandLineTools/SDKs/MacOSX.sdk/usr/include/wchar.h"
	.file 89 "/Library/Developer/CommandLineTools/SDKs/MacOSX.sdk/usr/include/_types/_wctrans_t.h"
	.file 90 "/opt/homebrew/Cellar/gcc/11.2.0/include/c++/11.1.0/cwctype"
	.file 91 "/Library/Developer/CommandLineTools/SDKs/MacOSX.sdk/usr/include/_wctype.h"
	.file 92 "/Library/Developer/CommandLineTools/SDKs/MacOSX.sdk/usr/include/wctype.h"
	.file 93 "/opt/homebrew/Cellar/gcc/11.2.0/include/c++/11.1.0/bits/exception_ptr.h"
	.file 94 "/opt/homebrew/Cellar/gcc/11.2.0/include/c++/11.1.0/cstdint"
	.file 95 "/Library/Developer/CommandLineTools/SDKs/MacOSX.sdk/usr/include/sys/_pthread/_pthread_cond_t.h"
	.file 96 "/Library/Developer/CommandLineTools/SDKs/MacOSX.sdk/usr/include/sys/_pthread/_pthread_mutex_t.h"
	.file 97 "/Library/Developer/CommandLineTools/SDKs/MacOSX.sdk/usr/include/sys/_pthread/_pthread_once_t.h"
	.file 98 "/opt/homebrew/Cellar/gcc/11.2.0/include/c++/11.1.0/aarch64-apple-darwin20/bits/gthr-default.h"
	.file 99 "/opt/homebrew/Cellar/gcc/11.2.0/include/c++/11.1.0/aarch64-apple-darwin20/bits/atomic_word.h"
	.file 100 "/opt/homebrew/Cellar/gcc/11.2.0/include/c++/11.1.0/numbers"
	.file 101 "/opt/homebrew/Cellar/gcc/11.2.0/include/c++/11.1.0/bits/max_size_type.h"
	.file 102 "/opt/homebrew/Cellar/gcc/11.2.0/include/c++/11.1.0/bits/ranges_base.h"
	.file 103 "/opt/homebrew/Cellar/gcc/11.2.0/include/c++/11.1.0/string_view"
	.file 104 "/opt/homebrew/Cellar/gcc/11.2.0/include/c++/11.1.0/bits/stringfwd.h"
	.file 105 "/opt/homebrew/Cellar/gcc/11.2.0/include/c++/11.1.0/bits/locale_classes.h"
	.file 106 "/opt/homebrew/Cellar/gcc/11.2.0/include/c++/11.1.0/bits/ios_base.h"
	.file 107 "/opt/homebrew/Cellar/gcc/11.2.0/include/c++/11.1.0/bits/ostream.tcc"
	.file 108 "/opt/homebrew/Cellar/gcc/11.2.0/include/c++/11.1.0/ostream"
	.file 109 "/opt/homebrew/Cellar/gcc/11.2.0/include/c++/11.1.0/istream"
	.file 110 "/Library/Developer/CommandLineTools/SDKs/MacOSX.sdk/usr/include/fenv.h"
	.file 111 "/opt/homebrew/Cellar/gcc/11.2.0/include/c++/11.1.0/fenv.h"
	.file 112 "/opt/homebrew/Cellar/gcc/11.2.0/include/c++/11.1.0/cfenv"
	.file 113 "/Library/Developer/CommandLineTools/SDKs/MacOSX.sdk/usr/include/inttypes.h"
	.file 114 "/opt/homebrew/Cellar/gcc/11.2.0/include/c++/11.1.0/cinttypes"
	.file 115 "/opt/homebrew/Cellar/gcc/11.2.0/include/c++/11.1.0/utility"
	.file 116 "/opt/homebrew/Cellar/gcc/11.2.0/include/c++/11.1.0/bits/ranges_algobase.h"
	.file 117 "/opt/homebrew/Cellar/gcc/11.2.0/include/c++/11.1.0/bits/ranges_algo.h"
	.file 118 "/opt/homebrew/Cellar/gcc/11.2.0/include/c++/11.1.0/bits/uses_allocator.h"
	.file 119 "/opt/homebrew/Cellar/gcc/11.2.0/include/c++/11.1.0/tuple"
	.file 120 "/opt/homebrew/Cellar/gcc/11.2.0/include/c++/11.1.0/pstl/execution_defs.h"
	.file 121 "/opt/homebrew/Cellar/gcc/11.2.0/include/c++/11.1.0/bits/postypes.h"
	.file 122 "/opt/homebrew/Cellar/gcc/11.2.0/include/c++/11.1.0/iosfwd"
	.file 123 "/opt/homebrew/Cellar/gcc/11.2.0/include/c++/11.1.0/ext/concurrence.h"
	.file 124 "/opt/homebrew/Cellar/gcc/11.2.0/include/c++/11.1.0/bits/shared_ptr_base.h"
	.file 125 "/opt/homebrew/Cellar/gcc/11.2.0/include/c++/11.1.0/bits/std_mutex.h"
	.file 126 "/opt/homebrew/Cellar/gcc/11.2.0/include/c++/11.1.0/bits/atomic_wait.h"
	.file 127 "/opt/homebrew/Cellar/gcc/11.2.0/include/c++/11.1.0/bits/atomic_base.h"
	.file 128 "/opt/homebrew/Cellar/gcc/11.2.0/include/c++/11.1.0/bits/ranges_uninitialized.h"
	.file 129 "/opt/homebrew/Cellar/gcc/11.2.0/include/c++/11.1.0/atomic"
	.file 130 "/opt/homebrew/Cellar/gcc/11.2.0/include/c++/11.1.0/ratio"
	.file 131 "/opt/homebrew/Cellar/gcc/11.2.0/include/c++/11.1.0/chrono"
	.file 132 "/opt/homebrew/Cellar/gcc/11.2.0/include/c++/11.1.0/bits/std_thread.h"
	.file 133 "/opt/homebrew/Cellar/gcc/11.2.0/include/c++/11.1.0/bits/semaphore_base.h"
	.file 134 "/opt/homebrew/Cellar/gcc/11.2.0/include/c++/11.1.0/stop_token"
	.file 135 "/opt/homebrew/Cellar/gcc/11.2.0/include/c++/11.1.0/semaphore"
	.file 136 "/opt/homebrew/Cellar/gcc/11.2.0/include/c++/11.1.0/condition_variable"
	.file 137 "/opt/homebrew/Cellar/gcc/11.2.0/include/c++/11.1.0/bits/unique_lock.h"
	.file 138 "/opt/homebrew/Cellar/gcc/11.2.0/include/c++/11.1.0/future"
	.file 139 "/opt/homebrew/Cellar/gcc/11.2.0/include/c++/11.1.0/bits/random.h"
	.file 140 "/opt/homebrew/Cellar/gcc/11.2.0/include/c++/11.1.0/bits/regex_constants.h"
	.file 141 "/opt/homebrew/Cellar/gcc/11.2.0/include/c++/11.1.0/bits/regex_error.h"
	.file 142 "/opt/homebrew/Cellar/gcc/11.2.0/include/c++/11.1.0/bits/regex_automaton.h"
	.file 143 "/opt/homebrew/Cellar/gcc/11.2.0/include/c++/11.1.0/shared_mutex"
	.file 144 "/opt/homebrew/Cellar/gcc/11.2.0/include/c++/11.1.0/bits/fs_path.h"
	.file 145 "/opt/homebrew/Cellar/gcc/11.2.0/include/c++/11.1.0/bits/unique_ptr.h"
	.file 146 "/opt/homebrew/Cellar/gcc/11.2.0/include/c++/11.1.0/optional"
	.file 147 "/opt/homebrew/Cellar/gcc/11.2.0/include/c++/11.1.0/variant"
	.file 148 "/opt/homebrew/Cellar/gcc/11.2.0/include/c++/11.1.0/barrier"
	.file 149 "/opt/homebrew/Cellar/gcc/11.2.0/include/c++/11.1.0/coroutine"
	.file 150 "/opt/homebrew/Cellar/gcc/11.2.0/include/c++/11.1.0/ranges"
	.file 151 "/opt/homebrew/Cellar/gcc/11.2.0/include/c++/11.1.0/span"
	.file 152 "/opt/homebrew/Cellar/gcc/11.2.0/include/c++/11.1.0/sstream"
	.file 153 "/opt/homebrew/Cellar/gcc/11.2.0/include/c++/11.1.0/bits/functexcept.h"
	.section __DWARF,__debug_info,regular,debug
Lsection__debug_info:
Ldebug_info0:
	.long	0x813d6
	.short	0x2
	.set L$set$1884,Ldebug_abbrev0-Lsection__debug_abbrev
	.long L$set$1884
	.byte	0x8
	.uleb128 0xc4
	.ascii "GNU C++23 11.1.0 -fPIC -mmacosx-version-min=11.1.0 -mlittle-endian -mabi=lp64 -g -std=c++23\0"
	.byte	0x4
	.ascii "/Users/gera/Downloads/9.cpp\0"
	.ascii "/Users/gera/c\0"
	.byte	0x1
	.quad	Ltext0
	.quad	Letext0
	.set L$set$1885,Ldebug_line0-Lsection__debug_line
	.long L$set$1885
	.uleb128 0x48
	.byte	0x1
	.byte	0x6
	.ascii "signed char\0"
	.uleb128 0x48
	.byte	0x1
	.byte	0x8
	.ascii "unsigned char\0"
	.uleb128 0x7
	.long	0xb8
	.uleb128 0x48
	.byte	0x2
	.byte	0x5
	.ascii "short int\0"
	.uleb128 0x7
	.long	0xce
	.uleb128 0x48
	.byte	0x2
	.byte	0x7
	.ascii "short unsigned int\0"
	.uleb128 0x48
	.byte	0x4
	.byte	0x5
	.ascii "int\0"
	.uleb128 0x7
	.long	0xf6
	.uleb128 0x1b
	.ascii "__uint32_t\0"
	.byte	0x1b
	.byte	0x17
	.byte	0x21
	.long	0x115
	.uleb128 0x48
	.byte	0x4
	.byte	0x7
	.ascii "unsigned int\0"
	.uleb128 0x7
	.long	0x115
	.uleb128 0x1b
	.ascii "__int64_t\0"
	.byte	0x1b
	.byte	0x18
	.byte	0x21
	.long	0x13c
	.uleb128 0x48
	.byte	0x8
	.byte	0x5
	.ascii "long long int\0"
	.uleb128 0x48
	.byte	0x8
	.byte	0x7
	.ascii "long long unsigned int\0"
	.uleb128 0x7
	.long	0x14d
	.uleb128 0x1b
	.ascii "__darwin_intptr_t\0"
	.byte	0x1b
	.byte	0x1b
	.byte	0x21
	.long	0x186
	.uleb128 0x48
	.byte	0x8
	.byte	0x5
	.ascii "long int\0"
	.uleb128 0x7
	.long	0x186
	.uleb128 0xc5
	.byte	0x80
	.byte	0x1b
	.byte	0x36
	.byte	0xf
	.ascii "11__mbstate_t\0"
	.long	0x1d7
	.uleb128 0xac
	.ascii "__mbstate8\0"
	.byte	0x1b
	.byte	0x37
	.byte	0x12
	.long	0x1d7
	.uleb128 0xac
	.ascii "_mbstateL\0"
	.byte	0x1b
	.byte	0x38
	.byte	0x12
	.long	0x13c
	.byte	0
	.uleb128 0x53
	.long	0x201
	.long	0x1e7
	.uleb128 0x5f
	.long	0x1e7
	.byte	0x7f
	.byte	0
	.uleb128 0x48
	.byte	0x8
	.byte	0x7
	.ascii "long unsigned int\0"
	.uleb128 0x7
	.long	0x1e7
	.uleb128 0x48
	.byte	0x1
	.byte	0x6
	.ascii "char\0"
	.uleb128 0x7
	.long	0x201
	.uleb128 0x1b
	.ascii "__mbstate_t\0"
	.byte	0x1b
	.byte	0x39
	.byte	0x3
	.long	0x197
	.uleb128 0x1b
	.ascii "__darwin_mbstate_t\0"
	.byte	0x1b
	.byte	0x3b
	.byte	0x21
	.long	0x20e
	.uleb128 0x1b
	.ascii "__darwin_size_t\0"
	.byte	0x1b
	.byte	0x46
	.byte	0x21
	.long	0x1e7
	.uleb128 0x1b
	.ascii "__darwin_va_list\0"
	.byte	0x1b
	.byte	0x4c
	.byte	0x21
	.long	0x26e
	.uleb128 0xc6
	.byte	0x8
	.ascii "__builtin_va_list\0"
	.long	0x201
	.uleb128 0x1b
	.ascii "__darwin_wint_t\0"
	.byte	0x1b
	.byte	0x5a
	.byte	0x21
	.long	0xf6
	.uleb128 0x1b
	.ascii "__darwin_clock_t\0"
	.byte	0x1b
	.byte	0x5f
	.byte	0x21
	.long	0x1e7
	.uleb128 0x1b
	.ascii "__darwin_time_t\0"
	.byte	0x1b
	.byte	0x62
	.byte	0x21
	.long	0x186
	.uleb128 0x1b
	.ascii "__darwin_off_t\0"
	.byte	0x1c
	.byte	0x47
	.byte	0x19
	.long	0x12a
	.uleb128 0x20
	.ascii "__darwin_pthread_handler_rec\0"
	.byte	0x18
	.byte	0x1d
	.byte	0x39
	.byte	0x8
	.long	0x346
	.uleb128 0x1e
	.ascii "__routine\0"
	.byte	0x1d
	.byte	0x3a
	.byte	0x9
	.long	0x355
	.byte	0x2
	.byte	0x23
	.uleb128 0
	.uleb128 0x1e
	.ascii "__arg\0"
	.byte	0x1d
	.byte	0x3b
	.byte	0x8
	.long	0x352
	.byte	0x2
	.byte	0x23
	.uleb128 0x8
	.uleb128 0x1e
	.ascii "__next\0"
	.byte	0x1d
	.byte	0x3c
	.byte	0x27
	.long	0x35b
	.byte	0x2
	.byte	0x23
	.uleb128 0x10
	.byte	0
	.uleb128 0x93
	.long	0x352
	.uleb128 0x1
	.long	0x352
	.byte	0
	.uleb128 0xc7
	.byte	0x8
	.uleb128 0x8
	.byte	0x8
	.long	0x346
	.uleb128 0x8
	.byte	0x8
	.long	0x2e7
	.uleb128 0x53
	.long	0x201
	.long	0x371
	.uleb128 0x5f
	.long	0x1e7
	.byte	0x37
	.byte	0
	.uleb128 0x20
	.ascii "_opaque_pthread_cond_t\0"
	.byte	0x30
	.byte	0x1d
	.byte	0x44
	.byte	0x8
	.long	0x3b0
	.uleb128 0x3e
	.set L$set$1886,LASF0-Lsection__debug_str
	.long L$set$1886
	.byte	0x1d
	.byte	0x45
	.byte	0x7
	.long	0x186
	.byte	0x2
	.byte	0x23
	.uleb128 0
	.uleb128 0x3e
	.set L$set$1887,LASF1-Lsection__debug_str
	.long L$set$1887
	.byte	0x1d
	.byte	0x46
	.byte	0x7
	.long	0x3b0
	.byte	0x2
	.byte	0x23
	.uleb128 0x8
	.byte	0
	.uleb128 0x53
	.long	0x201
	.long	0x3c0
	.uleb128 0x5f
	.long	0x1e7
	.byte	0x27
	.byte	0
	.uleb128 0x53
	.long	0x201
	.long	0x3d0
	.uleb128 0x5f
	.long	0x1e7
	.byte	0x7
	.byte	0
	.uleb128 0x20
	.ascii "_opaque_pthread_mutex_t\0"
	.byte	0x40
	.byte	0x1d
	.byte	0x4e
	.byte	0x8
	.long	0x410
	.uleb128 0x3e
	.set L$set$1888,LASF0-Lsection__debug_str
	.long L$set$1888
	.byte	0x1d
	.byte	0x4f
	.byte	0x7
	.long	0x186
	.byte	0x2
	.byte	0x23
	.uleb128 0
	.uleb128 0x3e
	.set L$set$1889,LASF1-Lsection__debug_str
	.long L$set$1889
	.byte	0x1d
	.byte	0x50
	.byte	0x7
	.long	0x361
	.byte	0x2
	.byte	0x23
	.uleb128 0x8
	.byte	0
	.uleb128 0x20
	.ascii "_opaque_pthread_once_t\0"
	.byte	0x10
	.byte	0x1d
	.byte	0x58
	.byte	0x8
	.long	0x44f
	.uleb128 0x3e
	.set L$set$1890,LASF0-Lsection__debug_str
	.long L$set$1890
	.byte	0x1d
	.byte	0x59
	.byte	0x7
	.long	0x186
	.byte	0x2
	.byte	0x23
	.uleb128 0
	.uleb128 0x3e
	.set L$set$1891,LASF1-Lsection__debug_str
	.long L$set$1891
	.byte	0x1d
	.byte	0x5a
	.byte	0x7
	.long	0x3c0
	.byte	0x2
	.byte	0x23
	.uleb128 0x8
	.byte	0
	.uleb128 0x53
	.long	0x201
	.long	0x45f
	.uleb128 0x5f
	.long	0x1e7
	.byte	0xf
	.byte	0
	.uleb128 0xc8
	.ascii "_opaque_pthread_t\0"
	.short	0x2000
	.byte	0x1d
	.byte	0x67
	.byte	0x8
	.long	0x4b6
	.uleb128 0x3e
	.set L$set$1892,LASF0-Lsection__debug_str
	.long L$set$1892
	.byte	0x1d
	.byte	0x68
	.byte	0x7
	.long	0x186
	.byte	0x2
	.byte	0x23
	.uleb128 0
	.uleb128 0x1e
	.ascii "__cleanup_stack\0"
	.byte	0x1d
	.byte	0x69
	.byte	0x28
	.long	0x35b
	.byte	0x2
	.byte	0x23
	.uleb128 0x8
	.uleb128 0x3e
	.set L$set$1893,LASF1-Lsection__debug_str
	.long L$set$1893
	.byte	0x1d
	.byte	0x6a
	.byte	0x7
	.long	0x4b6
	.byte	0x2
	.byte	0x23
	.uleb128 0x10
	.byte	0
	.uleb128 0x53
	.long	0x201
	.long	0x4c8
	.uleb128 0xad
	.long	0x1e7
	.short	0x1fef
	.byte	0
	.uleb128 0x1b
	.ascii "__darwin_pthread_cond_t\0"
	.byte	0x1d
	.byte	0x6e
	.byte	0x27
	.long	0x371
	.uleb128 0x1b
	.ascii "__darwin_pthread_mutex_t\0"
	.byte	0x1d
	.byte	0x71
	.byte	0x28
	.long	0x3d0
	.uleb128 0x1b
	.ascii "__darwin_pthread_once_t\0"
	.byte	0x1d
	.byte	0x73
	.byte	0x27
	.long	0x410
	.uleb128 0x1b
	.ascii "__darwin_pthread_t\0"
	.byte	0x1d
	.byte	0x76
	.byte	0x23
	.long	0x544
	.uleb128 0x8
	.byte	0x8
	.long	0x45f
	.uleb128 0x1b
	.ascii "__darwin_wctrans_t\0"
	.byte	0x1e
	.byte	0x29
	.byte	0xe
	.long	0xf6
	.uleb128 0x1b
	.ascii "__darwin_wctype_t\0"
	.byte	0x1e
	.byte	0x2b
	.byte	0x14
	.long	0x102
	.uleb128 0x1b
	.ascii "sig_atomic_t\0"
	.byte	0x1f
	.byte	0x11
	.byte	0xd
	.long	0xf6
	.uleb128 0x1b
	.ascii "int8_t\0"
	.byte	0x20
	.byte	0x1e
	.byte	0x1f
	.long	0xa9
	.uleb128 0x1b
	.ascii "int16_t\0"
	.byte	0x21
	.byte	0x1e
	.byte	0x21
	.long	0xce
	.uleb128 0x1b
	.ascii "int32_t\0"
	.byte	0x22
	.byte	0x1e
	.byte	0x21
	.long	0xf6
	.uleb128 0x1b
	.ascii "int64_t\0"
	.byte	0x23
	.byte	0x1e
	.byte	0x21
	.long	0x13c
	.uleb128 0x1b
	.ascii "intptr_t\0"
	.byte	0x24
	.byte	0x20
	.byte	0x21
	.long	0x16c
	.uleb128 0x1b
	.ascii "uintptr_t\0"
	.byte	0x25
	.byte	0x22
	.byte	0x21
	.long	0x1e7
	.uleb128 0x48
	.byte	0x10
	.byte	0x7
	.ascii "__int128 unsigned\0"
	.uleb128 0x1b
	.ascii "size_t\0"
	.byte	0x26
	.byte	0x1f
	.byte	0x20
	.long	0x23d
	.uleb128 0x93
	.long	0x626
	.uleb128 0x1
	.long	0xf6
	.byte	0
	.uleb128 0x8
	.byte	0x8
	.long	0x61a
	.uleb128 0x8
	.byte	0x8
	.long	0x201
	.uleb128 0x7
	.long	0x62c
	.uleb128 0x1b
	.ascii "uint8_t\0"
	.byte	0x27
	.byte	0x1f
	.byte	0x17
	.long	0xb8
	.uleb128 0x1b
	.ascii "uint16_t\0"
	.byte	0x28
	.byte	0x1f
	.byte	0x18
	.long	0xe0
	.uleb128 0x1b
	.ascii "uint32_t\0"
	.byte	0x29
	.byte	0x1f
	.byte	0x16
	.long	0x115
	.uleb128 0x1b
	.ascii "uint64_t\0"
	.byte	0x2a
	.byte	0x1f
	.byte	0x1c
	.long	0x14d
	.uleb128 0x1b
	.ascii "int_least8_t\0"
	.byte	0x2b
	.byte	0x26
	.byte	0x1a
	.long	0x594
	.uleb128 0x1b
	.ascii "int_least16_t\0"
	.byte	0x2b
	.byte	0x27
	.byte	0x19
	.long	0x5a3
	.uleb128 0x1b
	.ascii "int_least32_t\0"
	.byte	0x2b
	.byte	0x28
	.byte	0x19
	.long	0x5b3
	.uleb128 0x1b
	.ascii "int_least64_t\0"
	.byte	0x2b
	.byte	0x29
	.byte	0x19
	.long	0x5c3
	.uleb128 0x1b
	.ascii "uint_least8_t\0"
	.byte	0x2b
	.byte	0x2a
	.byte	0x19
	.long	0x637
	.uleb128 0x1b
	.ascii "uint_least16_t\0"
	.byte	0x2b
	.byte	0x2b
	.byte	0x18
	.long	0x647
	.uleb128 0x1b
	.ascii "uint_least32_t\0"
	.byte	0x2b
	.byte	0x2c
	.byte	0x18
	.long	0x658
	.uleb128 0x1b
	.ascii "uint_least64_t\0"
	.byte	0x2b
	.byte	0x2d
	.byte	0x18
	.long	0x669
	.uleb128 0x1b
	.ascii "int_fast8_t\0"
	.byte	0x2b
	.byte	0x31
	.byte	0x1b
	.long	0x594
	.uleb128 0x1b
	.ascii "int_fast16_t\0"
	.byte	0x2b
	.byte	0x32
	.byte	0x1a
	.long	0x5a3
	.uleb128 0x1b
	.ascii "int_fast32_t\0"
	.byte	0x2b
	.byte	0x33
	.byte	0x1a
	.long	0x5b3
	.uleb128 0x1b
	.ascii "int_fast64_t\0"
	.byte	0x2b
	.byte	0x34
	.byte	0x1a
	.long	0x5c3
	.uleb128 0x1b
	.ascii "uint_fast8_t\0"
	.byte	0x2b
	.byte	0x35
	.byte	0x1a
	.long	0x637
	.uleb128 0x1b
	.ascii "uint_fast16_t\0"
	.byte	0x2b
	.byte	0x36
	.byte	0x19
	.long	0x647
	.uleb128 0x1b
	.ascii "uint_fast32_t\0"
	.byte	0x2b
	.byte	0x37
	.byte	0x19
	.long	0x658
	.uleb128 0x1b
	.ascii "uint_fast64_t\0"
	.byte	0x2b
	.byte	0x38
	.byte	0x19
	.long	0x669
	.uleb128 0x1b
	.ascii "intmax_t\0"
	.byte	0x2c
	.byte	0x20
	.byte	0x19
	.long	0x186
	.uleb128 0x7
	.long	0x7d6
	.uleb128 0x1b
	.ascii "uintmax_t\0"
	.byte	0x2d
	.byte	0x20
	.byte	0x1a
	.long	0x1e7
	.uleb128 0x7f
	.byte	0x8
	.byte	0x2e
	.byte	0x53
	.byte	0x10
	.ascii "5div_t\0"
	.long	0x82e
	.uleb128 0x1e
	.ascii "quot\0"
	.byte	0x2e
	.byte	0x54
	.byte	0x6
	.long	0xf6
	.byte	0x2
	.byte	0x23
	.uleb128 0
	.uleb128 0x1e
	.ascii "rem\0"
	.byte	0x2e
	.byte	0x55
	.byte	0x6
	.long	0xf6
	.byte	0x2
	.byte	0x23
	.uleb128 0x4
	.byte	0
	.uleb128 0x1b
	.ascii "div_t\0"
	.byte	0x2e
	.byte	0x56
	.byte	0x3
	.long	0x7fe
	.uleb128 0x7f
	.byte	0x10
	.byte	0x2e
	.byte	0x58
	.byte	0x10
	.ascii "6ldiv_t\0"
	.long	0x86d
	.uleb128 0x1e
	.ascii "quot\0"
	.byte	0x2e
	.byte	0x59
	.byte	0x7
	.long	0x186
	.byte	0x2
	.byte	0x23
	.uleb128 0
	.uleb128 0x1e
	.ascii "rem\0"
	.byte	0x2e
	.byte	0x5a
	.byte	0x7
	.long	0x186
	.byte	0x2
	.byte	0x23
	.uleb128 0x8
	.byte	0
	.uleb128 0x1b
	.ascii "ldiv_t\0"
	.byte	0x2e
	.byte	0x5b
	.byte	0x3
	.long	0x83c
	.uleb128 0x7f
	.byte	0x10
	.byte	0x2e
	.byte	0x5e
	.byte	0x10
	.ascii "7lldiv_t\0"
	.long	0x8ae
	.uleb128 0x1e
	.ascii "quot\0"
	.byte	0x2e
	.byte	0x5f
	.byte	0xc
	.long	0x13c
	.byte	0x2
	.byte	0x23
	.uleb128 0
	.uleb128 0x1e
	.ascii "rem\0"
	.byte	0x2e
	.byte	0x60
	.byte	0xc
	.long	0x13c
	.byte	0x2
	.byte	0x23
	.uleb128 0x8
	.byte	0
	.uleb128 0x1b
	.ascii "lldiv_t\0"
	.byte	0x2e
	.byte	0x61
	.byte	0x3
	.long	0x87c
	.uleb128 0xb
	.byte	0x2f
	.byte	0x7f
	.byte	0xb
	.long	0x82e
	.uleb128 0xb
	.byte	0x2f
	.byte	0x80
	.byte	0xb
	.long	0x86d
	.uleb128 0x15
	.byte	0x1
	.ascii "atexit\0"
	.byte	0x2e
	.byte	0x85
	.byte	0x6
	.long	0xf6
	.byte	0x1
	.long	0x8e9
	.uleb128 0x1
	.long	0x8e9
	.byte	0
	.uleb128 0x8
	.byte	0x8
	.long	0x8ef
	.uleb128 0xc9
	.uleb128 0xb
	.byte	0x2f
	.byte	0x86
	.byte	0xb
	.long	0x8ce
	.uleb128 0x15
	.byte	0x1
	.ascii "atof\0"
	.byte	0x2e
	.byte	0x86
	.byte	0x9
	.long	0x912
	.byte	0x1
	.long	0x912
	.uleb128 0x1
	.long	0x921
	.byte	0
	.uleb128 0x48
	.byte	0x8
	.byte	0x4
	.ascii "double\0"
	.uleb128 0x7
	.long	0x912
	.uleb128 0x8
	.byte	0x8
	.long	0x209
	.uleb128 0x7
	.long	0x921
	.uleb128 0xb
	.byte	0x2f
	.byte	0x8c
	.byte	0xb
	.long	0x8f9
	.uleb128 0x15
	.byte	0x1
	.ascii "atoi\0"
	.byte	0x2e
	.byte	0x87
	.byte	0x6
	.long	0xf6
	.byte	0x1
	.long	0x94d
	.uleb128 0x1
	.long	0x921
	.byte	0
	.uleb128 0xb
	.byte	0x2f
	.byte	0x8d
	.byte	0xb
	.long	0x934
	.uleb128 0x15
	.byte	0x1
	.ascii "atol\0"
	.byte	0x2e
	.byte	0x88
	.byte	0x7
	.long	0x186
	.byte	0x1
	.long	0x96e
	.uleb128 0x1
	.long	0x921
	.byte	0
	.uleb128 0xb
	.byte	0x2f
	.byte	0x8e
	.byte	0xb
	.long	0x955
	.uleb128 0x15
	.byte	0x1
	.ascii "bsearch\0"
	.byte	0x2e
	.byte	0x8d
	.byte	0x7
	.long	0x352
	.byte	0x1
	.long	0x9a6
	.uleb128 0x1
	.long	0x9a6
	.uleb128 0x1
	.long	0x9a6
	.uleb128 0x1
	.long	0x60b
	.uleb128 0x1
	.long	0x60b
	.uleb128 0x1
	.long	0x9ae
	.byte	0
	.uleb128 0x8
	.byte	0x8
	.long	0x9ac
	.uleb128 0xca
	.uleb128 0x8
	.byte	0x8
	.long	0x9b4
	.uleb128 0x78
	.long	0xf6
	.long	0x9c8
	.uleb128 0x1
	.long	0x9a6
	.uleb128 0x1
	.long	0x9a6
	.byte	0
	.uleb128 0xb
	.byte	0x2f
	.byte	0x8f
	.byte	0xb
	.long	0x976
	.uleb128 0x15
	.byte	0x1
	.ascii "div\0"
	.byte	0x2e
	.byte	0x90
	.byte	0x8
	.long	0x82e
	.byte	0x1
	.long	0x9ed
	.uleb128 0x1
	.long	0xf6
	.uleb128 0x1
	.long	0xf6
	.byte	0
	.uleb128 0xb
	.byte	0x2f
	.byte	0x91
	.byte	0xb
	.long	0x9d0
	.uleb128 0x15
	.byte	0x1
	.ascii "getenv\0"
	.byte	0x2e
	.byte	0x93
	.byte	0x7
	.long	0x62c
	.byte	0x1
	.long	0xa10
	.uleb128 0x1
	.long	0x921
	.byte	0
	.uleb128 0xb
	.byte	0x2f
	.byte	0x94
	.byte	0xb
	.long	0x9f5
	.uleb128 0x15
	.byte	0x1
	.ascii "ldiv\0"
	.byte	0x2e
	.byte	0x95
	.byte	0x9
	.long	0x86d
	.byte	0x1
	.long	0xa36
	.uleb128 0x1
	.long	0x186
	.uleb128 0x1
	.long	0x186
	.byte	0
	.uleb128 0xb
	.byte	0x2f
	.byte	0x96
	.byte	0xb
	.long	0xa18
	.uleb128 0x15
	.byte	0x1
	.ascii "mblen\0"
	.byte	0x2e
	.byte	0x9c
	.byte	0x6
	.long	0xf6
	.byte	0x1
	.long	0xa5d
	.uleb128 0x1
	.long	0x921
	.uleb128 0x1
	.long	0x60b
	.byte	0
	.uleb128 0xb
	.byte	0x2f
	.byte	0x99
	.byte	0xb
	.long	0xa3e
	.uleb128 0x15
	.byte	0x1
	.ascii "mbstowcs\0"
	.byte	0x2e
	.byte	0x9d
	.byte	0x9
	.long	0x60b
	.byte	0x1
	.long	0xa8c
	.uleb128 0x1
	.long	0xa8c
	.uleb128 0x1
	.long	0x921
	.uleb128 0x1
	.long	0x60b
	.byte	0
	.uleb128 0x8
	.byte	0x8
	.long	0xa97
	.uleb128 0x7
	.long	0xa8c
	.uleb128 0x48
	.byte	0x4
	.byte	0x5
	.ascii "wchar_t\0"
	.uleb128 0x7
	.long	0xa97
	.uleb128 0xb
	.byte	0x2f
	.byte	0x9a
	.byte	0xb
	.long	0xa65
	.uleb128 0x15
	.byte	0x1
	.ascii "mbtowc\0"
	.byte	0x2e
	.byte	0x9e
	.byte	0x6
	.long	0xf6
	.byte	0x1
	.long	0xad4
	.uleb128 0x1
	.long	0xa8c
	.uleb128 0x1
	.long	0x921
	.uleb128 0x1
	.long	0x60b
	.byte	0
	.uleb128 0xb
	.byte	0x2f
	.byte	0x9b
	.byte	0xb
	.long	0xaaf
	.uleb128 0x74
	.byte	0x1
	.ascii "qsort\0"
	.byte	0x2e
	.byte	0xa0
	.byte	0x7
	.byte	0x1
	.long	0xb01
	.uleb128 0x1
	.long	0x352
	.uleb128 0x1
	.long	0x60b
	.uleb128 0x1
	.long	0x60b
	.uleb128 0x1
	.long	0x9ae
	.byte	0
	.uleb128 0xb
	.byte	0x2f
	.byte	0x9d
	.byte	0xb
	.long	0xadc
	.uleb128 0x80
	.byte	0x1
	.ascii "rand\0"
	.byte	0x2e
	.byte	0xa2
	.byte	0x6
	.long	0xf6
	.byte	0x1
	.uleb128 0xb
	.byte	0x2f
	.byte	0xa3
	.byte	0xb
	.long	0xb09
	.uleb128 0x74
	.byte	0x1
	.ascii "srand\0"
	.byte	0x2e
	.byte	0xa4
	.byte	0x7
	.byte	0x1
	.long	0xb37
	.uleb128 0x1
	.long	0x115
	.byte	0
	.uleb128 0xb
	.byte	0x2f
	.byte	0xa5
	.byte	0xb
	.long	0xb21
	.uleb128 0x17
	.byte	0x1
	.ascii "strtod\0"
	.byte	0x2e
	.byte	0xa5
	.byte	0x9
	.ascii "_strtod\0"
	.long	0x912
	.byte	0x1
	.long	0xb67
	.uleb128 0x1
	.long	0x921
	.uleb128 0x1
	.long	0xb67
	.byte	0
	.uleb128 0x8
	.byte	0x8
	.long	0x62c
	.uleb128 0xb
	.byte	0x2f
	.byte	0xa6
	.byte	0xb
	.long	0xb3f
	.uleb128 0x15
	.byte	0x1
	.ascii "strtol\0"
	.byte	0x2e
	.byte	0xa7
	.byte	0x7
	.long	0x186
	.byte	0x1
	.long	0xb9a
	.uleb128 0x1
	.long	0x921
	.uleb128 0x1
	.long	0xb67
	.uleb128 0x1
	.long	0xf6
	.byte	0
	.uleb128 0xb
	.byte	0x2f
	.byte	0xa7
	.byte	0xb
	.long	0xb75
	.uleb128 0x15
	.byte	0x1
	.ascii "strtoul\0"
	.byte	0x2e
	.byte	0xaf
	.byte	0x3
	.long	0x1e7
	.byte	0x1
	.long	0xbc8
	.uleb128 0x1
	.long	0x921
	.uleb128 0x1
	.long	0xb67
	.uleb128 0x1
	.long	0xf6
	.byte	0
	.uleb128 0xb
	.byte	0x2f
	.byte	0xa8
	.byte	0xb
	.long	0xba2
	.uleb128 0x17
	.byte	0x1
	.ascii "system\0"
	.byte	0x2e
	.byte	0xb8
	.byte	0x6
	.ascii "_system\0"
	.long	0xf6
	.byte	0x1
	.long	0xbf3
	.uleb128 0x1
	.long	0x921
	.byte	0
	.uleb128 0xb
	.byte	0x2f
	.byte	0xa9
	.byte	0xb
	.long	0xbd0
	.uleb128 0x15
	.byte	0x1
	.ascii "wcstombs\0"
	.byte	0x2e
	.byte	0xbb
	.byte	0x9
	.long	0x60b
	.byte	0x1
	.long	0xc22
	.uleb128 0x1
	.long	0x62c
	.uleb128 0x1
	.long	0xc22
	.uleb128 0x1
	.long	0x60b
	.byte	0
	.uleb128 0x8
	.byte	0x8
	.long	0xaa2
	.uleb128 0x7
	.long	0xc22
	.uleb128 0xb
	.byte	0x2f
	.byte	0xab
	.byte	0xb
	.long	0xbfb
	.uleb128 0x15
	.byte	0x1
	.ascii "wctomb\0"
	.byte	0x2e
	.byte	0xbc
	.byte	0x6
	.long	0xf6
	.byte	0x1
	.long	0xc55
	.uleb128 0x1
	.long	0x62c
	.uleb128 0x1
	.long	0xa97
	.byte	0
	.uleb128 0xb
	.byte	0x2f
	.byte	0xac
	.byte	0xb
	.long	0xc35
	.uleb128 0xb
	.byte	0x2f
	.byte	0xc8
	.byte	0xb
	.long	0x8ae
	.uleb128 0x15
	.byte	0x1
	.ascii "lldiv\0"
	.byte	0x2e
	.byte	0x99
	.byte	0xa
	.long	0x8ae
	.byte	0x1
	.long	0xc84
	.uleb128 0x1
	.long	0x13c
	.uleb128 0x1
	.long	0x13c
	.byte	0
	.uleb128 0xb
	.byte	0x2f
	.byte	0xd8
	.byte	0xb
	.long	0xc65
	.uleb128 0x15
	.byte	0x1
	.ascii "atoll\0"
	.byte	0x2e
	.byte	0x8b
	.byte	0x3
	.long	0x13c
	.byte	0x1
	.long	0xca6
	.uleb128 0x1
	.long	0x921
	.byte	0
	.uleb128 0xb
	.byte	0x2f
	.byte	0xe3
	.byte	0xb
	.long	0xc8c
	.uleb128 0x15
	.byte	0x1
	.ascii "strtoll\0"
	.byte	0x2e
	.byte	0xac
	.byte	0x3
	.long	0x13c
	.byte	0x1
	.long	0xcd4
	.uleb128 0x1
	.long	0x921
	.uleb128 0x1
	.long	0xb67
	.uleb128 0x1
	.long	0xf6
	.byte	0
	.uleb128 0xb
	.byte	0x2f
	.byte	0xe4
	.byte	0xb
	.long	0xcae
	.uleb128 0x15
	.byte	0x1
	.ascii "strtoull\0"
	.byte	0x2e
	.byte	0xb2
	.byte	0x3
	.long	0x14d
	.byte	0x1
	.long	0xd03
	.uleb128 0x1
	.long	0x921
	.uleb128 0x1
	.long	0xb67
	.uleb128 0x1
	.long	0xf6
	.byte	0
	.uleb128 0xb
	.byte	0x2f
	.byte	0xe5
	.byte	0xb
	.long	0xcdc
	.uleb128 0x17
	.byte	0x1
	.ascii "strtof\0"
	.byte	0x2e
	.byte	0xa6
	.byte	0x8
	.ascii "_strtof\0"
	.long	0xd33
	.byte	0x1
	.long	0xd33
	.uleb128 0x1
	.long	0x921
	.uleb128 0x1
	.long	0xb67
	.byte	0
	.uleb128 0x48
	.byte	0x4
	.byte	0x4
	.ascii "float\0"
	.uleb128 0xb
	.byte	0x2f
	.byte	0xe7
	.byte	0xb
	.long	0xd0b
	.uleb128 0x15
	.byte	0x1
	.ascii "strtold\0"
	.byte	0x2e
	.byte	0xa9
	.byte	0x3
	.long	0xd65
	.byte	0x1
	.long	0xd65
	.uleb128 0x1
	.long	0x921
	.uleb128 0x1
	.long	0xb67
	.byte	0
	.uleb128 0x48
	.byte	0x8
	.byte	0x4
	.ascii "long double\0"
	.uleb128 0xb
	.byte	0x2f
	.byte	0xe8
	.byte	0xb
	.long	0xd44
	.uleb128 0xb
	.byte	0x2f
	.byte	0xf0
	.byte	0x16
	.long	0x8ae
	.uleb128 0x17
	.byte	0x1
	.ascii "div\0"
	.byte	0x2f
	.byte	0xd5
	.byte	0x3
	.ascii "_ZN9__gnu_cxx3divExx\0"
	.long	0x8ae
	.byte	0x1
	.long	0xdb6
	.uleb128 0x1
	.long	0x13c
	.uleb128 0x1
	.long	0x13c
	.byte	0
	.uleb128 0xb
	.byte	0x2f
	.byte	0xf5
	.byte	0x16
	.long	0xd84
	.uleb128 0xb
	.byte	0x2f
	.byte	0xf6
	.byte	0x16
	.long	0xc65
	.uleb128 0xb
	.byte	0x2f
	.byte	0xf8
	.byte	0x16
	.long	0xc8c
	.uleb128 0xb
	.byte	0x2f
	.byte	0xf9
	.byte	0x16
	.long	0xd0b
	.uleb128 0xb
	.byte	0x2f
	.byte	0xfa
	.byte	0x16
	.long	0xcae
	.uleb128 0xb
	.byte	0x2f
	.byte	0xfb
	.byte	0x16
	.long	0xcdc
	.uleb128 0xb
	.byte	0x2f
	.byte	0xfc
	.byte	0x16
	.long	0xd44
	.uleb128 0xb
	.byte	0x30
	.byte	0x27
	.byte	0xc
	.long	0x8ce
	.uleb128 0xb
	.byte	0x30
	.byte	0x33
	.byte	0xc
	.long	0x82e
	.uleb128 0xb
	.byte	0x30
	.byte	0x34
	.byte	0xc
	.long	0x86d
	.uleb128 0x17
	.byte	0x1
	.ascii "abs\0"
	.byte	0x31
	.byte	0x4f
	.byte	0x3
	.ascii "_ZSt3abse\0"
	.long	0xd65
	.byte	0x1
	.long	0xe28
	.uleb128 0x1
	.long	0xd65
	.byte	0
	.uleb128 0xb
	.byte	0x30
	.byte	0x36
	.byte	0xc
	.long	0xe06
	.uleb128 0x17
	.byte	0x1
	.ascii "abs\0"
	.byte	0x31
	.byte	0x4b
	.byte	0x3
	.ascii "_ZSt3absf\0"
	.long	0xd33
	.byte	0x1
	.long	0xe52
	.uleb128 0x1
	.long	0xd33
	.byte	0
	.uleb128 0xb
	.byte	0x30
	.byte	0x36
	.byte	0xc
	.long	0xe30
	.uleb128 0x17
	.byte	0x1
	.ascii "abs\0"
	.byte	0x31
	.byte	0x47
	.byte	0x3
	.ascii "_ZSt3absd\0"
	.long	0x912
	.byte	0x1
	.long	0xe7c
	.uleb128 0x1
	.long	0x912
	.byte	0
	.uleb128 0xb
	.byte	0x30
	.byte	0x36
	.byte	0xc
	.long	0xe5a
	.uleb128 0x17
	.byte	0x1
	.ascii "abs\0"
	.byte	0x31
	.byte	0x3d
	.byte	0x3
	.ascii "_ZSt3absx\0"
	.long	0x13c
	.byte	0x1
	.long	0xea6
	.uleb128 0x1
	.long	0x13c
	.byte	0
	.uleb128 0xb
	.byte	0x30
	.byte	0x36
	.byte	0xc
	.long	0xe84
	.uleb128 0x17
	.byte	0x1
	.ascii "abs\0"
	.byte	0x31
	.byte	0x38
	.byte	0x3
	.ascii "_ZSt3absl\0"
	.long	0x186
	.byte	0x1
	.long	0xed0
	.uleb128 0x1
	.long	0x186
	.byte	0
	.uleb128 0xb
	.byte	0x30
	.byte	0x36
	.byte	0xc
	.long	0xeae
	.uleb128 0xb
	.byte	0x30
	.byte	0x37
	.byte	0xc
	.long	0x8f9
	.uleb128 0xb
	.byte	0x30
	.byte	0x38
	.byte	0xc
	.long	0x934
	.uleb128 0xb
	.byte	0x30
	.byte	0x39
	.byte	0xc
	.long	0x955
	.uleb128 0xb
	.byte	0x30
	.byte	0x3a
	.byte	0xc
	.long	0x976
	.uleb128 0xb
	.byte	0x30
	.byte	0x3c
	.byte	0xc
	.long	0xd84
	.uleb128 0x17
	.byte	0x1
	.ascii "div\0"
	.byte	0x2f
	.byte	0xb1
	.byte	0x3
	.ascii "_ZSt3divll\0"
	.long	0x86d
	.byte	0x1
	.long	0xf28
	.uleb128 0x1
	.long	0x186
	.uleb128 0x1
	.long	0x186
	.byte	0
	.uleb128 0xb
	.byte	0x30
	.byte	0x3c
	.byte	0xc
	.long	0xf00
	.uleb128 0xb
	.byte	0x30
	.byte	0x3c
	.byte	0xc
	.long	0x9d0
	.uleb128 0xb
	.byte	0x30
	.byte	0x3e
	.byte	0xc
	.long	0x9f5
	.uleb128 0xb
	.byte	0x30
	.byte	0x40
	.byte	0xc
	.long	0xa18
	.uleb128 0xb
	.byte	0x30
	.byte	0x43
	.byte	0xc
	.long	0xa3e
	.uleb128 0xb
	.byte	0x30
	.byte	0x44
	.byte	0xc
	.long	0xa65
	.uleb128 0xb
	.byte	0x30
	.byte	0x45
	.byte	0xc
	.long	0xaaf
	.uleb128 0xb
	.byte	0x30
	.byte	0x47
	.byte	0xc
	.long	0xadc
	.uleb128 0xb
	.byte	0x30
	.byte	0x48
	.byte	0xc
	.long	0xb09
	.uleb128 0xb
	.byte	0x30
	.byte	0x4a
	.byte	0xc
	.long	0xb21
	.uleb128 0xb
	.byte	0x30
	.byte	0x4b
	.byte	0xc
	.long	0xb3f
	.uleb128 0xb
	.byte	0x30
	.byte	0x4c
	.byte	0xc
	.long	0xb75
	.uleb128 0xb
	.byte	0x30
	.byte	0x4d
	.byte	0xc
	.long	0xba2
	.uleb128 0xb
	.byte	0x30
	.byte	0x4e
	.byte	0xc
	.long	0xbd0
	.uleb128 0xb
	.byte	0x30
	.byte	0x50
	.byte	0xc
	.long	0xbfb
	.uleb128 0xb
	.byte	0x30
	.byte	0x51
	.byte	0xc
	.long	0xc35
	.uleb128 0x1b
	.ascii "wint_t\0"
	.byte	0x32
	.byte	0x20
	.byte	0x19
	.long	0x287
	.uleb128 0x8
	.byte	0x8
	.long	0x921
	.uleb128 0x17
	.byte	0x1
	.ascii "isalnum\0"
	.byte	0x33
	.byte	0xd4
	.byte	0x1
	.ascii "_Z7isalnumi\0"
	.long	0xf6
	.byte	0x1
	.long	0xfe5
	.uleb128 0x1
	.long	0xf6
	.byte	0
	.uleb128 0xb
	.byte	0x34
	.byte	0x40
	.byte	0xb
	.long	0xfbd
	.uleb128 0x17
	.byte	0x1
	.ascii "isalpha\0"
	.byte	0x33
	.byte	0xda
	.byte	0x1
	.ascii "_Z7isalphai\0"
	.long	0xf6
	.byte	0x1
	.long	0x1015
	.uleb128 0x1
	.long	0xf6
	.byte	0
	.uleb128 0xb
	.byte	0x34
	.byte	0x41
	.byte	0xb
	.long	0xfed
	.uleb128 0x17
	.byte	0x1
	.ascii "iscntrl\0"
	.byte	0x33
	.byte	0xe6
	.byte	0x1
	.ascii "_Z7iscntrli\0"
	.long	0xf6
	.byte	0x1
	.long	0x1045
	.uleb128 0x1
	.long	0xf6
	.byte	0
	.uleb128 0xb
	.byte	0x34
	.byte	0x42
	.byte	0xb
	.long	0x101d
	.uleb128 0x17
	.byte	0x1
	.ascii "isdigit\0"
	.byte	0x33
	.byte	0xed
	.byte	0x1
	.ascii "_Z7isdigiti\0"
	.long	0xf6
	.byte	0x1
	.long	0x1075
	.uleb128 0x1
	.long	0xf6
	.byte	0
	.uleb128 0xb
	.byte	0x34
	.byte	0x43
	.byte	0xb
	.long	0x104d
	.uleb128 0x17
	.byte	0x1
	.ascii "isgraph\0"
	.byte	0x33
	.byte	0xf3
	.byte	0x1
	.ascii "_Z7isgraphi\0"
	.long	0xf6
	.byte	0x1
	.long	0x10a5
	.uleb128 0x1
	.long	0xf6
	.byte	0
	.uleb128 0xb
	.byte	0x34
	.byte	0x44
	.byte	0xb
	.long	0x107d
	.uleb128 0x17
	.byte	0x1
	.ascii "islower\0"
	.byte	0x33
	.byte	0xf9
	.byte	0x1
	.ascii "_Z7isloweri\0"
	.long	0xf6
	.byte	0x1
	.long	0x10d5
	.uleb128 0x1
	.long	0xf6
	.byte	0
	.uleb128 0xb
	.byte	0x34
	.byte	0x45
	.byte	0xb
	.long	0x10ad
	.uleb128 0x17
	.byte	0x1
	.ascii "isprint\0"
	.byte	0x33
	.byte	0xff
	.byte	0x1
	.ascii "_Z7isprinti\0"
	.long	0xf6
	.byte	0x1
	.long	0x1105
	.uleb128 0x1
	.long	0xf6
	.byte	0
	.uleb128 0xb
	.byte	0x34
	.byte	0x46
	.byte	0xb
	.long	0x10dd
	.uleb128 0x16
	.byte	0x1
	.ascii "ispunct\0"
	.byte	0x33
	.short	0x105
	.byte	0x1
	.ascii "_Z7ispuncti\0"
	.long	0xf6
	.byte	0x1
	.long	0x1136
	.uleb128 0x1
	.long	0xf6
	.byte	0
	.uleb128 0xb
	.byte	0x34
	.byte	0x47
	.byte	0xb
	.long	0x110d
	.uleb128 0x16
	.byte	0x1
	.ascii "isspace\0"
	.byte	0x33
	.short	0x10b
	.byte	0x1
	.ascii "_Z7isspacei\0"
	.long	0xf6
	.byte	0x1
	.long	0x1167
	.uleb128 0x1
	.long	0xf6
	.byte	0
	.uleb128 0xb
	.byte	0x34
	.byte	0x48
	.byte	0xb
	.long	0x113e
	.uleb128 0x16
	.byte	0x1
	.ascii "isupper\0"
	.byte	0x33
	.short	0x111
	.byte	0x1
	.ascii "_Z7isupperi\0"
	.long	0xf6
	.byte	0x1
	.long	0x1198
	.uleb128 0x1
	.long	0xf6
	.byte	0
	.uleb128 0xb
	.byte	0x34
	.byte	0x49
	.byte	0xb
	.long	0x116f
	.uleb128 0x16
	.byte	0x1
	.ascii "isxdigit\0"
	.byte	0x33
	.short	0x118
	.byte	0x1
	.ascii "_Z8isxdigiti\0"
	.long	0xf6
	.byte	0x1
	.long	0x11cb
	.uleb128 0x1
	.long	0xf6
	.byte	0
	.uleb128 0xb
	.byte	0x34
	.byte	0x4a
	.byte	0xb
	.long	0x11a0
	.uleb128 0x16
	.byte	0x1
	.ascii "tolower\0"
	.byte	0x33
	.short	0x124
	.byte	0x1
	.ascii "_Z7toloweri\0"
	.long	0xf6
	.byte	0x1
	.long	0x11fc
	.uleb128 0x1
	.long	0xf6
	.byte	0
	.uleb128 0xb
	.byte	0x34
	.byte	0x4b
	.byte	0xb
	.long	0x11d3
	.uleb128 0x16
	.byte	0x1
	.ascii "toupper\0"
	.byte	0x33
	.short	0x12a
	.byte	0x1
	.ascii "_Z7toupperi\0"
	.long	0xf6
	.byte	0x1
	.long	0x122d
	.uleb128 0x1
	.long	0xf6
	.byte	0
	.uleb128 0xb
	.byte	0x34
	.byte	0x4c
	.byte	0xb
	.long	0x1204
	.uleb128 0x17
	.byte	0x1
	.ascii "isblank\0"
	.byte	0x33
	.byte	0xe0
	.byte	0x1
	.ascii "_Z7isblanki\0"
	.long	0xf6
	.byte	0x1
	.long	0x125d
	.uleb128 0x1
	.long	0xf6
	.byte	0
	.uleb128 0xb
	.byte	0x34
	.byte	0x57
	.byte	0xb
	.long	0x1235
	.uleb128 0x20
	.ascii "lconv\0"
	.byte	0x60
	.byte	0x35
	.byte	0x2b
	.byte	0x8
	.long	0x14e7
	.uleb128 0x1e
	.ascii "decimal_point\0"
	.byte	0x35
	.byte	0x2c
	.byte	0x8
	.long	0x62c
	.byte	0x2
	.byte	0x23
	.uleb128 0
	.uleb128 0x1e
	.ascii "thousands_sep\0"
	.byte	0x35
	.byte	0x2d
	.byte	0x8
	.long	0x62c
	.byte	0x2
	.byte	0x23
	.uleb128 0x8
	.uleb128 0x1e
	.ascii "grouping\0"
	.byte	0x35
	.byte	0x2e
	.byte	0x8
	.long	0x62c
	.byte	0x2
	.byte	0x23
	.uleb128 0x10
	.uleb128 0x1e
	.ascii "int_curr_symbol\0"
	.byte	0x35
	.byte	0x2f
	.byte	0x8
	.long	0x62c
	.byte	0x2
	.byte	0x23
	.uleb128 0x18
	.uleb128 0x1e
	.ascii "currency_symbol\0"
	.byte	0x35
	.byte	0x30
	.byte	0x8
	.long	0x62c
	.byte	0x2
	.byte	0x23
	.uleb128 0x20
	.uleb128 0x1e
	.ascii "mon_decimal_point\0"
	.byte	0x35
	.byte	0x31
	.byte	0x8
	.long	0x62c
	.byte	0x2
	.byte	0x23
	.uleb128 0x28
	.uleb128 0x1e
	.ascii "mon_thousands_sep\0"
	.byte	0x35
	.byte	0x32
	.byte	0x8
	.long	0x62c
	.byte	0x2
	.byte	0x23
	.uleb128 0x30
	.uleb128 0x1e
	.ascii "mon_grouping\0"
	.byte	0x35
	.byte	0x33
	.byte	0x8
	.long	0x62c
	.byte	0x2
	.byte	0x23
	.uleb128 0x38
	.uleb128 0x1e
	.ascii "positive_sign\0"
	.byte	0x35
	.byte	0x34
	.byte	0x8
	.long	0x62c
	.byte	0x2
	.byte	0x23
	.uleb128 0x40
	.uleb128 0x1e
	.ascii "negative_sign\0"
	.byte	0x35
	.byte	0x35
	.byte	0x8
	.long	0x62c
	.byte	0x2
	.byte	0x23
	.uleb128 0x48
	.uleb128 0x1e
	.ascii "int_frac_digits\0"
	.byte	0x35
	.byte	0x36
	.byte	0x7
	.long	0x201
	.byte	0x2
	.byte	0x23
	.uleb128 0x50
	.uleb128 0x1e
	.ascii "frac_digits\0"
	.byte	0x35
	.byte	0x37
	.byte	0x7
	.long	0x201
	.byte	0x2
	.byte	0x23
	.uleb128 0x51
	.uleb128 0x1e
	.ascii "p_cs_precedes\0"
	.byte	0x35
	.byte	0x38
	.byte	0x7
	.long	0x201
	.byte	0x2
	.byte	0x23
	.uleb128 0x52
	.uleb128 0x1e
	.ascii "p_sep_by_space\0"
	.byte	0x35
	.byte	0x39
	.byte	0x7
	.long	0x201
	.byte	0x2
	.byte	0x23
	.uleb128 0x53
	.uleb128 0x1e
	.ascii "n_cs_precedes\0"
	.byte	0x35
	.byte	0x3a
	.byte	0x7
	.long	0x201
	.byte	0x2
	.byte	0x23
	.uleb128 0x54
	.uleb128 0x1e
	.ascii "n_sep_by_space\0"
	.byte	0x35
	.byte	0x3b
	.byte	0x7
	.long	0x201
	.byte	0x2
	.byte	0x23
	.uleb128 0x55
	.uleb128 0x1e
	.ascii "p_sign_posn\0"
	.byte	0x35
	.byte	0x3c
	.byte	0x7
	.long	0x201
	.byte	0x2
	.byte	0x23
	.uleb128 0x56
	.uleb128 0x1e
	.ascii "n_sign_posn\0"
	.byte	0x35
	.byte	0x3d
	.byte	0x7
	.long	0x201
	.byte	0x2
	.byte	0x23
	.uleb128 0x57
	.uleb128 0x1e
	.ascii "int_p_cs_precedes\0"
	.byte	0x35
	.byte	0x3e
	.byte	0x7
	.long	0x201
	.byte	0x2
	.byte	0x23
	.uleb128 0x58
	.uleb128 0x1e
	.ascii "int_n_cs_precedes\0"
	.byte	0x35
	.byte	0x3f
	.byte	0x7
	.long	0x201
	.byte	0x2
	.byte	0x23
	.uleb128 0x59
	.uleb128 0x1e
	.ascii "int_p_sep_by_space\0"
	.byte	0x35
	.byte	0x40
	.byte	0x7
	.long	0x201
	.byte	0x2
	.byte	0x23
	.uleb128 0x5a
	.uleb128 0x1e
	.ascii "int_n_sep_by_space\0"
	.byte	0x35
	.byte	0x41
	.byte	0x7
	.long	0x201
	.byte	0x2
	.byte	0x23
	.uleb128 0x5b
	.uleb128 0x1e
	.ascii "int_p_sign_posn\0"
	.byte	0x35
	.byte	0x42
	.byte	0x7
	.long	0x201
	.byte	0x2
	.byte	0x23
	.uleb128 0x5c
	.uleb128 0x1e
	.ascii "int_n_sign_posn\0"
	.byte	0x35
	.byte	0x43
	.byte	0x7
	.long	0x201
	.byte	0x2
	.byte	0x23
	.uleb128 0x5d
	.byte	0
	.uleb128 0xb
	.byte	0x36
	.byte	0x35
	.byte	0xb
	.long	0x1265
	.uleb128 0x15
	.byte	0x1
	.ascii "setlocale\0"
	.byte	0x37
	.byte	0x35
	.byte	0x8
	.long	0x62c
	.byte	0x1
	.long	0x1512
	.uleb128 0x1
	.long	0xf6
	.uleb128 0x1
	.long	0x921
	.byte	0
	.uleb128 0xb
	.byte	0x36
	.byte	0x36
	.byte	0xb
	.long	0x14ef
	.uleb128 0x80
	.byte	0x1
	.ascii "localeconv\0"
	.byte	0x35
	.byte	0x49
	.byte	0xf
	.long	0x1530
	.byte	0x1
	.uleb128 0x8
	.byte	0x8
	.long	0x1265
	.uleb128 0xb
	.byte	0x36
	.byte	0x37
	.byte	0xb
	.long	0x151a
	.uleb128 0x4b
	.ascii "__false_type\0"
	.byte	0x1
	.byte	0xd
	.byte	0x4a
	.byte	0xa
	.uleb128 0x29
	.ascii "__is_memcmp_ordered_with<std::byte, std::byte, true>\0"
	.byte	0x1
	.uleb128 0x48
	.byte	0x1
	.byte	0x2
	.ascii "bool\0"
	.uleb128 0x7
	.long	0x1587
	.uleb128 0x28
	.long	0x1550
	.byte	0x1
	.byte	0xd
	.short	0x215
	.byte	0xc
	.long	0x15c9
	.uleb128 0x4c
	.ascii "__value\0"
	.byte	0xd
	.short	0x216
	.byte	0x1d
	.long	0x158f
	.byte	0x1
	.byte	0x1
	.byte	0x1
	.uleb128 0xe
	.ascii "_Tp\0"
	.long	0xd084
	.uleb128 0xe
	.ascii "_Up\0"
	.long	0xd084
	.byte	0
	.uleb128 0xcb
	.long	0x15a2
	.ascii "_ZNSt24__is_memcmp_ordered_withISt4byteS0_Lb1EE7__valueE\0"
	.uleb128 0x1b
	.ascii "float_t\0"
	.byte	0x38
	.byte	0x3b
	.byte	0x13
	.long	0xd33
	.uleb128 0x1b
	.ascii "double_t\0"
	.byte	0x38
	.byte	0x3c
	.byte	0x14
	.long	0x912
	.uleb128 0x14
	.byte	0x39
	.short	0x429
	.byte	0xb
	.long	0x1618
	.uleb128 0x14
	.byte	0x39
	.short	0x42a
	.byte	0xb
	.long	0x1608
	.uleb128 0x20
	.ascii "__numeric_traits_floating<float>\0"
	.byte	0x1
	.byte	0x3a
	.byte	0x9c
	.byte	0xc
	.long	0x16a7
	.uleb128 0x1d
	.set L$set$1894,LASF2-Lsection__debug_str
	.long L$set$1894
	.byte	0x3a
	.byte	0x9f
	.byte	0x18
	.long	0xfd
	.byte	0x1
	.byte	0x1
	.uleb128 0x1d
	.set L$set$1895,LASF3-Lsection__debug_str
	.long L$set$1895
	.byte	0x3a
	.byte	0xa2
	.byte	0x19
	.long	0x158f
	.byte	0x1
	.byte	0x1
	.uleb128 0x1d
	.set L$set$1896,LASF4-Lsection__debug_str
	.long L$set$1896
	.byte	0x3a
	.byte	0xa3
	.byte	0x18
	.long	0xfd
	.byte	0x1
	.byte	0x1
	.uleb128 0x1d
	.set L$set$1897,LASF5-Lsection__debug_str
	.long L$set$1897
	.byte	0x3a
	.byte	0xa4
	.byte	0x18
	.long	0xfd
	.byte	0x1
	.byte	0x1
	.uleb128 0x10
	.set L$set$1898,LASF6-Lsection__debug_str
	.long L$set$1898
	.long	0xd33
	.byte	0
	.uleb128 0x20
	.ascii "__numeric_traits_floating<double>\0"
	.byte	0x1
	.byte	0x3a
	.byte	0x9c
	.byte	0xc
	.long	0x1714
	.uleb128 0x1d
	.set L$set$1899,LASF2-Lsection__debug_str
	.long L$set$1899
	.byte	0x3a
	.byte	0x9f
	.byte	0x18
	.long	0xfd
	.byte	0x1
	.byte	0x1
	.uleb128 0x1d
	.set L$set$1900,LASF3-Lsection__debug_str
	.long L$set$1900
	.byte	0x3a
	.byte	0xa2
	.byte	0x19
	.long	0x158f
	.byte	0x1
	.byte	0x1
	.uleb128 0x1d
	.set L$set$1901,LASF4-Lsection__debug_str
	.long L$set$1901
	.byte	0x3a
	.byte	0xa3
	.byte	0x18
	.long	0xfd
	.byte	0x1
	.byte	0x1
	.uleb128 0x1d
	.set L$set$1902,LASF5-Lsection__debug_str
	.long L$set$1902
	.byte	0x3a
	.byte	0xa4
	.byte	0x18
	.long	0xfd
	.byte	0x1
	.byte	0x1
	.uleb128 0x10
	.set L$set$1903,LASF6-Lsection__debug_str
	.long L$set$1903
	.long	0x912
	.byte	0
	.uleb128 0x20
	.ascii "__numeric_traits_floating<long double>\0"
	.byte	0x1
	.byte	0x3a
	.byte	0x9c
	.byte	0xc
	.long	0x1786
	.uleb128 0x1d
	.set L$set$1904,LASF2-Lsection__debug_str
	.long L$set$1904
	.byte	0x3a
	.byte	0x9f
	.byte	0x18
	.long	0xfd
	.byte	0x1
	.byte	0x1
	.uleb128 0x1d
	.set L$set$1905,LASF3-Lsection__debug_str
	.long L$set$1905
	.byte	0x3a
	.byte	0xa2
	.byte	0x19
	.long	0x158f
	.byte	0x1
	.byte	0x1
	.uleb128 0x1d
	.set L$set$1906,LASF4-Lsection__debug_str
	.long L$set$1906
	.byte	0x3a
	.byte	0xa3
	.byte	0x18
	.long	0xfd
	.byte	0x1
	.byte	0x1
	.uleb128 0x1d
	.set L$set$1907,LASF5-Lsection__debug_str
	.long L$set$1907
	.byte	0x3a
	.byte	0xa4
	.byte	0x18
	.long	0xfd
	.byte	0x1
	.byte	0x1
	.uleb128 0x10
	.set L$set$1908,LASF6-Lsection__debug_str
	.long L$set$1908
	.long	0xd65
	.byte	0
	.uleb128 0x20
	.ascii "integral_constant<bool, false>\0"
	.byte	0x1
	.byte	0x1
	.byte	0x39
	.byte	0xc
	.long	0x188e
	.uleb128 0x1d
	.set L$set$1909,LASF7-Lsection__debug_str
	.long L$set$1909
	.byte	0x1
	.byte	0x3b
	.byte	0x2d
	.long	0x158f
	.byte	0x1
	.byte	0x1
	.uleb128 0xc
	.set L$set$1910,LASF8-Lsection__debug_str
	.long L$set$1910
	.byte	0x1
	.byte	0x3c
	.byte	0x2d
	.long	0x1587
	.uleb128 0x17
	.byte	0x1
	.ascii "operator std::integral_constant<bool, false>::value_type\0"
	.byte	0x1
	.byte	0x3e
	.byte	0x11
	.ascii "_ZNKSt17integral_constantIbLb0EEcvbEv\0"
	.long	0x17bc
	.byte	0x1
	.long	0x183c
	.uleb128 0x2
	.long	0x18c0
	.byte	0x1
	.byte	0
	.uleb128 0xd
	.byte	0x1
	.set L$set$1911,LASF9-Lsection__debug_str
	.long L$set$1911
	.byte	0x1
	.byte	0x43
	.byte	0x1c
	.ascii "_ZNKSt17integral_constantIbLb0EEclEv\0"
	.long	0x17bc
	.byte	0x1
	.long	0x187a
	.uleb128 0x2
	.long	0x18c0
	.byte	0x1
	.byte	0
	.uleb128 0xe
	.ascii "_Tp\0"
	.long	0x1587
	.uleb128 0x33
	.ascii "__v\0"
	.long	0x1587
	.byte	0
	.byte	0
	.uleb128 0x7
	.long	0x1786
	.uleb128 0x2a
	.ascii "_ZNSt17integral_constantIbLb0EE5valueE\0"
	.long	0x17ae
	.byte	0
	.uleb128 0x8
	.byte	0x8
	.long	0x188e
	.uleb128 0x20
	.ascii "integral_constant<bool, true>\0"
	.byte	0x1
	.byte	0x1
	.byte	0x39
	.byte	0xc
	.long	0x19cc
	.uleb128 0x1d
	.set L$set$1912,LASF7-Lsection__debug_str
	.long L$set$1912
	.byte	0x1
	.byte	0x3b
	.byte	0x2d
	.long	0x158f
	.byte	0x1
	.byte	0x1
	.uleb128 0xc
	.set L$set$1913,LASF8-Lsection__debug_str
	.long L$set$1913
	.byte	0x1
	.byte	0x3c
	.byte	0x2d
	.long	0x1587
	.uleb128 0x17
	.byte	0x1
	.ascii "operator std::integral_constant<bool, true>::value_type\0"
	.byte	0x1
	.byte	0x3e
	.byte	0x11
	.ascii "_ZNKSt17integral_constantIbLb1EEcvbEv\0"
	.long	0x18fb
	.byte	0x1
	.long	0x197a
	.uleb128 0x2
	.long	0x19fe
	.byte	0x1
	.byte	0
	.uleb128 0xd
	.byte	0x1
	.set L$set$1914,LASF9-Lsection__debug_str
	.long L$set$1914
	.byte	0x1
	.byte	0x43
	.byte	0x1c
	.ascii "_ZNKSt17integral_constantIbLb1EEclEv\0"
	.long	0x18fb
	.byte	0x1
	.long	0x19b8
	.uleb128 0x2
	.long	0x19fe
	.byte	0x1
	.byte	0
	.uleb128 0xe
	.ascii "_Tp\0"
	.long	0x1587
	.uleb128 0x33
	.ascii "__v\0"
	.long	0x1587
	.byte	0x1
	.byte	0
	.uleb128 0x7
	.long	0x18c6
	.uleb128 0x2a
	.ascii "_ZNSt17integral_constantIbLb1EE5valueE\0"
	.long	0x18ed
	.byte	0x1
	.uleb128 0x8
	.byte	0x8
	.long	0x19cc
	.uleb128 0x1b
	.ascii "false_type\0"
	.byte	0x1
	.byte	0x4e
	.byte	0x2d
	.long	0x1786
	.uleb128 0x20
	.ascii "integral_constant<long unsigned int, 0>\0"
	.byte	0x1
	.byte	0x1
	.byte	0x39
	.byte	0xc
	.long	0x1b31
	.uleb128 0x1d
	.set L$set$1915,LASF7-Lsection__debug_str
	.long L$set$1915
	.byte	0x1
	.byte	0x3b
	.byte	0x2d
	.long	0x1fc
	.byte	0x1
	.byte	0x1
	.uleb128 0xc
	.set L$set$1916,LASF8-Lsection__debug_str
	.long L$set$1916
	.byte	0x1
	.byte	0x3c
	.byte	0x2d
	.long	0x1e7
	.uleb128 0x17
	.byte	0x1
	.ascii "operator std::integral_constant<long unsigned int, 0>::value_type\0"
	.byte	0x1
	.byte	0x3e
	.byte	0x11
	.ascii "_ZNKSt17integral_constantImLm0EEcvmEv\0"
	.long	0x1a56
	.byte	0x1
	.long	0x1adf
	.uleb128 0x2
	.long	0x1b63
	.byte	0x1
	.byte	0
	.uleb128 0xd
	.byte	0x1
	.set L$set$1917,LASF9-Lsection__debug_str
	.long L$set$1917
	.byte	0x1
	.byte	0x43
	.byte	0x1c
	.ascii "_ZNKSt17integral_constantImLm0EEclEv\0"
	.long	0x1a56
	.byte	0x1
	.long	0x1b1d
	.uleb128 0x2
	.long	0x1b63
	.byte	0x1
	.byte	0
	.uleb128 0xe
	.ascii "_Tp\0"
	.long	0x1e7
	.uleb128 0x33
	.ascii "__v\0"
	.long	0x1e7
	.byte	0
	.byte	0
	.uleb128 0x7
	.long	0x1a17
	.uleb128 0x2a
	.ascii "_ZNSt17integral_constantImLm0EE5valueE\0"
	.long	0x1a48
	.byte	0
	.uleb128 0x8
	.byte	0x8
	.long	0x1b31
	.uleb128 0x87
	.ascii "__make_unsigned_selector_base\0"
	.byte	0x1
	.byte	0x1
	.short	0x6aa
	.byte	0x9
	.long	0x1f15
	.uleb128 0x6c
	.ascii "_List<>\0"
	.byte	0x1
	.byte	0x1
	.short	0x6ad
	.byte	0x22
	.byte	0x2
	.long	0x1ba7
	.uleb128 0x69
	.byte	0
	.uleb128 0x6c
	.ascii "_List<long long unsigned int>\0"
	.byte	0x1
	.byte	0x1
	.short	0x6b0
	.byte	0xe
	.byte	0x2
	.long	0x1bea
	.uleb128 0x22
	.long	0x1b92
	.byte	0x2
	.byte	0x23
	.uleb128 0
	.byte	0x1
	.uleb128 0x43
	.set L$set$1918,LASF10-Lsection__debug_str
	.long L$set$1918
	.byte	0x1
	.short	0x6b1
	.byte	0x21
	.long	0x1f25
	.byte	0x1
	.byte	0x1
	.uleb128 0x69
	.byte	0
	.uleb128 0x6c
	.ascii "_List<long unsigned int, long long unsigned int>\0"
	.byte	0x1
	.byte	0x1
	.short	0x6b0
	.byte	0xe
	.byte	0x2
	.long	0x1c40
	.uleb128 0x22
	.long	0x1ba7
	.byte	0x2
	.byte	0x23
	.uleb128 0
	.byte	0x1
	.uleb128 0x43
	.set L$set$1919,LASF10-Lsection__debug_str
	.long L$set$1919
	.byte	0x1
	.short	0x6b1
	.byte	0x21
	.long	0x1f25
	.byte	0x1
	.byte	0x1
	.uleb128 0x69
	.byte	0
	.uleb128 0x6c
	.ascii "_List<unsigned int, long unsigned int, long long unsigned int>\0"
	.byte	0x1
	.byte	0x1
	.short	0x6b0
	.byte	0xe
	.byte	0x2
	.long	0x1ca4
	.uleb128 0x22
	.long	0x1bea
	.byte	0x2
	.byte	0x23
	.uleb128 0
	.byte	0x1
	.uleb128 0x43
	.set L$set$1920,LASF10-Lsection__debug_str
	.long L$set$1920
	.byte	0x1
	.short	0x6b1
	.byte	0x21
	.long	0x1f25
	.byte	0x1
	.byte	0x1
	.uleb128 0x69
	.byte	0
	.uleb128 0x6c
	.ascii "_List<short unsigned int, unsigned int, long unsigned int, long long unsigned int>\0"
	.byte	0x1
	.byte	0x1
	.short	0x6b0
	.byte	0xe
	.byte	0x2
	.long	0x1d1c
	.uleb128 0x22
	.long	0x1c40
	.byte	0x2
	.byte	0x23
	.uleb128 0
	.byte	0x1
	.uleb128 0x43
	.set L$set$1921,LASF10-Lsection__debug_str
	.long L$set$1921
	.byte	0x1
	.short	0x6b1
	.byte	0x21
	.long	0x1f25
	.byte	0x1
	.byte	0x1
	.uleb128 0x69
	.byte	0
	.uleb128 0x6c
	.ascii "_List<unsigned char, short unsigned int, unsigned int, long unsigned int, long long unsigned int>\0"
	.byte	0x1
	.byte	0x1
	.short	0x6b0
	.byte	0xe
	.byte	0x2
	.long	0x1da3
	.uleb128 0x22
	.long	0x1ca4
	.byte	0x2
	.byte	0x23
	.uleb128 0
	.byte	0x1
	.uleb128 0x43
	.set L$set$1922,LASF10-Lsection__debug_str
	.long L$set$1922
	.byte	0x1
	.short	0x6b1
	.byte	0x21
	.long	0x1f25
	.byte	0x1
	.byte	0x1
	.uleb128 0x69
	.byte	0
	.uleb128 0x6c
	.ascii "_List<__int128 unsigned>\0"
	.byte	0x1
	.byte	0x1
	.short	0x6b0
	.byte	0xe
	.byte	0x2
	.long	0x1de1
	.uleb128 0x22
	.long	0x1b92
	.byte	0x2
	.byte	0x23
	.uleb128 0
	.byte	0x1
	.uleb128 0x43
	.set L$set$1923,LASF10-Lsection__debug_str
	.long L$set$1923
	.byte	0x1
	.short	0x6b1
	.byte	0x21
	.long	0x1f25
	.byte	0x1
	.byte	0x1
	.uleb128 0x69
	.byte	0
	.uleb128 0x6c
	.ascii "_List<long long unsigned int, __int128 unsigned>\0"
	.byte	0x1
	.byte	0x1
	.short	0x6b0
	.byte	0xe
	.byte	0x2
	.long	0x1e37
	.uleb128 0x22
	.long	0x1da3
	.byte	0x2
	.byte	0x23
	.uleb128 0
	.byte	0x1
	.uleb128 0x43
	.set L$set$1924,LASF10-Lsection__debug_str
	.long L$set$1924
	.byte	0x1
	.short	0x6b1
	.byte	0x21
	.long	0x1f25
	.byte	0x1
	.byte	0x1
	.uleb128 0x69
	.byte	0
	.uleb128 0x6c
	.ascii "_List<long unsigned int, long long unsigned int, __int128 unsigned>\0"
	.byte	0x1
	.byte	0x1
	.short	0x6b0
	.byte	0xe
	.byte	0x2
	.long	0x1ea0
	.uleb128 0x22
	.long	0x1de1
	.byte	0x2
	.byte	0x23
	.uleb128 0
	.byte	0x1
	.uleb128 0x43
	.set L$set$1925,LASF10-Lsection__debug_str
	.long L$set$1925
	.byte	0x1
	.short	0x6b1
	.byte	0x21
	.long	0x1f25
	.byte	0x1
	.byte	0x1
	.uleb128 0x69
	.byte	0
	.uleb128 0x94
	.ascii "_List<unsigned int, long unsigned int, long long unsigned int, __int128 unsigned>\0"
	.byte	0x1
	.byte	0x1
	.short	0x6b0
	.byte	0xe
	.byte	0x2
	.uleb128 0x22
	.long	0x1e37
	.byte	0x2
	.byte	0x23
	.uleb128 0
	.byte	0x1
	.uleb128 0x43
	.set L$set$1926,LASF10-Lsection__debug_str
	.long L$set$1926
	.byte	0x1
	.short	0x6b1
	.byte	0x21
	.long	0x1f25
	.byte	0x1
	.byte	0x1
	.uleb128 0x69
	.byte	0
	.byte	0
	.uleb128 0x49
	.ascii "size_t\0"
	.byte	0x3b
	.short	0x118
	.byte	0x1a
	.long	0x1e7
	.uleb128 0x7
	.long	0x1f15
	.uleb128 0x4
	.ascii "_ZNSt29__make_unsigned_selector_base5_ListIJyEE6__sizeE\0"
	.long	0x1bd9
	.uleb128 0x4
	.ascii "_ZNSt29__make_unsigned_selector_base5_ListIJmyEE6__sizeE\0"
	.long	0x1c2f
	.uleb128 0x2a
	.ascii "_ZNSt29__make_unsigned_selector_base5_ListIJjmyEE6__sizeE\0"
	.long	0x1c93
	.byte	0x4
	.uleb128 0x2a
	.ascii "_ZNSt29__make_unsigned_selector_base5_ListIJtjmyEE6__sizeE\0"
	.long	0x1d0b
	.byte	0x2
	.uleb128 0x2a
	.ascii "_ZNSt29__make_unsigned_selector_base5_ListIJhtjmyEE6__sizeE\0"
	.long	0x1d92
	.byte	0x1
	.uleb128 0x48
	.byte	0x1
	.byte	0x7
	.ascii "char8_t\0"
	.uleb128 0x7
	.long	0x2068
	.uleb128 0x48
	.byte	0x2
	.byte	0x7
	.ascii "char16_t\0"
	.uleb128 0x7
	.long	0x2078
	.uleb128 0x48
	.byte	0x4
	.byte	0x7
	.ascii "char32_t\0"
	.uleb128 0x7
	.long	0x2089
	.uleb128 0x4b
	.ascii "_Swap\0"
	.byte	0x1
	.byte	0x3c
	.byte	0xb3
	.byte	0xe
	.uleb128 0x7
	.long	0x209a
	.uleb128 0xae
	.set L$set$1927,LASF19-Lsection__debug_str
	.long L$set$1927
	.byte	0x3c
	.byte	0xe5
	.byte	0x2b
	.ascii "_ZNSt6ranges6__cust4swapE\0"
	.long	0x20a5
	.byte	0x1
	.byte	0x1
	.byte	0
	.uleb128 0x6f
	.ascii "_Ord\0"
	.byte	0x1
	.byte	0x3d
	.byte	0x35
	.byte	0x10
	.long	0x20f9
	.uleb128 0x95
	.set L$set$1928,LASF11-Lsection__debug_str
	.long L$set$1928
	.byte	0
	.uleb128 0x96
	.ascii "less\0"
	.sleb128 -1
	.uleb128 0x95
	.set L$set$1929,LASF12-Lsection__debug_str
	.long L$set$1929
	.byte	0x1
	.byte	0
	.uleb128 0x6f
	.ascii "_Ncmp\0"
	.byte	0x1
	.byte	0x3d
	.byte	0x37
	.byte	0x10
	.long	0x2116
	.uleb128 0x2e
	.ascii "_Unordered\0"
	.byte	0x2
	.byte	0
	.uleb128 0x75
	.set L$set$1930,LASF13-Lsection__debug_str
	.long L$set$1930
	.byte	0x1
	.byte	0x3d
	.byte	0x3f
	.byte	0x9
	.long	0x2208
	.uleb128 0x3f
	.set L$set$1931,LASF14-Lsection__debug_str
	.long L$set$1931
	.byte	0x3d
	.byte	0x42
	.byte	0x15
	.long	0x220d
	.byte	0x2
	.byte	0x23
	.uleb128 0
	.byte	0x3
	.uleb128 0x2b
	.byte	0x1
	.set L$set$1932,LASF13-Lsection__debug_str
	.long L$set$1932
	.byte	0x3d
	.byte	0x45
	.byte	0x5
	.ascii "_ZNSt16partial_orderingC4ENSt9__cmp_cat4_OrdE\0"
	.byte	0x3
	.byte	0x1
	.long	0x217c
	.uleb128 0x2
	.long	0x2219
	.byte	0x1
	.uleb128 0x1
	.long	0x20d4
	.byte	0
	.uleb128 0x2b
	.byte	0x1
	.set L$set$1933,LASF13-Lsection__debug_str
	.long L$set$1933
	.byte	0x3d
	.byte	0x4a
	.byte	0x5
	.ascii "_ZNSt16partial_orderingC4ENSt9__cmp_cat5_NcmpE\0"
	.byte	0x3
	.byte	0x1
	.long	0x21c6
	.uleb128 0x2
	.long	0x2219
	.byte	0x1
	.uleb128 0x1
	.long	0x20f9
	.byte	0
	.uleb128 0x81
	.ascii "less\0"
	.byte	0x3d
	.byte	0x53
	.byte	0x23
	.long	0x2208
	.byte	0x1
	.byte	0x1
	.uleb128 0x1d
	.set L$set$1934,LASF11-Lsection__debug_str
	.long L$set$1934
	.byte	0x3d
	.byte	0x54
	.byte	0x23
	.long	0x2208
	.byte	0x1
	.byte	0x1
	.uleb128 0x1d
	.set L$set$1935,LASF12-Lsection__debug_str
	.long L$set$1935
	.byte	0x3d
	.byte	0x55
	.byte	0x23
	.long	0x2208
	.byte	0x1
	.byte	0x1
	.uleb128 0x81
	.ascii "unordered\0"
	.byte	0x3d
	.byte	0x56
	.byte	0x23
	.long	0x2208
	.byte	0x1
	.byte	0x1
	.byte	0
	.uleb128 0x7
	.long	0x2116
	.uleb128 0xc
	.set L$set$1936,LASF15-Lsection__debug_str
	.long L$set$1936
	.byte	0x3d
	.byte	0x33
	.byte	0xb
	.long	0xa9
	.uleb128 0x8
	.byte	0x8
	.long	0x2116
	.uleb128 0x76
	.long	0x21c6
	.byte	0x90
	.byte	0x3
	.ascii "_ZNSt16partial_ordering4lessE\0"
	.byte	0x1
	.byte	0xff
	.uleb128 0x76
	.long	0x21d6
	.byte	0x93
	.byte	0x3
	.ascii "_ZNSt16partial_ordering10equivalentE\0"
	.byte	0x1
	.byte	0
	.uleb128 0x76
	.long	0x21e4
	.byte	0x96
	.byte	0x3
	.ascii "_ZNSt16partial_ordering7greaterE\0"
	.byte	0x1
	.byte	0x1
	.uleb128 0x76
	.long	0x21f2
	.byte	0x99
	.byte	0x3
	.ascii "_ZNSt16partial_ordering9unorderedE\0"
	.byte	0x1
	.byte	0x2
	.uleb128 0x75
	.set L$set$1937,LASF16-Lsection__debug_str
	.long L$set$1937
	.byte	0x1
	.byte	0x3d
	.byte	0x9b
	.byte	0x9
	.long	0x239e
	.uleb128 0x3f
	.set L$set$1938,LASF14-Lsection__debug_str
	.long L$set$1938
	.byte	0x3d
	.byte	0x9d
	.byte	0x15
	.long	0x220d
	.byte	0x2
	.byte	0x23
	.uleb128 0
	.byte	0x3
	.uleb128 0x2b
	.byte	0x1
	.set L$set$1939,LASF16-Lsection__debug_str
	.long L$set$1939
	.byte	0x3d
	.byte	0xa0
	.byte	0x5
	.ascii "_ZNSt13weak_orderingC4ENSt9__cmp_cat4_OrdE\0"
	.byte	0x3
	.byte	0x1
	.long	0x232d
	.uleb128 0x2
	.long	0x23a3
	.byte	0x1
	.uleb128 0x1
	.long	0x20d4
	.byte	0
	.uleb128 0x81
	.ascii "less\0"
	.byte	0x3d
	.byte	0xa7
	.byte	0x20
	.long	0x239e
	.byte	0x1
	.byte	0x1
	.uleb128 0x1d
	.set L$set$1940,LASF11-Lsection__debug_str
	.long L$set$1940
	.byte	0x3d
	.byte	0xa8
	.byte	0x20
	.long	0x239e
	.byte	0x1
	.byte	0x1
	.uleb128 0x1d
	.set L$set$1941,LASF12-Lsection__debug_str
	.long L$set$1941
	.byte	0x3d
	.byte	0xa9
	.byte	0x20
	.long	0x239e
	.byte	0x1
	.byte	0x1
	.uleb128 0x97
	.byte	0x1
	.set L$set$1942,LASF17-Lsection__debug_str
	.long L$set$1942
	.byte	0x3d
	.byte	0xab
	.byte	0xf
	.ascii "_ZNKSt13weak_orderingcvSt16partial_orderingEv\0"
	.long	0x2116
	.byte	0x1
	.uleb128 0x2
	.long	0x23a9
	.byte	0x1
	.byte	0
	.byte	0
	.uleb128 0x7
	.long	0x22ca
	.uleb128 0x8
	.byte	0x8
	.long	0x22ca
	.uleb128 0x8
	.byte	0x8
	.long	0x239e
	.uleb128 0x76
	.long	0x232d
	.byte	0xe1
	.byte	0x3
	.ascii "_ZNSt13weak_ordering4lessE\0"
	.byte	0x1
	.byte	0xff
	.uleb128 0x76
	.long	0x233d
	.byte	0xe4
	.byte	0x3
	.ascii "_ZNSt13weak_ordering10equivalentE\0"
	.byte	0x1
	.byte	0
	.uleb128 0x76
	.long	0x234b
	.byte	0xe7
	.byte	0x3
	.ascii "_ZNSt13weak_ordering7greaterE\0"
	.byte	0x1
	.byte	0x1
	.uleb128 0x75
	.set L$set$1943,LASF18-Lsection__debug_str
	.long L$set$1943
	.byte	0x1
	.byte	0x3d
	.byte	0xe9
	.byte	0x9
	.long	0x256c
	.uleb128 0x3f
	.set L$set$1944,LASF14-Lsection__debug_str
	.long L$set$1944
	.byte	0x3d
	.byte	0xeb
	.byte	0x15
	.long	0x220d
	.byte	0x2
	.byte	0x23
	.uleb128 0
	.byte	0x3
	.uleb128 0x2b
	.byte	0x1
	.set L$set$1945,LASF18-Lsection__debug_str
	.long L$set$1945
	.byte	0x3d
	.byte	0xee
	.byte	0x5
	.ascii "_ZNSt15strong_orderingC4ENSt9__cmp_cat4_OrdE\0"
	.byte	0x3
	.byte	0x1
	.long	0x248a
	.uleb128 0x2
	.long	0x2571
	.byte	0x1
	.uleb128 0x1
	.long	0x20d4
	.byte	0
	.uleb128 0x81
	.ascii "less\0"
	.byte	0x3d
	.byte	0xf4
	.byte	0x22
	.long	0x256c
	.byte	0x1
	.byte	0x1
	.uleb128 0x81
	.ascii "equal\0"
	.byte	0x3d
	.byte	0xf5
	.byte	0x22
	.long	0x256c
	.byte	0x1
	.byte	0x1
	.uleb128 0x1d
	.set L$set$1946,LASF11-Lsection__debug_str
	.long L$set$1946
	.byte	0x3d
	.byte	0xf6
	.byte	0x22
	.long	0x256c
	.byte	0x1
	.byte	0x1
	.uleb128 0x1d
	.set L$set$1947,LASF12-Lsection__debug_str
	.long L$set$1947
	.byte	0x3d
	.byte	0xf7
	.byte	0x22
	.long	0x256c
	.byte	0x1
	.byte	0x1
	.uleb128 0xd
	.byte	0x1
	.set L$set$1948,LASF17-Lsection__debug_str
	.long L$set$1948
	.byte	0x3d
	.byte	0xf9
	.byte	0xf
	.ascii "_ZNKSt15strong_orderingcvSt16partial_orderingEv\0"
	.long	0x2116
	.byte	0x1
	.long	0x2510
	.uleb128 0x2
	.long	0x2577
	.byte	0x1
	.byte	0
	.uleb128 0x98
	.byte	0x1
	.ascii "operator std::weak_ordering\0"
	.byte	0x3d
	.byte	0xfc
	.byte	0xf
	.ascii "_ZNKSt15strong_orderingcvSt13weak_orderingEv\0"
	.long	0x22ca
	.byte	0x1
	.uleb128 0x2
	.long	0x2577
	.byte	0x1
	.byte	0
	.byte	0
	.uleb128 0x7
	.long	0x2425
	.uleb128 0x8
	.byte	0x8
	.long	0x2425
	.uleb128 0x8
	.byte	0x8
	.long	0x256c
	.uleb128 0x88
	.long	0x248a
	.short	0x132
	.byte	0x3
	.ascii "_ZNSt15strong_ordering4lessE\0"
	.byte	0x1
	.byte	0xff
	.uleb128 0x88
	.long	0x249a
	.short	0x135
	.byte	0x3
	.ascii "_ZNSt15strong_ordering5equalE\0"
	.byte	0x1
	.byte	0
	.uleb128 0x88
	.long	0x24ab
	.short	0x138
	.byte	0x3
	.ascii "_ZNSt15strong_ordering10equivalentE\0"
	.byte	0x1
	.byte	0
	.uleb128 0x88
	.long	0x24b9
	.short	0x13b
	.byte	0x3
	.ascii "_ZNSt15strong_ordering7greaterE\0"
	.byte	0x1
	.byte	0x1
	.uleb128 0xa
	.set L$set$1949,LASF20-Lsection__debug_str
	.long L$set$1949
	.byte	0x3d
	.short	0x15c
	.byte	0x21
	.ascii "_ZNSt8__detail12__cmp_cat_idISt16partial_orderingEE\0"
	.long	0x125
	.byte	0x1
	.byte	0x2
	.uleb128 0xa
	.set L$set$1950,LASF20-Lsection__debug_str
	.long L$set$1950
	.byte	0x3d
	.short	0x15e
	.byte	0x21
	.ascii "_ZNSt8__detail12__cmp_cat_idISt13weak_orderingEE\0"
	.long	0x125
	.byte	0x1
	.byte	0x4
	.uleb128 0xa
	.set L$set$1951,LASF20-Lsection__debug_str
	.long L$set$1951
	.byte	0x3d
	.short	0x160
	.byte	0x21
	.ascii "_ZNSt8__detail12__cmp_cat_idISt15strong_orderingEE\0"
	.long	0x125
	.byte	0x1
	.byte	0x8
	.uleb128 0x79
	.ascii "_Strong_order\0"
	.byte	0x1
	.byte	0x3d
	.short	0x25b
	.byte	0xb
	.uleb128 0x7
	.long	0x26ed
	.uleb128 0x79
	.ascii "_Weak_order\0"
	.byte	0x1
	.byte	0x3d
	.short	0x28a
	.byte	0xb
	.uleb128 0x7
	.long	0x2706
	.uleb128 0x79
	.ascii "_Partial_order\0"
	.byte	0x1
	.byte	0x3d
	.short	0x2bc
	.byte	0xb
	.uleb128 0x7
	.long	0x271d
	.uleb128 0x79
	.ascii "_Strong_fallback\0"
	.byte	0x1
	.byte	0x3d
	.short	0x2ec
	.byte	0xb
	.uleb128 0x7
	.long	0x2737
	.uleb128 0x79
	.ascii "_Weak_fallback\0"
	.byte	0x1
	.byte	0x3d
	.short	0x30e
	.byte	0xb
	.uleb128 0x7
	.long	0x2753
	.uleb128 0x79
	.ascii "_Partial_fallback\0"
	.byte	0x1
	.byte	0x3d
	.short	0x330
	.byte	0xb
	.uleb128 0x7
	.long	0x276d
	.uleb128 0x13
	.ascii "strong_order\0"
	.byte	0x3d
	.short	0x358
	.byte	0x30
	.ascii "_ZNSt9__cmp_alg12strong_orderE\0"
	.long	0x2701
	.byte	0x1
	.byte	0x1
	.byte	0
	.uleb128 0x13
	.ascii "weak_order\0"
	.byte	0x3d
	.short	0x35a
	.byte	0x2e
	.ascii "_ZNSt9__cmp_alg10weak_orderE\0"
	.long	0x2718
	.byte	0x1
	.byte	0x1
	.byte	0
	.uleb128 0x13
	.ascii "partial_order\0"
	.byte	0x3d
	.short	0x35c
	.byte	0x31
	.ascii "_ZNSt9__cmp_alg13partial_orderE\0"
	.long	0x2732
	.byte	0x1
	.byte	0x1
	.byte	0
	.uleb128 0x13
	.ascii "compare_strong_order_fallback\0"
	.byte	0x3d
	.short	0x35f
	.byte	0x5
	.ascii "_ZNSt9__cmp_alg29compare_strong_order_fallbackE\0"
	.long	0x274e
	.byte	0x1
	.byte	0x1
	.byte	0
	.uleb128 0x13
	.ascii "compare_weak_order_fallback\0"
	.byte	0x3d
	.short	0x362
	.byte	0x5
	.ascii "_ZNSt9__cmp_alg27compare_weak_order_fallbackE\0"
	.long	0x2768
	.byte	0x1
	.byte	0x1
	.byte	0
	.uleb128 0x13
	.ascii "compare_partial_order_fallback\0"
	.byte	0x3d
	.short	0x365
	.byte	0x5
	.ascii "_ZNSt9__cmp_alg30compare_partial_order_fallbackE\0"
	.long	0x2785
	.byte	0x1
	.byte	0x1
	.byte	0
	.uleb128 0x19
	.ascii "_Synth3way\0"
	.byte	0x1
	.byte	0x3d
	.short	0x36b
	.byte	0x1d
	.uleb128 0x7
	.long	0x293c
	.uleb128 0x13
	.ascii "__synth3way\0"
	.byte	0x3d
	.short	0x38d
	.byte	0x7
	.ascii "_ZNSt8__detail11__synth3wayE\0"
	.long	0x294d
	.byte	0x1
	.byte	0x1
	.byte	0
	.uleb128 0x60
	.set L$set$1952,LASF21-Lsection__debug_str
	.long L$set$1952
	.byte	0x1
	.byte	0x3e
	.byte	0x50
	.byte	0xa
	.long	0x29c7
	.uleb128 0x4f
	.byte	0x1
	.set L$set$1953,LASF21-Lsection__debug_str
	.long L$set$1953
	.byte	0x3e
	.byte	0x50
	.byte	0x2b
	.ascii "_ZNSt21piecewise_construct_tC4Ev\0"
	.byte	0x1
	.uleb128 0x2
	.long	0x29cc
	.byte	0x1
	.byte	0
	.byte	0
	.uleb128 0x7
	.long	0x2987
	.uleb128 0x8
	.byte	0x8
	.long	0x2987
	.uleb128 0x34
	.ascii "piecewise_construct\0"
	.byte	0x3e
	.byte	0x53
	.byte	0x35
	.ascii "_ZSt19piecewise_construct\0"
	.long	0x29c7
	.byte	0x1
	.byte	0x1
	.byte	0
	.uleb128 0x4b
	.ascii "_IMove\0"
	.byte	0x1
	.byte	0x3f
	.byte	0x59
	.byte	0xe
	.uleb128 0x7
	.long	0x2a0b
	.uleb128 0x34
	.ascii "iter_move\0"
	.byte	0x3f
	.byte	0x8b
	.byte	0x2d
	.ascii "_ZNSt6ranges6__cust9iter_moveE\0"
	.long	0x2a17
	.byte	0x1
	.byte	0x1
	.byte	0
	.uleb128 0x48
	.byte	0x10
	.byte	0x5
	.ascii "__int128\0"
	.uleb128 0x19
	.ascii "_IterSwap\0"
	.byte	0x1
	.byte	0x3f
	.short	0x336
	.byte	0xc
	.uleb128 0x7
	.long	0x2a5c
	.uleb128 0x13
	.ascii "iter_swap\0"
	.byte	0x3f
	.short	0x365
	.byte	0x2e
	.ascii "_ZNSt6ranges6__cust9iter_swapE\0"
	.long	0x2a6c
	.byte	0x1
	.byte	0x1
	.byte	0
	.uleb128 0x19
	.ascii "unreachable_sentinel_t\0"
	.byte	0x1
	.byte	0x3f
	.short	0x393
	.byte	0xa
	.uleb128 0x7
	.long	0x2aa6
	.uleb128 0x13
	.ascii "unreachable_sentinel\0"
	.byte	0x3f
	.short	0x39b
	.byte	0x2b
	.ascii "_ZSt20unreachable_sentinel\0"
	.long	0x2ac3
	.byte	0x1
	.byte	0x1
	.byte	0
	.uleb128 0x19
	.ascii "default_sentinel_t\0"
	.byte	0x1
	.byte	0x3f
	.short	0x39d
	.byte	0xa
	.uleb128 0x7
	.long	0x2b04
	.uleb128 0x13
	.ascii "default_sentinel\0"
	.byte	0x3f
	.short	0x39e
	.byte	0x27
	.ascii "_ZSt16default_sentinel\0"
	.long	0x2b1d
	.byte	0x1
	.byte	0x1
	.byte	0
	.uleb128 0x4b
	.ascii "input_iterator_tag\0"
	.byte	0x1
	.byte	0xe
	.byte	0x5d
	.byte	0xa
	.uleb128 0x20
	.ascii "forward_iterator_tag\0"
	.byte	0x1
	.byte	0xe
	.byte	0x63
	.byte	0xa
	.long	0x2b96
	.uleb128 0x22
	.long	0x2b56
	.byte	0x2
	.byte	0x23
	.uleb128 0
	.byte	0x1
	.byte	0
	.uleb128 0x20
	.ascii "bidirectional_iterator_tag\0"
	.byte	0x1
	.byte	0xe
	.byte	0x67
	.byte	0xa
	.long	0x2bc4
	.uleb128 0x22
	.long	0x2b6e
	.byte	0x2
	.byte	0x23
	.uleb128 0
	.byte	0x1
	.byte	0
	.uleb128 0x20
	.ascii "random_access_iterator_tag\0"
	.byte	0x1
	.byte	0xe
	.byte	0x6b
	.byte	0xa
	.long	0x2bf2
	.uleb128 0x22
	.long	0x2b96
	.byte	0x2
	.byte	0x23
	.uleb128 0
	.byte	0x1
	.byte	0
	.uleb128 0x82
	.ascii "align_val_t\0"
	.byte	0x8
	.byte	0x2
	.byte	0x59
	.byte	0xe
	.uleb128 0x60
	.set L$set$1954,LASF22-Lsection__debug_str
	.long L$set$1954
	.byte	0x1
	.byte	0x2
	.byte	0xd9
	.byte	0xa
	.long	0x2c42
	.uleb128 0x4f
	.byte	0x1
	.set L$set$1955,LASF22-Lsection__debug_str
	.long L$set$1955
	.byte	0x2
	.byte	0xdb
	.byte	0xe
	.ascii "_ZNSt19destroying_delete_tC4Ev\0"
	.byte	0x1
	.uleb128 0x2
	.long	0x2c47
	.byte	0x1
	.byte	0
	.byte	0
	.uleb128 0x7
	.long	0x2c04
	.uleb128 0x8
	.byte	0x8
	.long	0x2c04
	.uleb128 0x34
	.ascii "destroying_delete\0"
	.byte	0x2
	.byte	0xde
	.byte	0x28
	.ascii "_ZSt17destroying_delete\0"
	.long	0x2c42
	.byte	0x1
	.byte	0x1
	.byte	0
	.uleb128 0x18
	.ascii "__copy_move<false, false, std::random_access_iterator_tag>\0"
	.byte	0x1
	.byte	0x4
	.short	0x177
	.byte	0xc
	.long	0x2d8a
	.uleb128 0x16
	.byte	0x1
	.ascii "__copy_m<char const*, char*>\0"
	.byte	0x4
	.short	0x17c
	.byte	0x2
	.ascii "_ZNSt11__copy_moveILb0ELb0ESt26random_access_iterator_tagE8__copy_mIPKcPcEET0_T_S7_S6_\0"
	.long	0x62c
	.byte	0x1
	.long	0x2d6c
	.uleb128 0xe
	.ascii "_II\0"
	.long	0x921
	.uleb128 0xe
	.ascii "_OI\0"
	.long	0x62c
	.uleb128 0x1
	.long	0x921
	.uleb128 0x1
	.long	0x921
	.uleb128 0x1
	.long	0x62c
	.byte	0
	.uleb128 0x50
	.set L$set$1956,LASF23-Lsection__debug_str
	.long L$set$1956
	.long	0x1587
	.byte	0
	.uleb128 0x50
	.set L$set$1957,LASF24-Lsection__debug_str
	.long L$set$1957
	.long	0x1587
	.byte	0
	.uleb128 0x10
	.set L$set$1958,LASF25-Lsection__debug_str
	.long L$set$1958
	.long	0x2bc4
	.byte	0
	.uleb128 0x6f
	.ascii "float_round_style\0"
	.byte	0x4
	.byte	0x40
	.byte	0xa7
	.byte	0x8
	.long	0x2e18
	.uleb128 0x96
	.ascii "round_indeterminate\0"
	.sleb128 -1
	.uleb128 0x2e
	.ascii "round_toward_zero\0"
	.byte	0
	.uleb128 0x2e
	.ascii "round_to_nearest\0"
	.byte	0x1
	.uleb128 0x2e
	.ascii "round_toward_infinity\0"
	.byte	0x2
	.uleb128 0x2e
	.ascii "round_toward_neg_infinity\0"
	.byte	0x3
	.byte	0
	.uleb128 0x7
	.long	0x2d8a
	.uleb128 0x6f
	.ascii "float_denorm_style\0"
	.byte	0x4
	.byte	0x40
	.byte	0xb6
	.byte	0x8
	.long	0x2e73
	.uleb128 0x96
	.ascii "denorm_indeterminate\0"
	.sleb128 -1
	.uleb128 0x2e
	.ascii "denorm_absent\0"
	.byte	0
	.uleb128 0x2e
	.ascii "denorm_present\0"
	.byte	0x1
	.byte	0
	.uleb128 0x7
	.long	0x2e1d
	.uleb128 0x29
	.ascii "__numeric_limits_base\0"
	.byte	0x1
	.uleb128 0x4a
	.long	0x2e78
	.byte	0x1
	.byte	0x40
	.byte	0xca
	.byte	0xa
	.long	0x3001
	.uleb128 0x5d
	.set L$set$1959,LASF26-Lsection__debug_str
	.long L$set$1959
	.byte	0x40
	.byte	0xce
	.byte	0x28
	.long	0x158f
	.byte	0x1
	.byte	0x1
	.byte	0
	.uleb128 0x5d
	.set L$set$1960,LASF27-Lsection__debug_str
	.long L$set$1960
	.byte	0x40
	.byte	0xd3
	.byte	0x27
	.long	0xfd
	.byte	0x1
	.byte	0x1
	.byte	0
	.uleb128 0x5d
	.set L$set$1961,LASF28-Lsection__debug_str
	.long L$set$1961
	.byte	0x40
	.byte	0xd6
	.byte	0x27
	.long	0xfd
	.byte	0x1
	.byte	0x1
	.byte	0
	.uleb128 0x5d
	.set L$set$1962,LASF29-Lsection__debug_str
	.long L$set$1962
	.byte	0x40
	.byte	0xdb
	.byte	0x1a
	.long	0xfd
	.byte	0x1
	.byte	0x1
	.byte	0
	.uleb128 0x5d
	.set L$set$1963,LASF30-Lsection__debug_str
	.long L$set$1963
	.byte	0x40
	.byte	0xdf
	.byte	0x28
	.long	0x158f
	.byte	0x1
	.byte	0x1
	.byte	0
	.uleb128 0x5d
	.set L$set$1964,LASF31-Lsection__debug_str
	.long L$set$1964
	.byte	0x40
	.byte	0xe2
	.byte	0x28
	.long	0x158f
	.byte	0x1
	.byte	0x1
	.byte	0
	.uleb128 0x5d
	.set L$set$1965,LASF32-Lsection__debug_str
	.long L$set$1965
	.byte	0x40
	.byte	0xe7
	.byte	0x28
	.long	0x158f
	.byte	0x1
	.byte	0x1
	.byte	0
	.uleb128 0x5d
	.set L$set$1966,LASF33-Lsection__debug_str
	.long L$set$1966
	.byte	0x40
	.byte	0xeb
	.byte	0x27
	.long	0xfd
	.byte	0x1
	.byte	0x1
	.byte	0
	.uleb128 0x5d
	.set L$set$1967,LASF34-Lsection__debug_str
	.long L$set$1967
	.byte	0x40
	.byte	0xef
	.byte	0x27
	.long	0xfd
	.byte	0x1
	.byte	0x1
	.byte	0
	.uleb128 0x5d
	.set L$set$1968,LASF35-Lsection__debug_str
	.long L$set$1968
	.byte	0x40
	.byte	0xf3
	.byte	0x27
	.long	0xfd
	.byte	0x1
	.byte	0x1
	.byte	0
	.uleb128 0x5d
	.set L$set$1969,LASF36-Lsection__debug_str
	.long L$set$1969
	.byte	0x40
	.byte	0xf8
	.byte	0x27
	.long	0xfd
	.byte	0x1
	.byte	0x1
	.byte	0
	.uleb128 0x5d
	.set L$set$1970,LASF37-Lsection__debug_str
	.long L$set$1970
	.byte	0x40
	.byte	0xfc
	.byte	0x27
	.long	0xfd
	.byte	0x1
	.byte	0x1
	.byte	0
	.uleb128 0x5d
	.set L$set$1971,LASF38-Lsection__debug_str
	.long L$set$1971
	.byte	0x40
	.byte	0xff
	.byte	0x28
	.long	0x158f
	.byte	0x1
	.byte	0x1
	.byte	0
	.uleb128 0x6
	.set L$set$1972,LASF39-Lsection__debug_str
	.long L$set$1972
	.byte	0x40
	.short	0x103
	.byte	0x28
	.long	0x158f
	.byte	0x1
	.byte	0x1
	.byte	0
	.uleb128 0x6
	.set L$set$1973,LASF40-Lsection__debug_str
	.long L$set$1973
	.byte	0x40
	.short	0x107
	.byte	0x28
	.long	0x158f
	.byte	0x1
	.byte	0x1
	.byte	0
	.uleb128 0x6
	.set L$set$1974,LASF41-Lsection__debug_str
	.long L$set$1974
	.byte	0x40
	.short	0x10a
	.byte	0x36
	.long	0x2e73
	.byte	0x1
	.byte	0x1
	.byte	0
	.uleb128 0x6
	.set L$set$1975,LASF42-Lsection__debug_str
	.long L$set$1975
	.byte	0x40
	.short	0x10e
	.byte	0x28
	.long	0x158f
	.byte	0x1
	.byte	0x1
	.byte	0
	.uleb128 0x6
	.set L$set$1976,LASF43-Lsection__debug_str
	.long L$set$1976
	.byte	0x40
	.short	0x112
	.byte	0x28
	.long	0x158f
	.byte	0x1
	.byte	0x1
	.byte	0
	.uleb128 0x6
	.set L$set$1977,LASF44-Lsection__debug_str
	.long L$set$1977
	.byte	0x40
	.short	0x117
	.byte	0x28
	.long	0x158f
	.byte	0x1
	.byte	0x1
	.byte	0
	.uleb128 0x6
	.set L$set$1978,LASF45-Lsection__debug_str
	.long L$set$1978
	.byte	0x40
	.short	0x120
	.byte	0x28
	.long	0x158f
	.byte	0x1
	.byte	0x1
	.byte	0
	.uleb128 0x6
	.set L$set$1979,LASF46-Lsection__debug_str
	.long L$set$1979
	.byte	0x40
	.short	0x123
	.byte	0x28
	.long	0x158f
	.byte	0x1
	.byte	0x1
	.byte	0
	.uleb128 0x6
	.set L$set$1980,LASF47-Lsection__debug_str
	.long L$set$1980
	.byte	0x40
	.short	0x126
	.byte	0x28
	.long	0x158f
	.byte	0x1
	.byte	0x1
	.byte	0
	.uleb128 0x6
	.set L$set$1981,LASF48-Lsection__debug_str
	.long L$set$1981
	.byte	0x40
	.short	0x12b
	.byte	0x35
	.long	0x2e18
	.byte	0x1
	.byte	0x1
	.byte	0
	.byte	0
	.uleb128 0x4
	.ascii "_ZNSt21__numeric_limits_base14is_specializedE\0"
	.long	0x2e9d
	.uleb128 0x4
	.ascii "_ZNSt21__numeric_limits_base6digitsE\0"
	.long	0x2eac
	.uleb128 0x4
	.ascii "_ZNSt21__numeric_limits_base8digits10E\0"
	.long	0x2ebb
	.uleb128 0x4
	.ascii "_ZNSt21__numeric_limits_base12max_digits10E\0"
	.long	0x2eca
	.uleb128 0x4
	.ascii "_ZNSt21__numeric_limits_base9is_signedE\0"
	.long	0x2ed9
	.uleb128 0x4
	.ascii "_ZNSt21__numeric_limits_base10is_integerE\0"
	.long	0x2ee8
	.uleb128 0x4
	.ascii "_ZNSt21__numeric_limits_base8is_exactE\0"
	.long	0x2ef7
	.uleb128 0x4
	.ascii "_ZNSt21__numeric_limits_base5radixE\0"
	.long	0x2f06
	.uleb128 0x4
	.ascii "_ZNSt21__numeric_limits_base12min_exponentE\0"
	.long	0x2f15
	.uleb128 0x4
	.ascii "_ZNSt21__numeric_limits_base14min_exponent10E\0"
	.long	0x2f24
	.uleb128 0x4
	.ascii "_ZNSt21__numeric_limits_base12max_exponentE\0"
	.long	0x2f33
	.uleb128 0x4
	.ascii "_ZNSt21__numeric_limits_base14max_exponent10E\0"
	.long	0x2f42
	.uleb128 0x4
	.ascii "_ZNSt21__numeric_limits_base12has_infinityE\0"
	.long	0x2f51
	.uleb128 0x4
	.ascii "_ZNSt21__numeric_limits_base13has_quiet_NaNE\0"
	.long	0x2f60
	.uleb128 0x4
	.ascii "_ZNSt21__numeric_limits_base17has_signaling_NaNE\0"
	.long	0x2f70
	.uleb128 0x4
	.ascii "_ZNSt21__numeric_limits_base10has_denormE\0"
	.long	0x2f80
	.uleb128 0x4
	.ascii "_ZNSt21__numeric_limits_base15has_denorm_lossE\0"
	.long	0x2f90
	.uleb128 0x4
	.ascii "_ZNSt21__numeric_limits_base9is_iec559E\0"
	.long	0x2fa0
	.uleb128 0x4
	.ascii "_ZNSt21__numeric_limits_base10is_boundedE\0"
	.long	0x2fb0
	.uleb128 0x4
	.ascii "_ZNSt21__numeric_limits_base9is_moduloE\0"
	.long	0x2fc0
	.uleb128 0x4
	.ascii "_ZNSt21__numeric_limits_base5trapsE\0"
	.long	0x2fd0
	.uleb128 0x4
	.ascii "_ZNSt21__numeric_limits_base15tinyness_beforeE\0"
	.long	0x2fe0
	.uleb128 0x4
	.ascii "_ZNSt21__numeric_limits_base11round_styleE\0"
	.long	0x2ff0
	.uleb128 0x29
	.ascii "numeric_limits<bool>\0"
	.byte	0x1
	.uleb128 0x28
	.long	0x3446
	.byte	0x1
	.byte	0x40
	.short	0x180
	.byte	0xc
	.long	0x37b1
	.uleb128 0x6
	.set L$set$1982,LASF26-Lsection__debug_str
	.long L$set$1982
	.byte	0x40
	.short	0x182
	.byte	0x2a
	.long	0x158f
	.byte	0x1
	.byte	0x1
	.byte	0x1
	.uleb128 0x21
	.byte	0x1
	.ascii "min\0"
	.byte	0x40
	.short	0x185
	.byte	0x7
	.ascii "_ZNSt14numeric_limitsIbE3minEv\0"
	.long	0x1587
	.byte	0x1
	.uleb128 0x21
	.byte	0x1
	.ascii "max\0"
	.byte	0x40
	.short	0x188
	.byte	0x7
	.ascii "_ZNSt14numeric_limitsIbE3maxEv\0"
	.long	0x1587
	.byte	0x1
	.uleb128 0x12
	.byte	0x1
	.set L$set$1983,LASF49-Lsection__debug_str
	.long L$set$1983
	.byte	0x40
	.short	0x18c
	.byte	0x7
	.ascii "_ZNSt14numeric_limitsIbE6lowestEv\0"
	.long	0x1587
	.byte	0x1
	.uleb128 0x6
	.set L$set$1984,LASF27-Lsection__debug_str
	.long L$set$1984
	.byte	0x40
	.short	0x18e
	.byte	0x29
	.long	0xfd
	.byte	0x1
	.byte	0x1
	.byte	0x1
	.uleb128 0x6
	.set L$set$1985,LASF28-Lsection__debug_str
	.long L$set$1985
	.byte	0x40
	.short	0x18f
	.byte	0x29
	.long	0xfd
	.byte	0x1
	.byte	0x1
	.byte	0
	.uleb128 0x6
	.set L$set$1986,LASF29-Lsection__debug_str
	.long L$set$1986
	.byte	0x40
	.short	0x191
	.byte	0x1c
	.long	0xfd
	.byte	0x1
	.byte	0x1
	.byte	0
	.uleb128 0x6
	.set L$set$1987,LASF30-Lsection__debug_str
	.long L$set$1987
	.byte	0x40
	.short	0x193
	.byte	0x2a
	.long	0x158f
	.byte	0x1
	.byte	0x1
	.byte	0
	.uleb128 0x6
	.set L$set$1988,LASF31-Lsection__debug_str
	.long L$set$1988
	.byte	0x40
	.short	0x194
	.byte	0x2a
	.long	0x158f
	.byte	0x1
	.byte	0x1
	.byte	0x1
	.uleb128 0x6
	.set L$set$1989,LASF32-Lsection__debug_str
	.long L$set$1989
	.byte	0x40
	.short	0x195
	.byte	0x2a
	.long	0x158f
	.byte	0x1
	.byte	0x1
	.byte	0x1
	.uleb128 0x6
	.set L$set$1990,LASF33-Lsection__debug_str
	.long L$set$1990
	.byte	0x40
	.short	0x196
	.byte	0x29
	.long	0xfd
	.byte	0x1
	.byte	0x1
	.byte	0x2
	.uleb128 0x12
	.byte	0x1
	.set L$set$1991,LASF50-Lsection__debug_str
	.long L$set$1991
	.byte	0x40
	.short	0x199
	.byte	0x7
	.ascii "_ZNSt14numeric_limitsIbE7epsilonEv\0"
	.long	0x1587
	.byte	0x1
	.uleb128 0x12
	.byte	0x1
	.set L$set$1992,LASF51-Lsection__debug_str
	.long L$set$1992
	.byte	0x40
	.short	0x19c
	.byte	0x7
	.ascii "_ZNSt14numeric_limitsIbE11round_errorEv\0"
	.long	0x1587
	.byte	0x1
	.uleb128 0x6
	.set L$set$1993,LASF34-Lsection__debug_str
	.long L$set$1993
	.byte	0x40
	.short	0x19e
	.byte	0x29
	.long	0xfd
	.byte	0x1
	.byte	0x1
	.byte	0
	.uleb128 0x6
	.set L$set$1994,LASF35-Lsection__debug_str
	.long L$set$1994
	.byte	0x40
	.short	0x19f
	.byte	0x29
	.long	0xfd
	.byte	0x1
	.byte	0x1
	.byte	0
	.uleb128 0x6
	.set L$set$1995,LASF36-Lsection__debug_str
	.long L$set$1995
	.byte	0x40
	.short	0x1a0
	.byte	0x29
	.long	0xfd
	.byte	0x1
	.byte	0x1
	.byte	0
	.uleb128 0x6
	.set L$set$1996,LASF37-Lsection__debug_str
	.long L$set$1996
	.byte	0x40
	.short	0x1a1
	.byte	0x29
	.long	0xfd
	.byte	0x1
	.byte	0x1
	.byte	0
	.uleb128 0x6
	.set L$set$1997,LASF38-Lsection__debug_str
	.long L$set$1997
	.byte	0x40
	.short	0x1a3
	.byte	0x2a
	.long	0x158f
	.byte	0x1
	.byte	0x1
	.byte	0
	.uleb128 0x6
	.set L$set$1998,LASF39-Lsection__debug_str
	.long L$set$1998
	.byte	0x40
	.short	0x1a4
	.byte	0x2a
	.long	0x158f
	.byte	0x1
	.byte	0x1
	.byte	0
	.uleb128 0x6
	.set L$set$1999,LASF40-Lsection__debug_str
	.long L$set$1999
	.byte	0x40
	.short	0x1a5
	.byte	0x2a
	.long	0x158f
	.byte	0x1
	.byte	0x1
	.byte	0
	.uleb128 0x6
	.set L$set$2000,LASF41-Lsection__debug_str
	.long L$set$2000
	.byte	0x40
	.short	0x1a6
	.byte	0x38
	.long	0x2e73
	.byte	0x1
	.byte	0x1
	.byte	0
	.uleb128 0x6
	.set L$set$2001,LASF42-Lsection__debug_str
	.long L$set$2001
	.byte	0x40
	.short	0x1a8
	.byte	0x2a
	.long	0x158f
	.byte	0x1
	.byte	0x1
	.byte	0
	.uleb128 0x12
	.byte	0x1
	.set L$set$2002,LASF52-Lsection__debug_str
	.long L$set$2002
	.byte	0x40
	.short	0x1ab
	.byte	0x7
	.ascii "_ZNSt14numeric_limitsIbE8infinityEv\0"
	.long	0x1587
	.byte	0x1
	.uleb128 0x12
	.byte	0x1
	.set L$set$2003,LASF53-Lsection__debug_str
	.long L$set$2003
	.byte	0x40
	.short	0x1ae
	.byte	0x7
	.ascii "_ZNSt14numeric_limitsIbE9quiet_NaNEv\0"
	.long	0x1587
	.byte	0x1
	.uleb128 0x12
	.byte	0x1
	.set L$set$2004,LASF54-Lsection__debug_str
	.long L$set$2004
	.byte	0x40
	.short	0x1b1
	.byte	0x7
	.ascii "_ZNSt14numeric_limitsIbE13signaling_NaNEv\0"
	.long	0x1587
	.byte	0x1
	.uleb128 0x12
	.byte	0x1
	.set L$set$2005,LASF55-Lsection__debug_str
	.long L$set$2005
	.byte	0x40
	.short	0x1b4
	.byte	0x7
	.ascii "_ZNSt14numeric_limitsIbE10denorm_minEv\0"
	.long	0x1587
	.byte	0x1
	.uleb128 0x6
	.set L$set$2006,LASF43-Lsection__debug_str
	.long L$set$2006
	.byte	0x40
	.short	0x1b6
	.byte	0x2a
	.long	0x158f
	.byte	0x1
	.byte	0x1
	.byte	0
	.uleb128 0x6
	.set L$set$2007,LASF44-Lsection__debug_str
	.long L$set$2007
	.byte	0x40
	.short	0x1b7
	.byte	0x2a
	.long	0x158f
	.byte	0x1
	.byte	0x1
	.byte	0x1
	.uleb128 0x6
	.set L$set$2008,LASF45-Lsection__debug_str
	.long L$set$2008
	.byte	0x40
	.short	0x1b8
	.byte	0x2a
	.long	0x158f
	.byte	0x1
	.byte	0x1
	.byte	0
	.uleb128 0x6
	.set L$set$2009,LASF46-Lsection__debug_str
	.long L$set$2009
	.byte	0x40
	.short	0x1bd
	.byte	0x2a
	.long	0x158f
	.byte	0x1
	.byte	0x1
	.byte	0x1
	.uleb128 0x6
	.set L$set$2010,LASF47-Lsection__debug_str
	.long L$set$2010
	.byte	0x40
	.short	0x1be
	.byte	0x2a
	.long	0x158f
	.byte	0x1
	.byte	0x1
	.byte	0
	.uleb128 0x6
	.set L$set$2011,LASF48-Lsection__debug_str
	.long L$set$2011
	.byte	0x40
	.short	0x1bf
	.byte	0x37
	.long	0x2e18
	.byte	0x1
	.byte	0x1
	.byte	0
	.uleb128 0xe
	.ascii "_Tp\0"
	.long	0x1587
	.byte	0
	.uleb128 0x4
	.ascii "_ZNSt14numeric_limitsIbE14is_specializedE\0"
	.long	0x346b
	.uleb128 0x4
	.ascii "_ZNSt14numeric_limitsIbE6digitsE\0"
	.long	0x3508
	.uleb128 0x4
	.ascii "_ZNSt14numeric_limitsIbE8digits10E\0"
	.long	0x3518
	.uleb128 0x4
	.ascii "_ZNSt14numeric_limitsIbE12max_digits10E\0"
	.long	0x3528
	.uleb128 0x4
	.ascii "_ZNSt14numeric_limitsIbE9is_signedE\0"
	.long	0x3538
	.uleb128 0x4
	.ascii "_ZNSt14numeric_limitsIbE10is_integerE\0"
	.long	0x3548
	.uleb128 0x4
	.ascii "_ZNSt14numeric_limitsIbE8is_exactE\0"
	.long	0x3558
	.uleb128 0x4
	.ascii "_ZNSt14numeric_limitsIbE5radixE\0"
	.long	0x3568
	.uleb128 0x4
	.ascii "_ZNSt14numeric_limitsIbE12min_exponentE\0"
	.long	0x35e1
	.uleb128 0x4
	.ascii "_ZNSt14numeric_limitsIbE14min_exponent10E\0"
	.long	0x35f1
	.uleb128 0x4
	.ascii "_ZNSt14numeric_limitsIbE12max_exponentE\0"
	.long	0x3601
	.uleb128 0x4
	.ascii "_ZNSt14numeric_limitsIbE14max_exponent10E\0"
	.long	0x3611
	.uleb128 0x4
	.ascii "_ZNSt14numeric_limitsIbE12has_infinityE\0"
	.long	0x3621
	.uleb128 0x4
	.ascii "_ZNSt14numeric_limitsIbE13has_quiet_NaNE\0"
	.long	0x3631
	.uleb128 0x4
	.ascii "_ZNSt14numeric_limitsIbE17has_signaling_NaNE\0"
	.long	0x3641
	.uleb128 0x4
	.ascii "_ZNSt14numeric_limitsIbE10has_denormE\0"
	.long	0x3651
	.uleb128 0x4
	.ascii "_ZNSt14numeric_limitsIbE15has_denorm_lossE\0"
	.long	0x3661
	.uleb128 0x4
	.ascii "_ZNSt14numeric_limitsIbE9is_iec559E\0"
	.long	0x3747
	.uleb128 0x4
	.ascii "_ZNSt14numeric_limitsIbE10is_boundedE\0"
	.long	0x3757
	.uleb128 0x4
	.ascii "_ZNSt14numeric_limitsIbE9is_moduloE\0"
	.long	0x3767
	.uleb128 0x4
	.ascii "_ZNSt14numeric_limitsIbE5trapsE\0"
	.long	0x3777
	.uleb128 0x4
	.ascii "_ZNSt14numeric_limitsIbE15tinyness_beforeE\0"
	.long	0x3787
	.uleb128 0x4
	.ascii "_ZNSt14numeric_limitsIbE11round_styleE\0"
	.long	0x3797
	.uleb128 0x29
	.ascii "numeric_limits<char>\0"
	.byte	0x1
	.uleb128 0x28
	.long	0x3b9a
	.byte	0x1
	.byte	0x40
	.short	0x1c5
	.byte	0xc
	.long	0x3f05
	.uleb128 0x6
	.set L$set$2012,LASF26-Lsection__debug_str
	.long L$set$2012
	.byte	0x40
	.short	0x1c7
	.byte	0x2a
	.long	0x158f
	.byte	0x1
	.byte	0x1
	.byte	0x1
	.uleb128 0x21
	.byte	0x1
	.ascii "min\0"
	.byte	0x40
	.short	0x1ca
	.byte	0x7
	.ascii "_ZNSt14numeric_limitsIcE3minEv\0"
	.long	0x201
	.byte	0x1
	.uleb128 0x21
	.byte	0x1
	.ascii "max\0"
	.byte	0x40
	.short	0x1cd
	.byte	0x7
	.ascii "_ZNSt14numeric_limitsIcE3maxEv\0"
	.long	0x201
	.byte	0x1
	.uleb128 0x12
	.byte	0x1
	.set L$set$2013,LASF49-Lsection__debug_str
	.long L$set$2013
	.byte	0x40
	.short	0x1d1
	.byte	0x7
	.ascii "_ZNSt14numeric_limitsIcE6lowestEv\0"
	.long	0x201
	.byte	0x1
	.uleb128 0x6
	.set L$set$2014,LASF27-Lsection__debug_str
	.long L$set$2014
	.byte	0x40
	.short	0x1d4
	.byte	0x29
	.long	0xfd
	.byte	0x1
	.byte	0x1
	.byte	0x7
	.uleb128 0x6
	.set L$set$2015,LASF28-Lsection__debug_str
	.long L$set$2015
	.byte	0x40
	.short	0x1d5
	.byte	0x29
	.long	0xfd
	.byte	0x1
	.byte	0x1
	.byte	0x2
	.uleb128 0x6
	.set L$set$2016,LASF29-Lsection__debug_str
	.long L$set$2016
	.byte	0x40
	.short	0x1d7
	.byte	0x1c
	.long	0xfd
	.byte	0x1
	.byte	0x1
	.byte	0
	.uleb128 0x6
	.set L$set$2017,LASF30-Lsection__debug_str
	.long L$set$2017
	.byte	0x40
	.short	0x1d9
	.byte	0x2a
	.long	0x158f
	.byte	0x1
	.byte	0x1
	.byte	0x1
	.uleb128 0x6
	.set L$set$2018,LASF31-Lsection__debug_str
	.long L$set$2018
	.byte	0x40
	.short	0x1da
	.byte	0x2a
	.long	0x158f
	.byte	0x1
	.byte	0x1
	.byte	0x1
	.uleb128 0x6
	.set L$set$2019,LASF32-Lsection__debug_str
	.long L$set$2019
	.byte	0x40
	.short	0x1db
	.byte	0x2a
	.long	0x158f
	.byte	0x1
	.byte	0x1
	.byte	0x1
	.uleb128 0x6
	.set L$set$2020,LASF33-Lsection__debug_str
	.long L$set$2020
	.byte	0x40
	.short	0x1dc
	.byte	0x29
	.long	0xfd
	.byte	0x1
	.byte	0x1
	.byte	0x2
	.uleb128 0x12
	.byte	0x1
	.set L$set$2021,LASF50-Lsection__debug_str
	.long L$set$2021
	.byte	0x40
	.short	0x1df
	.byte	0x7
	.ascii "_ZNSt14numeric_limitsIcE7epsilonEv\0"
	.long	0x201
	.byte	0x1
	.uleb128 0x12
	.byte	0x1
	.set L$set$2022,LASF51-Lsection__debug_str
	.long L$set$2022
	.byte	0x40
	.short	0x1e2
	.byte	0x7
	.ascii "_ZNSt14numeric_limitsIcE11round_errorEv\0"
	.long	0x201
	.byte	0x1
	.uleb128 0x6
	.set L$set$2023,LASF34-Lsection__debug_str
	.long L$set$2023
	.byte	0x40
	.short	0x1e4
	.byte	0x29
	.long	0xfd
	.byte	0x1
	.byte	0x1
	.byte	0
	.uleb128 0x6
	.set L$set$2024,LASF35-Lsection__debug_str
	.long L$set$2024
	.byte	0x40
	.short	0x1e5
	.byte	0x29
	.long	0xfd
	.byte	0x1
	.byte	0x1
	.byte	0
	.uleb128 0x6
	.set L$set$2025,LASF36-Lsection__debug_str
	.long L$set$2025
	.byte	0x40
	.short	0x1e6
	.byte	0x29
	.long	0xfd
	.byte	0x1
	.byte	0x1
	.byte	0
	.uleb128 0x6
	.set L$set$2026,LASF37-Lsection__debug_str
	.long L$set$2026
	.byte	0x40
	.short	0x1e7
	.byte	0x29
	.long	0xfd
	.byte	0x1
	.byte	0x1
	.byte	0
	.uleb128 0x6
	.set L$set$2027,LASF38-Lsection__debug_str
	.long L$set$2027
	.byte	0x40
	.short	0x1e9
	.byte	0x2a
	.long	0x158f
	.byte	0x1
	.byte	0x1
	.byte	0
	.uleb128 0x6
	.set L$set$2028,LASF39-Lsection__debug_str
	.long L$set$2028
	.byte	0x40
	.short	0x1ea
	.byte	0x2a
	.long	0x158f
	.byte	0x1
	.byte	0x1
	.byte	0
	.uleb128 0x6
	.set L$set$2029,LASF40-Lsection__debug_str
	.long L$set$2029
	.byte	0x40
	.short	0x1eb
	.byte	0x2a
	.long	0x158f
	.byte	0x1
	.byte	0x1
	.byte	0
	.uleb128 0x6
	.set L$set$2030,LASF41-Lsection__debug_str
	.long L$set$2030
	.byte	0x40
	.short	0x1ec
	.byte	0x38
	.long	0x2e73
	.byte	0x1
	.byte	0x1
	.byte	0
	.uleb128 0x6
	.set L$set$2031,LASF42-Lsection__debug_str
	.long L$set$2031
	.byte	0x40
	.short	0x1ee
	.byte	0x2a
	.long	0x158f
	.byte	0x1
	.byte	0x1
	.byte	0
	.uleb128 0x12
	.byte	0x1
	.set L$set$2032,LASF52-Lsection__debug_str
	.long L$set$2032
	.byte	0x40
	.short	0x1f1
	.byte	0xc
	.ascii "_ZNSt14numeric_limitsIcE8infinityEv\0"
	.long	0x201
	.byte	0x1
	.uleb128 0x12
	.byte	0x1
	.set L$set$2033,LASF53-Lsection__debug_str
	.long L$set$2033
	.byte	0x40
	.short	0x1f4
	.byte	0x7
	.ascii "_ZNSt14numeric_limitsIcE9quiet_NaNEv\0"
	.long	0x201
	.byte	0x1
	.uleb128 0x12
	.byte	0x1
	.set L$set$2034,LASF54-Lsection__debug_str
	.long L$set$2034
	.byte	0x40
	.short	0x1f7
	.byte	0x7
	.ascii "_ZNSt14numeric_limitsIcE13signaling_NaNEv\0"
	.long	0x201
	.byte	0x1
	.uleb128 0x12
	.byte	0x1
	.set L$set$2035,LASF55-Lsection__debug_str
	.long L$set$2035
	.byte	0x40
	.short	0x1fa
	.byte	0x7
	.ascii "_ZNSt14numeric_limitsIcE10denorm_minEv\0"
	.long	0x201
	.byte	0x1
	.uleb128 0x6
	.set L$set$2036,LASF43-Lsection__debug_str
	.long L$set$2036
	.byte	0x40
	.short	0x1fc
	.byte	0x2a
	.long	0x158f
	.byte	0x1
	.byte	0x1
	.byte	0
	.uleb128 0x6
	.set L$set$2037,LASF44-Lsection__debug_str
	.long L$set$2037
	.byte	0x40
	.short	0x1fd
	.byte	0x2a
	.long	0x158f
	.byte	0x1
	.byte	0x1
	.byte	0x1
	.uleb128 0x6
	.set L$set$2038,LASF45-Lsection__debug_str
	.long L$set$2038
	.byte	0x40
	.short	0x1fe
	.byte	0x2a
	.long	0x158f
	.byte	0x1
	.byte	0x1
	.byte	0
	.uleb128 0x6
	.set L$set$2039,LASF46-Lsection__debug_str
	.long L$set$2039
	.byte	0x40
	.short	0x200
	.byte	0x2a
	.long	0x158f
	.byte	0x1
	.byte	0x1
	.byte	0x1
	.uleb128 0x6
	.set L$set$2040,LASF47-Lsection__debug_str
	.long L$set$2040
	.byte	0x40
	.short	0x201
	.byte	0x2a
	.long	0x158f
	.byte	0x1
	.byte	0x1
	.byte	0
	.uleb128 0x6
	.set L$set$2041,LASF48-Lsection__debug_str
	.long L$set$2041
	.byte	0x40
	.short	0x202
	.byte	0x37
	.long	0x2e18
	.byte	0x1
	.byte	0x1
	.byte	0
	.uleb128 0xe
	.ascii "_Tp\0"
	.long	0x201
	.byte	0
	.uleb128 0x4
	.ascii "_ZNSt14numeric_limitsIcE14is_specializedE\0"
	.long	0x3bbf
	.uleb128 0x4
	.ascii "_ZNSt14numeric_limitsIcE6digitsE\0"
	.long	0x3c5c
	.uleb128 0x4
	.ascii "_ZNSt14numeric_limitsIcE8digits10E\0"
	.long	0x3c6c
	.uleb128 0x4
	.ascii "_ZNSt14numeric_limitsIcE12max_digits10E\0"
	.long	0x3c7c
	.uleb128 0x4
	.ascii "_ZNSt14numeric_limitsIcE9is_signedE\0"
	.long	0x3c8c
	.uleb128 0x4
	.ascii "_ZNSt14numeric_limitsIcE10is_integerE\0"
	.long	0x3c9c
	.uleb128 0x4
	.ascii "_ZNSt14numeric_limitsIcE8is_exactE\0"
	.long	0x3cac
	.uleb128 0x4
	.ascii "_ZNSt14numeric_limitsIcE5radixE\0"
	.long	0x3cbc
	.uleb128 0x4
	.ascii "_ZNSt14numeric_limitsIcE12min_exponentE\0"
	.long	0x3d35
	.uleb128 0x4
	.ascii "_ZNSt14numeric_limitsIcE14min_exponent10E\0"
	.long	0x3d45
	.uleb128 0x4
	.ascii "_ZNSt14numeric_limitsIcE12max_exponentE\0"
	.long	0x3d55
	.uleb128 0x4
	.ascii "_ZNSt14numeric_limitsIcE14max_exponent10E\0"
	.long	0x3d65
	.uleb128 0x4
	.ascii "_ZNSt14numeric_limitsIcE12has_infinityE\0"
	.long	0x3d75
	.uleb128 0x4
	.ascii "_ZNSt14numeric_limitsIcE13has_quiet_NaNE\0"
	.long	0x3d85
	.uleb128 0x4
	.ascii "_ZNSt14numeric_limitsIcE17has_signaling_NaNE\0"
	.long	0x3d95
	.uleb128 0x4
	.ascii "_ZNSt14numeric_limitsIcE10has_denormE\0"
	.long	0x3da5
	.uleb128 0x4
	.ascii "_ZNSt14numeric_limitsIcE15has_denorm_lossE\0"
	.long	0x3db5
	.uleb128 0x4
	.ascii "_ZNSt14numeric_limitsIcE9is_iec559E\0"
	.long	0x3e9b
	.uleb128 0x4
	.ascii "_ZNSt14numeric_limitsIcE10is_boundedE\0"
	.long	0x3eab
	.uleb128 0x4
	.ascii "_ZNSt14numeric_limitsIcE9is_moduloE\0"
	.long	0x3ebb
	.uleb128 0x4
	.ascii "_ZNSt14numeric_limitsIcE5trapsE\0"
	.long	0x3ecb
	.uleb128 0x4
	.ascii "_ZNSt14numeric_limitsIcE15tinyness_beforeE\0"
	.long	0x3edb
	.uleb128 0x4
	.ascii "_ZNSt14numeric_limitsIcE11round_styleE\0"
	.long	0x3eeb
	.uleb128 0x29
	.ascii "numeric_limits<signed char>\0"
	.byte	0x1
	.uleb128 0x28
	.long	0x42ee
	.byte	0x1
	.byte	0x40
	.short	0x208
	.byte	0xc
	.long	0x4660
	.uleb128 0x6
	.set L$set$2042,LASF26-Lsection__debug_str
	.long L$set$2042
	.byte	0x40
	.short	0x20a
	.byte	0x2a
	.long	0x158f
	.byte	0x1
	.byte	0x1
	.byte	0x1
	.uleb128 0x21
	.byte	0x1
	.ascii "min\0"
	.byte	0x40
	.short	0x20d
	.byte	0x7
	.ascii "_ZNSt14numeric_limitsIaE3minEv\0"
	.long	0xa9
	.byte	0x1
	.uleb128 0x21
	.byte	0x1
	.ascii "max\0"
	.byte	0x40
	.short	0x210
	.byte	0x7
	.ascii "_ZNSt14numeric_limitsIaE3maxEv\0"
	.long	0xa9
	.byte	0x1
	.uleb128 0x12
	.byte	0x1
	.set L$set$2043,LASF49-Lsection__debug_str
	.long L$set$2043
	.byte	0x40
	.short	0x214
	.byte	0x7
	.ascii "_ZNSt14numeric_limitsIaE6lowestEv\0"
	.long	0xa9
	.byte	0x1
	.uleb128 0x6
	.set L$set$2044,LASF27-Lsection__debug_str
	.long L$set$2044
	.byte	0x40
	.short	0x217
	.byte	0x29
	.long	0xfd
	.byte	0x1
	.byte	0x1
	.byte	0x7
	.uleb128 0x6
	.set L$set$2045,LASF28-Lsection__debug_str
	.long L$set$2045
	.byte	0x40
	.short	0x218
	.byte	0x29
	.long	0xfd
	.byte	0x1
	.byte	0x1
	.byte	0x2
	.uleb128 0x6
	.set L$set$2046,LASF29-Lsection__debug_str
	.long L$set$2046
	.byte	0x40
	.short	0x21b
	.byte	0x1c
	.long	0xfd
	.byte	0x1
	.byte	0x1
	.byte	0
	.uleb128 0x6
	.set L$set$2047,LASF30-Lsection__debug_str
	.long L$set$2047
	.byte	0x40
	.short	0x21d
	.byte	0x2a
	.long	0x158f
	.byte	0x1
	.byte	0x1
	.byte	0x1
	.uleb128 0x6
	.set L$set$2048,LASF31-Lsection__debug_str
	.long L$set$2048
	.byte	0x40
	.short	0x21e
	.byte	0x2a
	.long	0x158f
	.byte	0x1
	.byte	0x1
	.byte	0x1
	.uleb128 0x6
	.set L$set$2049,LASF32-Lsection__debug_str
	.long L$set$2049
	.byte	0x40
	.short	0x21f
	.byte	0x2a
	.long	0x158f
	.byte	0x1
	.byte	0x1
	.byte	0x1
	.uleb128 0x6
	.set L$set$2050,LASF33-Lsection__debug_str
	.long L$set$2050
	.byte	0x40
	.short	0x220
	.byte	0x29
	.long	0xfd
	.byte	0x1
	.byte	0x1
	.byte	0x2
	.uleb128 0x12
	.byte	0x1
	.set L$set$2051,LASF50-Lsection__debug_str
	.long L$set$2051
	.byte	0x40
	.short	0x223
	.byte	0x7
	.ascii "_ZNSt14numeric_limitsIaE7epsilonEv\0"
	.long	0xa9
	.byte	0x1
	.uleb128 0x12
	.byte	0x1
	.set L$set$2052,LASF51-Lsection__debug_str
	.long L$set$2052
	.byte	0x40
	.short	0x226
	.byte	0x7
	.ascii "_ZNSt14numeric_limitsIaE11round_errorEv\0"
	.long	0xa9
	.byte	0x1
	.uleb128 0x6
	.set L$set$2053,LASF34-Lsection__debug_str
	.long L$set$2053
	.byte	0x40
	.short	0x228
	.byte	0x29
	.long	0xfd
	.byte	0x1
	.byte	0x1
	.byte	0
	.uleb128 0x6
	.set L$set$2054,LASF35-Lsection__debug_str
	.long L$set$2054
	.byte	0x40
	.short	0x229
	.byte	0x29
	.long	0xfd
	.byte	0x1
	.byte	0x1
	.byte	0
	.uleb128 0x6
	.set L$set$2055,LASF36-Lsection__debug_str
	.long L$set$2055
	.byte	0x40
	.short	0x22a
	.byte	0x29
	.long	0xfd
	.byte	0x1
	.byte	0x1
	.byte	0
	.uleb128 0x6
	.set L$set$2056,LASF37-Lsection__debug_str
	.long L$set$2056
	.byte	0x40
	.short	0x22b
	.byte	0x29
	.long	0xfd
	.byte	0x1
	.byte	0x1
	.byte	0
	.uleb128 0x6
	.set L$set$2057,LASF38-Lsection__debug_str
	.long L$set$2057
	.byte	0x40
	.short	0x22d
	.byte	0x2a
	.long	0x158f
	.byte	0x1
	.byte	0x1
	.byte	0
	.uleb128 0x6
	.set L$set$2058,LASF39-Lsection__debug_str
	.long L$set$2058
	.byte	0x40
	.short	0x22e
	.byte	0x2a
	.long	0x158f
	.byte	0x1
	.byte	0x1
	.byte	0
	.uleb128 0x6
	.set L$set$2059,LASF40-Lsection__debug_str
	.long L$set$2059
	.byte	0x40
	.short	0x22f
	.byte	0x2a
	.long	0x158f
	.byte	0x1
	.byte	0x1
	.byte	0
	.uleb128 0x6
	.set L$set$2060,LASF41-Lsection__debug_str
	.long L$set$2060
	.byte	0x40
	.short	0x230
	.byte	0x38
	.long	0x2e73
	.byte	0x1
	.byte	0x1
	.byte	0
	.uleb128 0x6
	.set L$set$2061,LASF42-Lsection__debug_str
	.long L$set$2061
	.byte	0x40
	.short	0x232
	.byte	0x2a
	.long	0x158f
	.byte	0x1
	.byte	0x1
	.byte	0
	.uleb128 0x12
	.byte	0x1
	.set L$set$2062,LASF52-Lsection__debug_str
	.long L$set$2062
	.byte	0x40
	.short	0x235
	.byte	0x7
	.ascii "_ZNSt14numeric_limitsIaE8infinityEv\0"
	.long	0xa9
	.byte	0x1
	.uleb128 0x12
	.byte	0x1
	.set L$set$2063,LASF53-Lsection__debug_str
	.long L$set$2063
	.byte	0x40
	.short	0x238
	.byte	0x7
	.ascii "_ZNSt14numeric_limitsIaE9quiet_NaNEv\0"
	.long	0xa9
	.byte	0x1
	.uleb128 0x12
	.byte	0x1
	.set L$set$2064,LASF54-Lsection__debug_str
	.long L$set$2064
	.byte	0x40
	.short	0x23b
	.byte	0x7
	.ascii "_ZNSt14numeric_limitsIaE13signaling_NaNEv\0"
	.long	0xa9
	.byte	0x1
	.uleb128 0x12
	.byte	0x1
	.set L$set$2065,LASF55-Lsection__debug_str
	.long L$set$2065
	.byte	0x40
	.short	0x23f
	.byte	0x7
	.ascii "_ZNSt14numeric_limitsIaE10denorm_minEv\0"
	.long	0xa9
	.byte	0x1
	.uleb128 0x6
	.set L$set$2066,LASF43-Lsection__debug_str
	.long L$set$2066
	.byte	0x40
	.short	0x242
	.byte	0x2a
	.long	0x158f
	.byte	0x1
	.byte	0x1
	.byte	0
	.uleb128 0x6
	.set L$set$2067,LASF44-Lsection__debug_str
	.long L$set$2067
	.byte	0x40
	.short	0x243
	.byte	0x2a
	.long	0x158f
	.byte	0x1
	.byte	0x1
	.byte	0x1
	.uleb128 0x6
	.set L$set$2068,LASF45-Lsection__debug_str
	.long L$set$2068
	.byte	0x40
	.short	0x244
	.byte	0x2a
	.long	0x158f
	.byte	0x1
	.byte	0x1
	.byte	0
	.uleb128 0x6
	.set L$set$2069,LASF46-Lsection__debug_str
	.long L$set$2069
	.byte	0x40
	.short	0x246
	.byte	0x2a
	.long	0x158f
	.byte	0x1
	.byte	0x1
	.byte	0x1
	.uleb128 0x6
	.set L$set$2070,LASF47-Lsection__debug_str
	.long L$set$2070
	.byte	0x40
	.short	0x247
	.byte	0x2a
	.long	0x158f
	.byte	0x1
	.byte	0x1
	.byte	0
	.uleb128 0x6
	.set L$set$2071,LASF48-Lsection__debug_str
	.long L$set$2071
	.byte	0x40
	.short	0x248
	.byte	0x37
	.long	0x2e18
	.byte	0x1
	.byte	0x1
	.byte	0
	.uleb128 0xe
	.ascii "_Tp\0"
	.long	0xa9
	.byte	0
	.uleb128 0x4
	.ascii "_ZNSt14numeric_limitsIaE14is_specializedE\0"
	.long	0x431a
	.uleb128 0x4
	.ascii "_ZNSt14numeric_limitsIaE6digitsE\0"
	.long	0x43b7
	.uleb128 0x4
	.ascii "_ZNSt14numeric_limitsIaE8digits10E\0"
	.long	0x43c7
	.uleb128 0x4
	.ascii "_ZNSt14numeric_limitsIaE12max_digits10E\0"
	.long	0x43d7
	.uleb128 0x4
	.ascii "_ZNSt14numeric_limitsIaE9is_signedE\0"
	.long	0x43e7
	.uleb128 0x4
	.ascii "_ZNSt14numeric_limitsIaE10is_integerE\0"
	.long	0x43f7
	.uleb128 0x4
	.ascii "_ZNSt14numeric_limitsIaE8is_exactE\0"
	.long	0x4407
	.uleb128 0x4
	.ascii "_ZNSt14numeric_limitsIaE5radixE\0"
	.long	0x4417
	.uleb128 0x4
	.ascii "_ZNSt14numeric_limitsIaE12min_exponentE\0"
	.long	0x4490
	.uleb128 0x4
	.ascii "_ZNSt14numeric_limitsIaE14min_exponent10E\0"
	.long	0x44a0
	.uleb128 0x4
	.ascii "_ZNSt14numeric_limitsIaE12max_exponentE\0"
	.long	0x44b0
	.uleb128 0x4
	.ascii "_ZNSt14numeric_limitsIaE14max_exponent10E\0"
	.long	0x44c0
	.uleb128 0x4
	.ascii "_ZNSt14numeric_limitsIaE12has_infinityE\0"
	.long	0x44d0
	.uleb128 0x4
	.ascii "_ZNSt14numeric_limitsIaE13has_quiet_NaNE\0"
	.long	0x44e0
	.uleb128 0x4
	.ascii "_ZNSt14numeric_limitsIaE17has_signaling_NaNE\0"
	.long	0x44f0
	.uleb128 0x4
	.ascii "_ZNSt14numeric_limitsIaE10has_denormE\0"
	.long	0x4500
	.uleb128 0x4
	.ascii "_ZNSt14numeric_limitsIaE15has_denorm_lossE\0"
	.long	0x4510
	.uleb128 0x4
	.ascii "_ZNSt14numeric_limitsIaE9is_iec559E\0"
	.long	0x45f6
	.uleb128 0x4
	.ascii "_ZNSt14numeric_limitsIaE10is_boundedE\0"
	.long	0x4606
	.uleb128 0x4
	.ascii "_ZNSt14numeric_limitsIaE9is_moduloE\0"
	.long	0x4616
	.uleb128 0x4
	.ascii "_ZNSt14numeric_limitsIaE5trapsE\0"
	.long	0x4626
	.uleb128 0x4
	.ascii "_ZNSt14numeric_limitsIaE15tinyness_beforeE\0"
	.long	0x4636
	.uleb128 0x4
	.ascii "_ZNSt14numeric_limitsIaE11round_styleE\0"
	.long	0x4646
	.uleb128 0x29
	.ascii "numeric_limits<unsigned char>\0"
	.byte	0x1
	.uleb128 0x28
	.long	0x4a49
	.byte	0x1
	.byte	0x40
	.short	0x24e
	.byte	0xc
	.long	0x4dbd
	.uleb128 0x6
	.set L$set$2072,LASF26-Lsection__debug_str
	.long L$set$2072
	.byte	0x40
	.short	0x250
	.byte	0x2a
	.long	0x158f
	.byte	0x1
	.byte	0x1
	.byte	0x1
	.uleb128 0x21
	.byte	0x1
	.ascii "min\0"
	.byte	0x40
	.short	0x253
	.byte	0x7
	.ascii "_ZNSt14numeric_limitsIhE3minEv\0"
	.long	0xb8
	.byte	0x1
	.uleb128 0x21
	.byte	0x1
	.ascii "max\0"
	.byte	0x40
	.short	0x256
	.byte	0x7
	.ascii "_ZNSt14numeric_limitsIhE3maxEv\0"
	.long	0xb8
	.byte	0x1
	.uleb128 0x12
	.byte	0x1
	.set L$set$2073,LASF49-Lsection__debug_str
	.long L$set$2073
	.byte	0x40
	.short	0x25a
	.byte	0x7
	.ascii "_ZNSt14numeric_limitsIhE6lowestEv\0"
	.long	0xb8
	.byte	0x1
	.uleb128 0x6
	.set L$set$2074,LASF27-Lsection__debug_str
	.long L$set$2074
	.byte	0x40
	.short	0x25d
	.byte	0x29
	.long	0xfd
	.byte	0x1
	.byte	0x1
	.byte	0x8
	.uleb128 0x6
	.set L$set$2075,LASF28-Lsection__debug_str
	.long L$set$2075
	.byte	0x40
	.short	0x25f
	.byte	0x29
	.long	0xfd
	.byte	0x1
	.byte	0x1
	.byte	0x2
	.uleb128 0x6
	.set L$set$2076,LASF29-Lsection__debug_str
	.long L$set$2076
	.byte	0x40
	.short	0x262
	.byte	0x1c
	.long	0xfd
	.byte	0x1
	.byte	0x1
	.byte	0
	.uleb128 0x6
	.set L$set$2077,LASF30-Lsection__debug_str
	.long L$set$2077
	.byte	0x40
	.short	0x264
	.byte	0x2a
	.long	0x158f
	.byte	0x1
	.byte	0x1
	.byte	0
	.uleb128 0x6
	.set L$set$2078,LASF31-Lsection__debug_str
	.long L$set$2078
	.byte	0x40
	.short	0x265
	.byte	0x2a
	.long	0x158f
	.byte	0x1
	.byte	0x1
	.byte	0x1
	.uleb128 0x6
	.set L$set$2079,LASF32-Lsection__debug_str
	.long L$set$2079
	.byte	0x40
	.short	0x266
	.byte	0x2a
	.long	0x158f
	.byte	0x1
	.byte	0x1
	.byte	0x1
	.uleb128 0x6
	.set L$set$2080,LASF33-Lsection__debug_str
	.long L$set$2080
	.byte	0x40
	.short	0x267
	.byte	0x29
	.long	0xfd
	.byte	0x1
	.byte	0x1
	.byte	0x2
	.uleb128 0x12
	.byte	0x1
	.set L$set$2081,LASF50-Lsection__debug_str
	.long L$set$2081
	.byte	0x40
	.short	0x26a
	.byte	0x7
	.ascii "_ZNSt14numeric_limitsIhE7epsilonEv\0"
	.long	0xb8
	.byte	0x1
	.uleb128 0x12
	.byte	0x1
	.set L$set$2082,LASF51-Lsection__debug_str
	.long L$set$2082
	.byte	0x40
	.short	0x26d
	.byte	0x7
	.ascii "_ZNSt14numeric_limitsIhE11round_errorEv\0"
	.long	0xb8
	.byte	0x1
	.uleb128 0x6
	.set L$set$2083,LASF34-Lsection__debug_str
	.long L$set$2083
	.byte	0x40
	.short	0x26f
	.byte	0x29
	.long	0xfd
	.byte	0x1
	.byte	0x1
	.byte	0
	.uleb128 0x6
	.set L$set$2084,LASF35-Lsection__debug_str
	.long L$set$2084
	.byte	0x40
	.short	0x270
	.byte	0x29
	.long	0xfd
	.byte	0x1
	.byte	0x1
	.byte	0
	.uleb128 0x6
	.set L$set$2085,LASF36-Lsection__debug_str
	.long L$set$2085
	.byte	0x40
	.short	0x271
	.byte	0x29
	.long	0xfd
	.byte	0x1
	.byte	0x1
	.byte	0
	.uleb128 0x6
	.set L$set$2086,LASF37-Lsection__debug_str
	.long L$set$2086
	.byte	0x40
	.short	0x272
	.byte	0x29
	.long	0xfd
	.byte	0x1
	.byte	0x1
	.byte	0
	.uleb128 0x6
	.set L$set$2087,LASF38-Lsection__debug_str
	.long L$set$2087
	.byte	0x40
	.short	0x274
	.byte	0x2a
	.long	0x158f
	.byte	0x1
	.byte	0x1
	.byte	0
	.uleb128 0x6
	.set L$set$2088,LASF39-Lsection__debug_str
	.long L$set$2088
	.byte	0x40
	.short	0x275
	.byte	0x2a
	.long	0x158f
	.byte	0x1
	.byte	0x1
	.byte	0
	.uleb128 0x6
	.set L$set$2089,LASF40-Lsection__debug_str
	.long L$set$2089
	.byte	0x40
	.short	0x276
	.byte	0x2a
	.long	0x158f
	.byte	0x1
	.byte	0x1
	.byte	0
	.uleb128 0x6
	.set L$set$2090,LASF41-Lsection__debug_str
	.long L$set$2090
	.byte	0x40
	.short	0x277
	.byte	0x38
	.long	0x2e73
	.byte	0x1
	.byte	0x1
	.byte	0
	.uleb128 0x6
	.set L$set$2091,LASF42-Lsection__debug_str
	.long L$set$2091
	.byte	0x40
	.short	0x279
	.byte	0x2a
	.long	0x158f
	.byte	0x1
	.byte	0x1
	.byte	0
	.uleb128 0x12
	.byte	0x1
	.set L$set$2092,LASF52-Lsection__debug_str
	.long L$set$2092
	.byte	0x40
	.short	0x27c
	.byte	0x7
	.ascii "_ZNSt14numeric_limitsIhE8infinityEv\0"
	.long	0xb8
	.byte	0x1
	.uleb128 0x12
	.byte	0x1
	.set L$set$2093,LASF53-Lsection__debug_str
	.long L$set$2093
	.byte	0x40
	.short	0x280
	.byte	0x7
	.ascii "_ZNSt14numeric_limitsIhE9quiet_NaNEv\0"
	.long	0xb8
	.byte	0x1
	.uleb128 0x12
	.byte	0x1
	.set L$set$2094,LASF54-Lsection__debug_str
	.long L$set$2094
	.byte	0x40
	.short	0x284
	.byte	0x7
	.ascii "_ZNSt14numeric_limitsIhE13signaling_NaNEv\0"
	.long	0xb8
	.byte	0x1
	.uleb128 0x12
	.byte	0x1
	.set L$set$2095,LASF55-Lsection__debug_str
	.long L$set$2095
	.byte	0x40
	.short	0x288
	.byte	0x7
	.ascii "_ZNSt14numeric_limitsIhE10denorm_minEv\0"
	.long	0xb8
	.byte	0x1
	.uleb128 0x6
	.set L$set$2096,LASF43-Lsection__debug_str
	.long L$set$2096
	.byte	0x40
	.short	0x28b
	.byte	0x2a
	.long	0x158f
	.byte	0x1
	.byte	0x1
	.byte	0
	.uleb128 0x6
	.set L$set$2097,LASF44-Lsection__debug_str
	.long L$set$2097
	.byte	0x40
	.short	0x28c
	.byte	0x2a
	.long	0x158f
	.byte	0x1
	.byte	0x1
	.byte	0x1
	.uleb128 0x6
	.set L$set$2098,LASF45-Lsection__debug_str
	.long L$set$2098
	.byte	0x40
	.short	0x28d
	.byte	0x2a
	.long	0x158f
	.byte	0x1
	.byte	0x1
	.byte	0x1
	.uleb128 0x6
	.set L$set$2099,LASF46-Lsection__debug_str
	.long L$set$2099
	.byte	0x40
	.short	0x28f
	.byte	0x2a
	.long	0x158f
	.byte	0x1
	.byte	0x1
	.byte	0x1
	.uleb128 0x6
	.set L$set$2100,LASF47-Lsection__debug_str
	.long L$set$2100
	.byte	0x40
	.short	0x290
	.byte	0x2a
	.long	0x158f
	.byte	0x1
	.byte	0x1
	.byte	0
	.uleb128 0x6
	.set L$set$2101,LASF48-Lsection__debug_str
	.long L$set$2101
	.byte	0x40
	.short	0x291
	.byte	0x37
	.long	0x2e18
	.byte	0x1
	.byte	0x1
	.byte	0
	.uleb128 0xe
	.ascii "_Tp\0"
	.long	0xb8
	.byte	0
	.uleb128 0x4
	.ascii "_ZNSt14numeric_limitsIhE14is_specializedE\0"
	.long	0x4a77
	.uleb128 0x4
	.ascii "_ZNSt14numeric_limitsIhE6digitsE\0"
	.long	0x4b14
	.uleb128 0x4
	.ascii "_ZNSt14numeric_limitsIhE8digits10E\0"
	.long	0x4b24
	.uleb128 0x4
	.ascii "_ZNSt14numeric_limitsIhE12max_digits10E\0"
	.long	0x4b34
	.uleb128 0x4
	.ascii "_ZNSt14numeric_limitsIhE9is_signedE\0"
	.long	0x4b44
	.uleb128 0x4
	.ascii "_ZNSt14numeric_limitsIhE10is_integerE\0"
	.long	0x4b54
	.uleb128 0x4
	.ascii "_ZNSt14numeric_limitsIhE8is_exactE\0"
	.long	0x4b64
	.uleb128 0x4
	.ascii "_ZNSt14numeric_limitsIhE5radixE\0"
	.long	0x4b74
	.uleb128 0x4
	.ascii "_ZNSt14numeric_limitsIhE12min_exponentE\0"
	.long	0x4bed
	.uleb128 0x4
	.ascii "_ZNSt14numeric_limitsIhE14min_exponent10E\0"
	.long	0x4bfd
	.uleb128 0x4
	.ascii "_ZNSt14numeric_limitsIhE12max_exponentE\0"
	.long	0x4c0d
	.uleb128 0x4
	.ascii "_ZNSt14numeric_limitsIhE14max_exponent10E\0"
	.long	0x4c1d
	.uleb128 0x4
	.ascii "_ZNSt14numeric_limitsIhE12has_infinityE\0"
	.long	0x4c2d
	.uleb128 0x4
	.ascii "_ZNSt14numeric_limitsIhE13has_quiet_NaNE\0"
	.long	0x4c3d
	.uleb128 0x4
	.ascii "_ZNSt14numeric_limitsIhE17has_signaling_NaNE\0"
	.long	0x4c4d
	.uleb128 0x4
	.ascii "_ZNSt14numeric_limitsIhE10has_denormE\0"
	.long	0x4c5d
	.uleb128 0x4
	.ascii "_ZNSt14numeric_limitsIhE15has_denorm_lossE\0"
	.long	0x4c6d
	.uleb128 0x4
	.ascii "_ZNSt14numeric_limitsIhE9is_iec559E\0"
	.long	0x4d53
	.uleb128 0x4
	.ascii "_ZNSt14numeric_limitsIhE10is_boundedE\0"
	.long	0x4d63
	.uleb128 0x4
	.ascii "_ZNSt14numeric_limitsIhE9is_moduloE\0"
	.long	0x4d73
	.uleb128 0x4
	.ascii "_ZNSt14numeric_limitsIhE5trapsE\0"
	.long	0x4d83
	.uleb128 0x4
	.ascii "_ZNSt14numeric_limitsIhE15tinyness_beforeE\0"
	.long	0x4d93
	.uleb128 0x4
	.ascii "_ZNSt14numeric_limitsIhE11round_styleE\0"
	.long	0x4da3
	.uleb128 0x29
	.ascii "numeric_limits<wchar_t>\0"
	.byte	0x1
	.uleb128 0x28
	.long	0x51a6
	.byte	0x1
	.byte	0x40
	.short	0x297
	.byte	0xc
	.long	0x5514
	.uleb128 0x6
	.set L$set$2102,LASF26-Lsection__debug_str
	.long L$set$2102
	.byte	0x40
	.short	0x299
	.byte	0x2a
	.long	0x158f
	.byte	0x1
	.byte	0x1
	.byte	0x1
	.uleb128 0x21
	.byte	0x1
	.ascii "min\0"
	.byte	0x40
	.short	0x29c
	.byte	0x7
	.ascii "_ZNSt14numeric_limitsIwE3minEv\0"
	.long	0xa97
	.byte	0x1
	.uleb128 0x21
	.byte	0x1
	.ascii "max\0"
	.byte	0x40
	.short	0x29f
	.byte	0x7
	.ascii "_ZNSt14numeric_limitsIwE3maxEv\0"
	.long	0xa97
	.byte	0x1
	.uleb128 0x12
	.byte	0x1
	.set L$set$2103,LASF49-Lsection__debug_str
	.long L$set$2103
	.byte	0x40
	.short	0x2a3
	.byte	0x7
	.ascii "_ZNSt14numeric_limitsIwE6lowestEv\0"
	.long	0xa97
	.byte	0x1
	.uleb128 0x6
	.set L$set$2104,LASF27-Lsection__debug_str
	.long L$set$2104
	.byte	0x40
	.short	0x2a6
	.byte	0x29
	.long	0xfd
	.byte	0x1
	.byte	0x1
	.byte	0x1f
	.uleb128 0x6
	.set L$set$2105,LASF28-Lsection__debug_str
	.long L$set$2105
	.byte	0x40
	.short	0x2a7
	.byte	0x29
	.long	0xfd
	.byte	0x1
	.byte	0x1
	.byte	0x9
	.uleb128 0x6
	.set L$set$2106,LASF29-Lsection__debug_str
	.long L$set$2106
	.byte	0x40
	.short	0x2aa
	.byte	0x1c
	.long	0xfd
	.byte	0x1
	.byte	0x1
	.byte	0
	.uleb128 0x6
	.set L$set$2107,LASF30-Lsection__debug_str
	.long L$set$2107
	.byte	0x40
	.short	0x2ac
	.byte	0x2a
	.long	0x158f
	.byte	0x1
	.byte	0x1
	.byte	0x1
	.uleb128 0x6
	.set L$set$2108,LASF31-Lsection__debug_str
	.long L$set$2108
	.byte	0x40
	.short	0x2ad
	.byte	0x2a
	.long	0x158f
	.byte	0x1
	.byte	0x1
	.byte	0x1
	.uleb128 0x6
	.set L$set$2109,LASF32-Lsection__debug_str
	.long L$set$2109
	.byte	0x40
	.short	0x2ae
	.byte	0x2a
	.long	0x158f
	.byte	0x1
	.byte	0x1
	.byte	0x1
	.uleb128 0x6
	.set L$set$2110,LASF33-Lsection__debug_str
	.long L$set$2110
	.byte	0x40
	.short	0x2af
	.byte	0x29
	.long	0xfd
	.byte	0x1
	.byte	0x1
	.byte	0x2
	.uleb128 0x12
	.byte	0x1
	.set L$set$2111,LASF50-Lsection__debug_str
	.long L$set$2111
	.byte	0x40
	.short	0x2b2
	.byte	0x7
	.ascii "_ZNSt14numeric_limitsIwE7epsilonEv\0"
	.long	0xa97
	.byte	0x1
	.uleb128 0x12
	.byte	0x1
	.set L$set$2112,LASF51-Lsection__debug_str
	.long L$set$2112
	.byte	0x40
	.short	0x2b5
	.byte	0x7
	.ascii "_ZNSt14numeric_limitsIwE11round_errorEv\0"
	.long	0xa97
	.byte	0x1
	.uleb128 0x6
	.set L$set$2113,LASF34-Lsection__debug_str
	.long L$set$2113
	.byte	0x40
	.short	0x2b7
	.byte	0x29
	.long	0xfd
	.byte	0x1
	.byte	0x1
	.byte	0
	.uleb128 0x6
	.set L$set$2114,LASF35-Lsection__debug_str
	.long L$set$2114
	.byte	0x40
	.short	0x2b8
	.byte	0x29
	.long	0xfd
	.byte	0x1
	.byte	0x1
	.byte	0
	.uleb128 0x6
	.set L$set$2115,LASF36-Lsection__debug_str
	.long L$set$2115
	.byte	0x40
	.short	0x2b9
	.byte	0x29
	.long	0xfd
	.byte	0x1
	.byte	0x1
	.byte	0
	.uleb128 0x6
	.set L$set$2116,LASF37-Lsection__debug_str
	.long L$set$2116
	.byte	0x40
	.short	0x2ba
	.byte	0x29
	.long	0xfd
	.byte	0x1
	.byte	0x1
	.byte	0
	.uleb128 0x6
	.set L$set$2117,LASF38-Lsection__debug_str
	.long L$set$2117
	.byte	0x40
	.short	0x2bc
	.byte	0x2a
	.long	0x158f
	.byte	0x1
	.byte	0x1
	.byte	0
	.uleb128 0x6
	.set L$set$2118,LASF39-Lsection__debug_str
	.long L$set$2118
	.byte	0x40
	.short	0x2bd
	.byte	0x2a
	.long	0x158f
	.byte	0x1
	.byte	0x1
	.byte	0
	.uleb128 0x6
	.set L$set$2119,LASF40-Lsection__debug_str
	.long L$set$2119
	.byte	0x40
	.short	0x2be
	.byte	0x2a
	.long	0x158f
	.byte	0x1
	.byte	0x1
	.byte	0
	.uleb128 0x6
	.set L$set$2120,LASF41-Lsection__debug_str
	.long L$set$2120
	.byte	0x40
	.short	0x2bf
	.byte	0x38
	.long	0x2e73
	.byte	0x1
	.byte	0x1
	.byte	0
	.uleb128 0x6
	.set L$set$2121,LASF42-Lsection__debug_str
	.long L$set$2121
	.byte	0x40
	.short	0x2c1
	.byte	0x2a
	.long	0x158f
	.byte	0x1
	.byte	0x1
	.byte	0
	.uleb128 0x12
	.byte	0x1
	.set L$set$2122,LASF52-Lsection__debug_str
	.long L$set$2122
	.byte	0x40
	.short	0x2c4
	.byte	0x7
	.ascii "_ZNSt14numeric_limitsIwE8infinityEv\0"
	.long	0xa97
	.byte	0x1
	.uleb128 0x12
	.byte	0x1
	.set L$set$2123,LASF53-Lsection__debug_str
	.long L$set$2123
	.byte	0x40
	.short	0x2c7
	.byte	0x7
	.ascii "_ZNSt14numeric_limitsIwE9quiet_NaNEv\0"
	.long	0xa97
	.byte	0x1
	.uleb128 0x12
	.byte	0x1
	.set L$set$2124,LASF54-Lsection__debug_str
	.long L$set$2124
	.byte	0x40
	.short	0x2ca
	.byte	0x7
	.ascii "_ZNSt14numeric_limitsIwE13signaling_NaNEv\0"
	.long	0xa97
	.byte	0x1
	.uleb128 0x12
	.byte	0x1
	.set L$set$2125,LASF55-Lsection__debug_str
	.long L$set$2125
	.byte	0x40
	.short	0x2cd
	.byte	0x7
	.ascii "_ZNSt14numeric_limitsIwE10denorm_minEv\0"
	.long	0xa97
	.byte	0x1
	.uleb128 0x6
	.set L$set$2126,LASF43-Lsection__debug_str
	.long L$set$2126
	.byte	0x40
	.short	0x2cf
	.byte	0x2a
	.long	0x158f
	.byte	0x1
	.byte	0x1
	.byte	0
	.uleb128 0x6
	.set L$set$2127,LASF44-Lsection__debug_str
	.long L$set$2127
	.byte	0x40
	.short	0x2d0
	.byte	0x2a
	.long	0x158f
	.byte	0x1
	.byte	0x1
	.byte	0x1
	.uleb128 0x6
	.set L$set$2128,LASF45-Lsection__debug_str
	.long L$set$2128
	.byte	0x40
	.short	0x2d1
	.byte	0x2a
	.long	0x158f
	.byte	0x1
	.byte	0x1
	.byte	0
	.uleb128 0x6
	.set L$set$2129,LASF46-Lsection__debug_str
	.long L$set$2129
	.byte	0x40
	.short	0x2d3
	.byte	0x2a
	.long	0x158f
	.byte	0x1
	.byte	0x1
	.byte	0x1
	.uleb128 0x6
	.set L$set$2130,LASF47-Lsection__debug_str
	.long L$set$2130
	.byte	0x40
	.short	0x2d4
	.byte	0x2a
	.long	0x158f
	.byte	0x1
	.byte	0x1
	.byte	0
	.uleb128 0x6
	.set L$set$2131,LASF48-Lsection__debug_str
	.long L$set$2131
	.byte	0x40
	.short	0x2d5
	.byte	0x37
	.long	0x2e18
	.byte	0x1
	.byte	0x1
	.byte	0
	.uleb128 0xe
	.ascii "_Tp\0"
	.long	0xa97
	.byte	0
	.uleb128 0x4
	.ascii "_ZNSt14numeric_limitsIwE14is_specializedE\0"
	.long	0x51ce
	.uleb128 0x4
	.ascii "_ZNSt14numeric_limitsIwE6digitsE\0"
	.long	0x526b
	.uleb128 0x4
	.ascii "_ZNSt14numeric_limitsIwE8digits10E\0"
	.long	0x527b
	.uleb128 0x4
	.ascii "_ZNSt14numeric_limitsIwE12max_digits10E\0"
	.long	0x528b
	.uleb128 0x4
	.ascii "_ZNSt14numeric_limitsIwE9is_signedE\0"
	.long	0x529b
	.uleb128 0x4
	.ascii "_ZNSt14numeric_limitsIwE10is_integerE\0"
	.long	0x52ab
	.uleb128 0x4
	.ascii "_ZNSt14numeric_limitsIwE8is_exactE\0"
	.long	0x52bb
	.uleb128 0x4
	.ascii "_ZNSt14numeric_limitsIwE5radixE\0"
	.long	0x52cb
	.uleb128 0x4
	.ascii "_ZNSt14numeric_limitsIwE12min_exponentE\0"
	.long	0x5344
	.uleb128 0x4
	.ascii "_ZNSt14numeric_limitsIwE14min_exponent10E\0"
	.long	0x5354
	.uleb128 0x4
	.ascii "_ZNSt14numeric_limitsIwE12max_exponentE\0"
	.long	0x5364
	.uleb128 0x4
	.ascii "_ZNSt14numeric_limitsIwE14max_exponent10E\0"
	.long	0x5374
	.uleb128 0x4
	.ascii "_ZNSt14numeric_limitsIwE12has_infinityE\0"
	.long	0x5384
	.uleb128 0x4
	.ascii "_ZNSt14numeric_limitsIwE13has_quiet_NaNE\0"
	.long	0x5394
	.uleb128 0x4
	.ascii "_ZNSt14numeric_limitsIwE17has_signaling_NaNE\0"
	.long	0x53a4
	.uleb128 0x4
	.ascii "_ZNSt14numeric_limitsIwE10has_denormE\0"
	.long	0x53b4
	.uleb128 0x4
	.ascii "_ZNSt14numeric_limitsIwE15has_denorm_lossE\0"
	.long	0x53c4
	.uleb128 0x4
	.ascii "_ZNSt14numeric_limitsIwE9is_iec559E\0"
	.long	0x54aa
	.uleb128 0x4
	.ascii "_ZNSt14numeric_limitsIwE10is_boundedE\0"
	.long	0x54ba
	.uleb128 0x4
	.ascii "_ZNSt14numeric_limitsIwE9is_moduloE\0"
	.long	0x54ca
	.uleb128 0x4
	.ascii "_ZNSt14numeric_limitsIwE5trapsE\0"
	.long	0x54da
	.uleb128 0x4
	.ascii "_ZNSt14numeric_limitsIwE15tinyness_beforeE\0"
	.long	0x54ea
	.uleb128 0x4
	.ascii "_ZNSt14numeric_limitsIwE11round_styleE\0"
	.long	0x54fa
	.uleb128 0x29
	.ascii "numeric_limits<char8_t>\0"
	.byte	0x1
	.uleb128 0x28
	.long	0x58fd
	.byte	0x1
	.byte	0x40
	.short	0x2dc
	.byte	0xc
	.long	0x5c74
	.uleb128 0x6
	.set L$set$2132,LASF26-Lsection__debug_str
	.long L$set$2132
	.byte	0x40
	.short	0x2de
	.byte	0x2a
	.long	0x158f
	.byte	0x1
	.byte	0x1
	.byte	0x1
	.uleb128 0x21
	.byte	0x1
	.ascii "min\0"
	.byte	0x40
	.short	0x2e1
	.byte	0x7
	.ascii "_ZNSt14numeric_limitsIDuE3minEv\0"
	.long	0x2068
	.byte	0x1
	.uleb128 0x21
	.byte	0x1
	.ascii "max\0"
	.byte	0x40
	.short	0x2e4
	.byte	0x7
	.ascii "_ZNSt14numeric_limitsIDuE3maxEv\0"
	.long	0x2068
	.byte	0x1
	.uleb128 0x12
	.byte	0x1
	.set L$set$2133,LASF49-Lsection__debug_str
	.long L$set$2133
	.byte	0x40
	.short	0x2e7
	.byte	0x7
	.ascii "_ZNSt14numeric_limitsIDuE6lowestEv\0"
	.long	0x2068
	.byte	0x1
	.uleb128 0x6
	.set L$set$2134,LASF27-Lsection__debug_str
	.long L$set$2134
	.byte	0x40
	.short	0x2e9
	.byte	0x29
	.long	0xfd
	.byte	0x1
	.byte	0x1
	.byte	0x8
	.uleb128 0x6
	.set L$set$2135,LASF28-Lsection__debug_str
	.long L$set$2135
	.byte	0x40
	.short	0x2ea
	.byte	0x29
	.long	0xfd
	.byte	0x1
	.byte	0x1
	.byte	0x2
	.uleb128 0x6
	.set L$set$2136,LASF29-Lsection__debug_str
	.long L$set$2136
	.byte	0x40
	.short	0x2eb
	.byte	0x29
	.long	0xfd
	.byte	0x1
	.byte	0x1
	.byte	0
	.uleb128 0x6
	.set L$set$2137,LASF30-Lsection__debug_str
	.long L$set$2137
	.byte	0x40
	.short	0x2ec
	.byte	0x2a
	.long	0x158f
	.byte	0x1
	.byte	0x1
	.byte	0
	.uleb128 0x6
	.set L$set$2138,LASF31-Lsection__debug_str
	.long L$set$2138
	.byte	0x40
	.short	0x2ed
	.byte	0x2a
	.long	0x158f
	.byte	0x1
	.byte	0x1
	.byte	0x1
	.uleb128 0x6
	.set L$set$2139,LASF32-Lsection__debug_str
	.long L$set$2139
	.byte	0x40
	.short	0x2ee
	.byte	0x2a
	.long	0x158f
	.byte	0x1
	.byte	0x1
	.byte	0x1
	.uleb128 0x6
	.set L$set$2140,LASF33-Lsection__debug_str
	.long L$set$2140
	.byte	0x40
	.short	0x2ef
	.byte	0x29
	.long	0xfd
	.byte	0x1
	.byte	0x1
	.byte	0x2
	.uleb128 0x12
	.byte	0x1
	.set L$set$2141,LASF50-Lsection__debug_str
	.long L$set$2141
	.byte	0x40
	.short	0x2f2
	.byte	0x7
	.ascii "_ZNSt14numeric_limitsIDuE7epsilonEv\0"
	.long	0x2068
	.byte	0x1
	.uleb128 0x12
	.byte	0x1
	.set L$set$2142,LASF51-Lsection__debug_str
	.long L$set$2142
	.byte	0x40
	.short	0x2f5
	.byte	0x7
	.ascii "_ZNSt14numeric_limitsIDuE11round_errorEv\0"
	.long	0x2068
	.byte	0x1
	.uleb128 0x6
	.set L$set$2143,LASF34-Lsection__debug_str
	.long L$set$2143
	.byte	0x40
	.short	0x2f7
	.byte	0x29
	.long	0xfd
	.byte	0x1
	.byte	0x1
	.byte	0
	.uleb128 0x6
	.set L$set$2144,LASF35-Lsection__debug_str
	.long L$set$2144
	.byte	0x40
	.short	0x2f8
	.byte	0x29
	.long	0xfd
	.byte	0x1
	.byte	0x1
	.byte	0
	.uleb128 0x6
	.set L$set$2145,LASF36-Lsection__debug_str
	.long L$set$2145
	.byte	0x40
	.short	0x2f9
	.byte	0x29
	.long	0xfd
	.byte	0x1
	.byte	0x1
	.byte	0
	.uleb128 0x6
	.set L$set$2146,LASF37-Lsection__debug_str
	.long L$set$2146
	.byte	0x40
	.short	0x2fa
	.byte	0x29
	.long	0xfd
	.byte	0x1
	.byte	0x1
	.byte	0
	.uleb128 0x6
	.set L$set$2147,LASF38-Lsection__debug_str
	.long L$set$2147
	.byte	0x40
	.short	0x2fc
	.byte	0x2a
	.long	0x158f
	.byte	0x1
	.byte	0x1
	.byte	0
	.uleb128 0x6
	.set L$set$2148,LASF39-Lsection__debug_str
	.long L$set$2148
	.byte	0x40
	.short	0x2fd
	.byte	0x2a
	.long	0x158f
	.byte	0x1
	.byte	0x1
	.byte	0
	.uleb128 0x6
	.set L$set$2149,LASF40-Lsection__debug_str
	.long L$set$2149
	.byte	0x40
	.short	0x2fe
	.byte	0x2a
	.long	0x158f
	.byte	0x1
	.byte	0x1
	.byte	0
	.uleb128 0x6
	.set L$set$2150,LASF41-Lsection__debug_str
	.long L$set$2150
	.byte	0x40
	.short	0x2ff
	.byte	0x38
	.long	0x2e73
	.byte	0x1
	.byte	0x1
	.byte	0
	.uleb128 0x6
	.set L$set$2151,LASF42-Lsection__debug_str
	.long L$set$2151
	.byte	0x40
	.short	0x301
	.byte	0x2a
	.long	0x158f
	.byte	0x1
	.byte	0x1
	.byte	0
	.uleb128 0x12
	.byte	0x1
	.set L$set$2152,LASF52-Lsection__debug_str
	.long L$set$2152
	.byte	0x40
	.short	0x304
	.byte	0x7
	.ascii "_ZNSt14numeric_limitsIDuE8infinityEv\0"
	.long	0x2068
	.byte	0x1
	.uleb128 0x12
	.byte	0x1
	.set L$set$2153,LASF53-Lsection__debug_str
	.long L$set$2153
	.byte	0x40
	.short	0x307
	.byte	0x7
	.ascii "_ZNSt14numeric_limitsIDuE9quiet_NaNEv\0"
	.long	0x2068
	.byte	0x1
	.uleb128 0x12
	.byte	0x1
	.set L$set$2154,LASF54-Lsection__debug_str
	.long L$set$2154
	.byte	0x40
	.short	0x30a
	.byte	0x7
	.ascii "_ZNSt14numeric_limitsIDuE13signaling_NaNEv\0"
	.long	0x2068
	.byte	0x1
	.uleb128 0x12
	.byte	0x1
	.set L$set$2155,LASF55-Lsection__debug_str
	.long L$set$2155
	.byte	0x40
	.short	0x30d
	.byte	0x7
	.ascii "_ZNSt14numeric_limitsIDuE10denorm_minEv\0"
	.long	0x2068
	.byte	0x1
	.uleb128 0x6
	.set L$set$2156,LASF43-Lsection__debug_str
	.long L$set$2156
	.byte	0x40
	.short	0x30f
	.byte	0x2a
	.long	0x158f
	.byte	0x1
	.byte	0x1
	.byte	0
	.uleb128 0x6
	.set L$set$2157,LASF44-Lsection__debug_str
	.long L$set$2157
	.byte	0x40
	.short	0x310
	.byte	0x2a
	.long	0x158f
	.byte	0x1
	.byte	0x1
	.byte	0x1
	.uleb128 0x6
	.set L$set$2158,LASF45-Lsection__debug_str
	.long L$set$2158
	.byte	0x40
	.short	0x311
	.byte	0x2a
	.long	0x158f
	.byte	0x1
	.byte	0x1
	.byte	0x1
	.uleb128 0x6
	.set L$set$2159,LASF46-Lsection__debug_str
	.long L$set$2159
	.byte	0x40
	.short	0x313
	.byte	0x2a
	.long	0x158f
	.byte	0x1
	.byte	0x1
	.byte	0x1
	.uleb128 0x6
	.set L$set$2160,LASF47-Lsection__debug_str
	.long L$set$2160
	.byte	0x40
	.short	0x314
	.byte	0x2a
	.long	0x158f
	.byte	0x1
	.byte	0x1
	.byte	0
	.uleb128 0x6
	.set L$set$2161,LASF48-Lsection__debug_str
	.long L$set$2161
	.byte	0x40
	.short	0x315
	.byte	0x37
	.long	0x2e18
	.byte	0x1
	.byte	0x1
	.byte	0
	.uleb128 0xe
	.ascii "_Tp\0"
	.long	0x2068
	.byte	0
	.uleb128 0x4
	.ascii "_ZNSt14numeric_limitsIDuE14is_specializedE\0"
	.long	0x5925
	.uleb128 0x4
	.ascii "_ZNSt14numeric_limitsIDuE6digitsE\0"
	.long	0x59c5
	.uleb128 0x4
	.ascii "_ZNSt14numeric_limitsIDuE8digits10E\0"
	.long	0x59d5
	.uleb128 0x4
	.ascii "_ZNSt14numeric_limitsIDuE12max_digits10E\0"
	.long	0x59e5
	.uleb128 0x4
	.ascii "_ZNSt14numeric_limitsIDuE9is_signedE\0"
	.long	0x59f5
	.uleb128 0x4
	.ascii "_ZNSt14numeric_limitsIDuE10is_integerE\0"
	.long	0x5a05
	.uleb128 0x4
	.ascii "_ZNSt14numeric_limitsIDuE8is_exactE\0"
	.long	0x5a15
	.uleb128 0x4
	.ascii "_ZNSt14numeric_limitsIDuE5radixE\0"
	.long	0x5a25
	.uleb128 0x4
	.ascii "_ZNSt14numeric_limitsIDuE12min_exponentE\0"
	.long	0x5aa0
	.uleb128 0x4
	.ascii "_ZNSt14numeric_limitsIDuE14min_exponent10E\0"
	.long	0x5ab0
	.uleb128 0x4
	.ascii "_ZNSt14numeric_limitsIDuE12max_exponentE\0"
	.long	0x5ac0
	.uleb128 0x4
	.ascii "_ZNSt14numeric_limitsIDuE14max_exponent10E\0"
	.long	0x5ad0
	.uleb128 0x4
	.ascii "_ZNSt14numeric_limitsIDuE12has_infinityE\0"
	.long	0x5ae0
	.uleb128 0x4
	.ascii "_ZNSt14numeric_limitsIDuE13has_quiet_NaNE\0"
	.long	0x5af0
	.uleb128 0x4
	.ascii "_ZNSt14numeric_limitsIDuE17has_signaling_NaNE\0"
	.long	0x5b00
	.uleb128 0x4
	.ascii "_ZNSt14numeric_limitsIDuE10has_denormE\0"
	.long	0x5b10
	.uleb128 0x4
	.ascii "_ZNSt14numeric_limitsIDuE15has_denorm_lossE\0"
	.long	0x5b20
	.uleb128 0x4
	.ascii "_ZNSt14numeric_limitsIDuE9is_iec559E\0"
	.long	0x5c0a
	.uleb128 0x4
	.ascii "_ZNSt14numeric_limitsIDuE10is_boundedE\0"
	.long	0x5c1a
	.uleb128 0x4
	.ascii "_ZNSt14numeric_limitsIDuE9is_moduloE\0"
	.long	0x5c2a
	.uleb128 0x4
	.ascii "_ZNSt14numeric_limitsIDuE5trapsE\0"
	.long	0x5c3a
	.uleb128 0x4
	.ascii "_ZNSt14numeric_limitsIDuE15tinyness_beforeE\0"
	.long	0x5c4a
	.uleb128 0x4
	.ascii "_ZNSt14numeric_limitsIDuE11round_styleE\0"
	.long	0x5c5a
	.uleb128 0x29
	.ascii "numeric_limits<char16_t>\0"
	.byte	0x1
	.uleb128 0x28
	.long	0x6074
	.byte	0x1
	.byte	0x40
	.short	0x31d
	.byte	0xc
	.long	0x63ec
	.uleb128 0x6
	.set L$set$2162,LASF26-Lsection__debug_str
	.long L$set$2162
	.byte	0x40
	.short	0x31f
	.byte	0x1d
	.long	0x158f
	.byte	0x1
	.byte	0x1
	.byte	0x1
	.uleb128 0x21
	.byte	0x1
	.ascii "min\0"
	.byte	0x40
	.short	0x322
	.byte	0x7
	.ascii "_ZNSt14numeric_limitsIDsE3minEv\0"
	.long	0x2078
	.byte	0x1
	.uleb128 0x21
	.byte	0x1
	.ascii "max\0"
	.byte	0x40
	.short	0x325
	.byte	0x7
	.ascii "_ZNSt14numeric_limitsIDsE3maxEv\0"
	.long	0x2078
	.byte	0x1
	.uleb128 0x12
	.byte	0x1
	.set L$set$2163,LASF49-Lsection__debug_str
	.long L$set$2163
	.byte	0x40
	.short	0x328
	.byte	0x7
	.ascii "_ZNSt14numeric_limitsIDsE6lowestEv\0"
	.long	0x2078
	.byte	0x1
	.uleb128 0x6
	.set L$set$2164,LASF27-Lsection__debug_str
	.long L$set$2164
	.byte	0x40
	.short	0x32a
	.byte	0x1c
	.long	0xfd
	.byte	0x1
	.byte	0x1
	.byte	0x10
	.uleb128 0x6
	.set L$set$2165,LASF28-Lsection__debug_str
	.long L$set$2165
	.byte	0x40
	.short	0x32b
	.byte	0x1c
	.long	0xfd
	.byte	0x1
	.byte	0x1
	.byte	0x4
	.uleb128 0x6
	.set L$set$2166,LASF29-Lsection__debug_str
	.long L$set$2166
	.byte	0x40
	.short	0x32c
	.byte	0x1c
	.long	0xfd
	.byte	0x1
	.byte	0x1
	.byte	0
	.uleb128 0x6
	.set L$set$2167,LASF30-Lsection__debug_str
	.long L$set$2167
	.byte	0x40
	.short	0x32d
	.byte	0x1d
	.long	0x158f
	.byte	0x1
	.byte	0x1
	.byte	0
	.uleb128 0x6
	.set L$set$2168,LASF31-Lsection__debug_str
	.long L$set$2168
	.byte	0x40
	.short	0x32e
	.byte	0x1d
	.long	0x158f
	.byte	0x1
	.byte	0x1
	.byte	0x1
	.uleb128 0x6
	.set L$set$2169,LASF32-Lsection__debug_str
	.long L$set$2169
	.byte	0x40
	.short	0x32f
	.byte	0x1d
	.long	0x158f
	.byte	0x1
	.byte	0x1
	.byte	0x1
	.uleb128 0x6
	.set L$set$2170,LASF33-Lsection__debug_str
	.long L$set$2170
	.byte	0x40
	.short	0x330
	.byte	0x1c
	.long	0xfd
	.byte	0x1
	.byte	0x1
	.byte	0x2
	.uleb128 0x12
	.byte	0x1
	.set L$set$2171,LASF50-Lsection__debug_str
	.long L$set$2171
	.byte	0x40
	.short	0x333
	.byte	0x7
	.ascii "_ZNSt14numeric_limitsIDsE7epsilonEv\0"
	.long	0x2078
	.byte	0x1
	.uleb128 0x12
	.byte	0x1
	.set L$set$2172,LASF51-Lsection__debug_str
	.long L$set$2172
	.byte	0x40
	.short	0x336
	.byte	0x7
	.ascii "_ZNSt14numeric_limitsIDsE11round_errorEv\0"
	.long	0x2078
	.byte	0x1
	.uleb128 0x6
	.set L$set$2173,LASF34-Lsection__debug_str
	.long L$set$2173
	.byte	0x40
	.short	0x338
	.byte	0x1c
	.long	0xfd
	.byte	0x1
	.byte	0x1
	.byte	0
	.uleb128 0x6
	.set L$set$2174,LASF35-Lsection__debug_str
	.long L$set$2174
	.byte	0x40
	.short	0x339
	.byte	0x1c
	.long	0xfd
	.byte	0x1
	.byte	0x1
	.byte	0
	.uleb128 0x6
	.set L$set$2175,LASF36-Lsection__debug_str
	.long L$set$2175
	.byte	0x40
	.short	0x33a
	.byte	0x1c
	.long	0xfd
	.byte	0x1
	.byte	0x1
	.byte	0
	.uleb128 0x6
	.set L$set$2176,LASF37-Lsection__debug_str
	.long L$set$2176
	.byte	0x40
	.short	0x33b
	.byte	0x1c
	.long	0xfd
	.byte	0x1
	.byte	0x1
	.byte	0
	.uleb128 0x6
	.set L$set$2177,LASF38-Lsection__debug_str
	.long L$set$2177
	.byte	0x40
	.short	0x33d
	.byte	0x1d
	.long	0x158f
	.byte	0x1
	.byte	0x1
	.byte	0
	.uleb128 0x6
	.set L$set$2178,LASF39-Lsection__debug_str
	.long L$set$2178
	.byte	0x40
	.short	0x33e
	.byte	0x1d
	.long	0x158f
	.byte	0x1
	.byte	0x1
	.byte	0
	.uleb128 0x6
	.set L$set$2179,LASF40-Lsection__debug_str
	.long L$set$2179
	.byte	0x40
	.short	0x33f
	.byte	0x1d
	.long	0x158f
	.byte	0x1
	.byte	0x1
	.byte	0
	.uleb128 0x6
	.set L$set$2180,LASF41-Lsection__debug_str
	.long L$set$2180
	.byte	0x40
	.short	0x340
	.byte	0x2b
	.long	0x2e73
	.byte	0x1
	.byte	0x1
	.byte	0
	.uleb128 0x6
	.set L$set$2181,LASF42-Lsection__debug_str
	.long L$set$2181
	.byte	0x40
	.short	0x341
	.byte	0x1d
	.long	0x158f
	.byte	0x1
	.byte	0x1
	.byte	0
	.uleb128 0x12
	.byte	0x1
	.set L$set$2182,LASF52-Lsection__debug_str
	.long L$set$2182
	.byte	0x40
	.short	0x344
	.byte	0x7
	.ascii "_ZNSt14numeric_limitsIDsE8infinityEv\0"
	.long	0x2078
	.byte	0x1
	.uleb128 0x12
	.byte	0x1
	.set L$set$2183,LASF53-Lsection__debug_str
	.long L$set$2183
	.byte	0x40
	.short	0x347
	.byte	0x7
	.ascii "_ZNSt14numeric_limitsIDsE9quiet_NaNEv\0"
	.long	0x2078
	.byte	0x1
	.uleb128 0x12
	.byte	0x1
	.set L$set$2184,LASF54-Lsection__debug_str
	.long L$set$2184
	.byte	0x40
	.short	0x34a
	.byte	0x7
	.ascii "_ZNSt14numeric_limitsIDsE13signaling_NaNEv\0"
	.long	0x2078
	.byte	0x1
	.uleb128 0x12
	.byte	0x1
	.set L$set$2185,LASF55-Lsection__debug_str
	.long L$set$2185
	.byte	0x40
	.short	0x34d
	.byte	0x7
	.ascii "_ZNSt14numeric_limitsIDsE10denorm_minEv\0"
	.long	0x2078
	.byte	0x1
	.uleb128 0x6
	.set L$set$2186,LASF43-Lsection__debug_str
	.long L$set$2186
	.byte	0x40
	.short	0x34f
	.byte	0x1d
	.long	0x158f
	.byte	0x1
	.byte	0x1
	.byte	0
	.uleb128 0x6
	.set L$set$2187,LASF44-Lsection__debug_str
	.long L$set$2187
	.byte	0x40
	.short	0x350
	.byte	0x1d
	.long	0x158f
	.byte	0x1
	.byte	0x1
	.byte	0x1
	.uleb128 0x6
	.set L$set$2188,LASF45-Lsection__debug_str
	.long L$set$2188
	.byte	0x40
	.short	0x351
	.byte	0x1d
	.long	0x158f
	.byte	0x1
	.byte	0x1
	.byte	0x1
	.uleb128 0x6
	.set L$set$2189,LASF46-Lsection__debug_str
	.long L$set$2189
	.byte	0x40
	.short	0x353
	.byte	0x1d
	.long	0x158f
	.byte	0x1
	.byte	0x1
	.byte	0x1
	.uleb128 0x6
	.set L$set$2190,LASF47-Lsection__debug_str
	.long L$set$2190
	.byte	0x40
	.short	0x354
	.byte	0x1d
	.long	0x158f
	.byte	0x1
	.byte	0x1
	.byte	0
	.uleb128 0x6
	.set L$set$2191,LASF48-Lsection__debug_str
	.long L$set$2191
	.byte	0x40
	.short	0x355
	.byte	0x2a
	.long	0x2e18
	.byte	0x1
	.byte	0x1
	.byte	0
	.uleb128 0xe
	.ascii "_Tp\0"
	.long	0x2078
	.byte	0
	.uleb128 0x4
	.ascii "_ZNSt14numeric_limitsIDsE14is_specializedE\0"
	.long	0x609d
	.uleb128 0x4
	.ascii "_ZNSt14numeric_limitsIDsE6digitsE\0"
	.long	0x613d
	.uleb128 0x4
	.ascii "_ZNSt14numeric_limitsIDsE8digits10E\0"
	.long	0x614d
	.uleb128 0x4
	.ascii "_ZNSt14numeric_limitsIDsE12max_digits10E\0"
	.long	0x615d
	.uleb128 0x4
	.ascii "_ZNSt14numeric_limitsIDsE9is_signedE\0"
	.long	0x616d
	.uleb128 0x4
	.ascii "_ZNSt14numeric_limitsIDsE10is_integerE\0"
	.long	0x617d
	.uleb128 0x4
	.ascii "_ZNSt14numeric_limitsIDsE8is_exactE\0"
	.long	0x618d
	.uleb128 0x4
	.ascii "_ZNSt14numeric_limitsIDsE5radixE\0"
	.long	0x619d
	.uleb128 0x4
	.ascii "_ZNSt14numeric_limitsIDsE12min_exponentE\0"
	.long	0x6218
	.uleb128 0x4
	.ascii "_ZNSt14numeric_limitsIDsE14min_exponent10E\0"
	.long	0x6228
	.uleb128 0x4
	.ascii "_ZNSt14numeric_limitsIDsE12max_exponentE\0"
	.long	0x6238
	.uleb128 0x4
	.ascii "_ZNSt14numeric_limitsIDsE14max_exponent10E\0"
	.long	0x6248
	.uleb128 0x4
	.ascii "_ZNSt14numeric_limitsIDsE12has_infinityE\0"
	.long	0x6258
	.uleb128 0x4
	.ascii "_ZNSt14numeric_limitsIDsE13has_quiet_NaNE\0"
	.long	0x6268
	.uleb128 0x4
	.ascii "_ZNSt14numeric_limitsIDsE17has_signaling_NaNE\0"
	.long	0x6278
	.uleb128 0x4
	.ascii "_ZNSt14numeric_limitsIDsE10has_denormE\0"
	.long	0x6288
	.uleb128 0x4
	.ascii "_ZNSt14numeric_limitsIDsE15has_denorm_lossE\0"
	.long	0x6298
	.uleb128 0x4
	.ascii "_ZNSt14numeric_limitsIDsE9is_iec559E\0"
	.long	0x6382
	.uleb128 0x4
	.ascii "_ZNSt14numeric_limitsIDsE10is_boundedE\0"
	.long	0x6392
	.uleb128 0x4
	.ascii "_ZNSt14numeric_limitsIDsE9is_moduloE\0"
	.long	0x63a2
	.uleb128 0x4
	.ascii "_ZNSt14numeric_limitsIDsE5trapsE\0"
	.long	0x63b2
	.uleb128 0x4
	.ascii "_ZNSt14numeric_limitsIDsE15tinyness_beforeE\0"
	.long	0x63c2
	.uleb128 0x4
	.ascii "_ZNSt14numeric_limitsIDsE11round_styleE\0"
	.long	0x63d2
	.uleb128 0x29
	.ascii "numeric_limits<char32_t>\0"
	.byte	0x1
	.uleb128 0x28
	.long	0x67ec
	.byte	0x1
	.byte	0x40
	.short	0x35a
	.byte	0xc
	.long	0x6b64
	.uleb128 0x6
	.set L$set$2192,LASF26-Lsection__debug_str
	.long L$set$2192
	.byte	0x40
	.short	0x35c
	.byte	0x1d
	.long	0x158f
	.byte	0x1
	.byte	0x1
	.byte	0x1
	.uleb128 0x21
	.byte	0x1
	.ascii "min\0"
	.byte	0x40
	.short	0x35f
	.byte	0x7
	.ascii "_ZNSt14numeric_limitsIDiE3minEv\0"
	.long	0x2089
	.byte	0x1
	.uleb128 0x21
	.byte	0x1
	.ascii "max\0"
	.byte	0x40
	.short	0x362
	.byte	0x7
	.ascii "_ZNSt14numeric_limitsIDiE3maxEv\0"
	.long	0x2089
	.byte	0x1
	.uleb128 0x12
	.byte	0x1
	.set L$set$2193,LASF49-Lsection__debug_str
	.long L$set$2193
	.byte	0x40
	.short	0x365
	.byte	0x7
	.ascii "_ZNSt14numeric_limitsIDiE6lowestEv\0"
	.long	0x2089
	.byte	0x1
	.uleb128 0x6
	.set L$set$2194,LASF27-Lsection__debug_str
	.long L$set$2194
	.byte	0x40
	.short	0x367
	.byte	0x1c
	.long	0xfd
	.byte	0x1
	.byte	0x1
	.byte	0x20
	.uleb128 0x6
	.set L$set$2195,LASF28-Lsection__debug_str
	.long L$set$2195
	.byte	0x40
	.short	0x368
	.byte	0x1c
	.long	0xfd
	.byte	0x1
	.byte	0x1
	.byte	0x9
	.uleb128 0x6
	.set L$set$2196,LASF29-Lsection__debug_str
	.long L$set$2196
	.byte	0x40
	.short	0x369
	.byte	0x1c
	.long	0xfd
	.byte	0x1
	.byte	0x1
	.byte	0
	.uleb128 0x6
	.set L$set$2197,LASF30-Lsection__debug_str
	.long L$set$2197
	.byte	0x40
	.short	0x36a
	.byte	0x1d
	.long	0x158f
	.byte	0x1
	.byte	0x1
	.byte	0
	.uleb128 0x6
	.set L$set$2198,LASF31-Lsection__debug_str
	.long L$set$2198
	.byte	0x40
	.short	0x36b
	.byte	0x1d
	.long	0x158f
	.byte	0x1
	.byte	0x1
	.byte	0x1
	.uleb128 0x6
	.set L$set$2199,LASF32-Lsection__debug_str
	.long L$set$2199
	.byte	0x40
	.short	0x36c
	.byte	0x1d
	.long	0x158f
	.byte	0x1
	.byte	0x1
	.byte	0x1
	.uleb128 0x6
	.set L$set$2200,LASF33-Lsection__debug_str
	.long L$set$2200
	.byte	0x40
	.short	0x36d
	.byte	0x1c
	.long	0xfd
	.byte	0x1
	.byte	0x1
	.byte	0x2
	.uleb128 0x12
	.byte	0x1
	.set L$set$2201,LASF50-Lsection__debug_str
	.long L$set$2201
	.byte	0x40
	.short	0x370
	.byte	0x7
	.ascii "_ZNSt14numeric_limitsIDiE7epsilonEv\0"
	.long	0x2089
	.byte	0x1
	.uleb128 0x12
	.byte	0x1
	.set L$set$2202,LASF51-Lsection__debug_str
	.long L$set$2202
	.byte	0x40
	.short	0x373
	.byte	0x7
	.ascii "_ZNSt14numeric_limitsIDiE11round_errorEv\0"
	.long	0x2089
	.byte	0x1
	.uleb128 0x6
	.set L$set$2203,LASF34-Lsection__debug_str
	.long L$set$2203
	.byte	0x40
	.short	0x375
	.byte	0x1c
	.long	0xfd
	.byte	0x1
	.byte	0x1
	.byte	0
	.uleb128 0x6
	.set L$set$2204,LASF35-Lsection__debug_str
	.long L$set$2204
	.byte	0x40
	.short	0x376
	.byte	0x1c
	.long	0xfd
	.byte	0x1
	.byte	0x1
	.byte	0
	.uleb128 0x6
	.set L$set$2205,LASF36-Lsection__debug_str
	.long L$set$2205
	.byte	0x40
	.short	0x377
	.byte	0x1c
	.long	0xfd
	.byte	0x1
	.byte	0x1
	.byte	0
	.uleb128 0x6
	.set L$set$2206,LASF37-Lsection__debug_str
	.long L$set$2206
	.byte	0x40
	.short	0x378
	.byte	0x1c
	.long	0xfd
	.byte	0x1
	.byte	0x1
	.byte	0
	.uleb128 0x6
	.set L$set$2207,LASF38-Lsection__debug_str
	.long L$set$2207
	.byte	0x40
	.short	0x37a
	.byte	0x1d
	.long	0x158f
	.byte	0x1
	.byte	0x1
	.byte	0
	.uleb128 0x6
	.set L$set$2208,LASF39-Lsection__debug_str
	.long L$set$2208
	.byte	0x40
	.short	0x37b
	.byte	0x1d
	.long	0x158f
	.byte	0x1
	.byte	0x1
	.byte	0
	.uleb128 0x6
	.set L$set$2209,LASF40-Lsection__debug_str
	.long L$set$2209
	.byte	0x40
	.short	0x37c
	.byte	0x1d
	.long	0x158f
	.byte	0x1
	.byte	0x1
	.byte	0
	.uleb128 0x6
	.set L$set$2210,LASF41-Lsection__debug_str
	.long L$set$2210
	.byte	0x40
	.short	0x37d
	.byte	0x2b
	.long	0x2e73
	.byte	0x1
	.byte	0x1
	.byte	0
	.uleb128 0x6
	.set L$set$2211,LASF42-Lsection__debug_str
	.long L$set$2211
	.byte	0x40
	.short	0x37e
	.byte	0x1d
	.long	0x158f
	.byte	0x1
	.byte	0x1
	.byte	0
	.uleb128 0x12
	.byte	0x1
	.set L$set$2212,LASF52-Lsection__debug_str
	.long L$set$2212
	.byte	0x40
	.short	0x381
	.byte	0x7
	.ascii "_ZNSt14numeric_limitsIDiE8infinityEv\0"
	.long	0x2089
	.byte	0x1
	.uleb128 0x12
	.byte	0x1
	.set L$set$2213,LASF53-Lsection__debug_str
	.long L$set$2213
	.byte	0x40
	.short	0x384
	.byte	0x7
	.ascii "_ZNSt14numeric_limitsIDiE9quiet_NaNEv\0"
	.long	0x2089
	.byte	0x1
	.uleb128 0x12
	.byte	0x1
	.set L$set$2214,LASF54-Lsection__debug_str
	.long L$set$2214
	.byte	0x40
	.short	0x387
	.byte	0x7
	.ascii "_ZNSt14numeric_limitsIDiE13signaling_NaNEv\0"
	.long	0x2089
	.byte	0x1
	.uleb128 0x12
	.byte	0x1
	.set L$set$2215,LASF55-Lsection__debug_str
	.long L$set$2215
	.byte	0x40
	.short	0x38a
	.byte	0x7
	.ascii "_ZNSt14numeric_limitsIDiE10denorm_minEv\0"
	.long	0x2089
	.byte	0x1
	.uleb128 0x6
	.set L$set$2216,LASF43-Lsection__debug_str
	.long L$set$2216
	.byte	0x40
	.short	0x38c
	.byte	0x1d
	.long	0x158f
	.byte	0x1
	.byte	0x1
	.byte	0
	.uleb128 0x6
	.set L$set$2217,LASF44-Lsection__debug_str
	.long L$set$2217
	.byte	0x40
	.short	0x38d
	.byte	0x1d
	.long	0x158f
	.byte	0x1
	.byte	0x1
	.byte	0x1
	.uleb128 0x6
	.set L$set$2218,LASF45-Lsection__debug_str
	.long L$set$2218
	.byte	0x40
	.short	0x38e
	.byte	0x1d
	.long	0x158f
	.byte	0x1
	.byte	0x1
	.byte	0x1
	.uleb128 0x6
	.set L$set$2219,LASF46-Lsection__debug_str
	.long L$set$2219
	.byte	0x40
	.short	0x390
	.byte	0x1d
	.long	0x158f
	.byte	0x1
	.byte	0x1
	.byte	0x1
	.uleb128 0x6
	.set L$set$2220,LASF47-Lsection__debug_str
	.long L$set$2220
	.byte	0x40
	.short	0x391
	.byte	0x1d
	.long	0x158f
	.byte	0x1
	.byte	0x1
	.byte	0
	.uleb128 0x6
	.set L$set$2221,LASF48-Lsection__debug_str
	.long L$set$2221
	.byte	0x40
	.short	0x392
	.byte	0x2a
	.long	0x2e18
	.byte	0x1
	.byte	0x1
	.byte	0
	.uleb128 0xe
	.ascii "_Tp\0"
	.long	0x2089
	.byte	0
	.uleb128 0x4
	.ascii "_ZNSt14numeric_limitsIDiE14is_specializedE\0"
	.long	0x6815
	.uleb128 0x4
	.ascii "_ZNSt14numeric_limitsIDiE6digitsE\0"
	.long	0x68b5
	.uleb128 0x4
	.ascii "_ZNSt14numeric_limitsIDiE8digits10E\0"
	.long	0x68c5
	.uleb128 0x4
	.ascii "_ZNSt14numeric_limitsIDiE12max_digits10E\0"
	.long	0x68d5
	.uleb128 0x4
	.ascii "_ZNSt14numeric_limitsIDiE9is_signedE\0"
	.long	0x68e5
	.uleb128 0x4
	.ascii "_ZNSt14numeric_limitsIDiE10is_integerE\0"
	.long	0x68f5
	.uleb128 0x4
	.ascii "_ZNSt14numeric_limitsIDiE8is_exactE\0"
	.long	0x6905
	.uleb128 0x4
	.ascii "_ZNSt14numeric_limitsIDiE5radixE\0"
	.long	0x6915
	.uleb128 0x4
	.ascii "_ZNSt14numeric_limitsIDiE12min_exponentE\0"
	.long	0x6990
	.uleb128 0x4
	.ascii "_ZNSt14numeric_limitsIDiE14min_exponent10E\0"
	.long	0x69a0
	.uleb128 0x4
	.ascii "_ZNSt14numeric_limitsIDiE12max_exponentE\0"
	.long	0x69b0
	.uleb128 0x4
	.ascii "_ZNSt14numeric_limitsIDiE14max_exponent10E\0"
	.long	0x69c0
	.uleb128 0x4
	.ascii "_ZNSt14numeric_limitsIDiE12has_infinityE\0"
	.long	0x69d0
	.uleb128 0x4
	.ascii "_ZNSt14numeric_limitsIDiE13has_quiet_NaNE\0"
	.long	0x69e0
	.uleb128 0x4
	.ascii "_ZNSt14numeric_limitsIDiE17has_signaling_NaNE\0"
	.long	0x69f0
	.uleb128 0x4
	.ascii "_ZNSt14numeric_limitsIDiE10has_denormE\0"
	.long	0x6a00
	.uleb128 0x4
	.ascii "_ZNSt14numeric_limitsIDiE15has_denorm_lossE\0"
	.long	0x6a10
	.uleb128 0x4
	.ascii "_ZNSt14numeric_limitsIDiE9is_iec559E\0"
	.long	0x6afa
	.uleb128 0x4
	.ascii "_ZNSt14numeric_limitsIDiE10is_boundedE\0"
	.long	0x6b0a
	.uleb128 0x4
	.ascii "_ZNSt14numeric_limitsIDiE9is_moduloE\0"
	.long	0x6b1a
	.uleb128 0x4
	.ascii "_ZNSt14numeric_limitsIDiE5trapsE\0"
	.long	0x6b2a
	.uleb128 0x4
	.ascii "_ZNSt14numeric_limitsIDiE15tinyness_beforeE\0"
	.long	0x6b3a
	.uleb128 0x4
	.ascii "_ZNSt14numeric_limitsIDiE11round_styleE\0"
	.long	0x6b4a
	.uleb128 0x29
	.ascii "numeric_limits<short int>\0"
	.byte	0x1
	.uleb128 0x28
	.long	0x6f64
	.byte	0x1
	.byte	0x40
	.short	0x398
	.byte	0xc
	.long	0x72d4
	.uleb128 0x6
	.set L$set$2222,LASF26-Lsection__debug_str
	.long L$set$2222
	.byte	0x40
	.short	0x39a
	.byte	0x2a
	.long	0x158f
	.byte	0x1
	.byte	0x1
	.byte	0x1
	.uleb128 0x21
	.byte	0x1
	.ascii "min\0"
	.byte	0x40
	.short	0x39d
	.byte	0x7
	.ascii "_ZNSt14numeric_limitsIsE3minEv\0"
	.long	0xce
	.byte	0x1
	.uleb128 0x21
	.byte	0x1
	.ascii "max\0"
	.byte	0x40
	.short	0x3a0
	.byte	0x7
	.ascii "_ZNSt14numeric_limitsIsE3maxEv\0"
	.long	0xce
	.byte	0x1
	.uleb128 0x12
	.byte	0x1
	.set L$set$2223,LASF49-Lsection__debug_str
	.long L$set$2223
	.byte	0x40
	.short	0x3a4
	.byte	0x7
	.ascii "_ZNSt14numeric_limitsIsE6lowestEv\0"
	.long	0xce
	.byte	0x1
	.uleb128 0x6
	.set L$set$2224,LASF27-Lsection__debug_str
	.long L$set$2224
	.byte	0x40
	.short	0x3a7
	.byte	0x29
	.long	0xfd
	.byte	0x1
	.byte	0x1
	.byte	0xf
	.uleb128 0x6
	.set L$set$2225,LASF28-Lsection__debug_str
	.long L$set$2225
	.byte	0x40
	.short	0x3a8
	.byte	0x29
	.long	0xfd
	.byte	0x1
	.byte	0x1
	.byte	0x4
	.uleb128 0x6
	.set L$set$2226,LASF29-Lsection__debug_str
	.long L$set$2226
	.byte	0x40
	.short	0x3aa
	.byte	0x1c
	.long	0xfd
	.byte	0x1
	.byte	0x1
	.byte	0
	.uleb128 0x6
	.set L$set$2227,LASF30-Lsection__debug_str
	.long L$set$2227
	.byte	0x40
	.short	0x3ac
	.byte	0x2a
	.long	0x158f
	.byte	0x1
	.byte	0x1
	.byte	0x1
	.uleb128 0x6
	.set L$set$2228,LASF31-Lsection__debug_str
	.long L$set$2228
	.byte	0x40
	.short	0x3ad
	.byte	0x2a
	.long	0x158f
	.byte	0x1
	.byte	0x1
	.byte	0x1
	.uleb128 0x6
	.set L$set$2229,LASF32-Lsection__debug_str
	.long L$set$2229
	.byte	0x40
	.short	0x3ae
	.byte	0x2a
	.long	0x158f
	.byte	0x1
	.byte	0x1
	.byte	0x1
	.uleb128 0x6
	.set L$set$2230,LASF33-Lsection__debug_str
	.long L$set$2230
	.byte	0x40
	.short	0x3af
	.byte	0x29
	.long	0xfd
	.byte	0x1
	.byte	0x1
	.byte	0x2
	.uleb128 0x12
	.byte	0x1
	.set L$set$2231,LASF50-Lsection__debug_str
	.long L$set$2231
	.byte	0x40
	.short	0x3b2
	.byte	0x7
	.ascii "_ZNSt14numeric_limitsIsE7epsilonEv\0"
	.long	0xce
	.byte	0x1
	.uleb128 0x12
	.byte	0x1
	.set L$set$2232,LASF51-Lsection__debug_str
	.long L$set$2232
	.byte	0x40
	.short	0x3b5
	.byte	0x7
	.ascii "_ZNSt14numeric_limitsIsE11round_errorEv\0"
	.long	0xce
	.byte	0x1
	.uleb128 0x6
	.set L$set$2233,LASF34-Lsection__debug_str
	.long L$set$2233
	.byte	0x40
	.short	0x3b7
	.byte	0x29
	.long	0xfd
	.byte	0x1
	.byte	0x1
	.byte	0
	.uleb128 0x6
	.set L$set$2234,LASF35-Lsection__debug_str
	.long L$set$2234
	.byte	0x40
	.short	0x3b8
	.byte	0x29
	.long	0xfd
	.byte	0x1
	.byte	0x1
	.byte	0
	.uleb128 0x6
	.set L$set$2235,LASF36-Lsection__debug_str
	.long L$set$2235
	.byte	0x40
	.short	0x3b9
	.byte	0x29
	.long	0xfd
	.byte	0x1
	.byte	0x1
	.byte	0
	.uleb128 0x6
	.set L$set$2236,LASF37-Lsection__debug_str
	.long L$set$2236
	.byte	0x40
	.short	0x3ba
	.byte	0x29
	.long	0xfd
	.byte	0x1
	.byte	0x1
	.byte	0
	.uleb128 0x6
	.set L$set$2237,LASF38-Lsection__debug_str
	.long L$set$2237
	.byte	0x40
	.short	0x3bc
	.byte	0x2a
	.long	0x158f
	.byte	0x1
	.byte	0x1
	.byte	0
	.uleb128 0x6
	.set L$set$2238,LASF39-Lsection__debug_str
	.long L$set$2238
	.byte	0x40
	.short	0x3bd
	.byte	0x2a
	.long	0x158f
	.byte	0x1
	.byte	0x1
	.byte	0
	.uleb128 0x6
	.set L$set$2239,LASF40-Lsection__debug_str
	.long L$set$2239
	.byte	0x40
	.short	0x3be
	.byte	0x2a
	.long	0x158f
	.byte	0x1
	.byte	0x1
	.byte	0
	.uleb128 0x6
	.set L$set$2240,LASF41-Lsection__debug_str
	.long L$set$2240
	.byte	0x40
	.short	0x3bf
	.byte	0x38
	.long	0x2e73
	.byte	0x1
	.byte	0x1
	.byte	0
	.uleb128 0x6
	.set L$set$2241,LASF42-Lsection__debug_str
	.long L$set$2241
	.byte	0x40
	.short	0x3c1
	.byte	0x2a
	.long	0x158f
	.byte	0x1
	.byte	0x1
	.byte	0
	.uleb128 0x12
	.byte	0x1
	.set L$set$2242,LASF52-Lsection__debug_str
	.long L$set$2242
	.byte	0x40
	.short	0x3c4
	.byte	0x7
	.ascii "_ZNSt14numeric_limitsIsE8infinityEv\0"
	.long	0xce
	.byte	0x1
	.uleb128 0x12
	.byte	0x1
	.set L$set$2243,LASF53-Lsection__debug_str
	.long L$set$2243
	.byte	0x40
	.short	0x3c7
	.byte	0x7
	.ascii "_ZNSt14numeric_limitsIsE9quiet_NaNEv\0"
	.long	0xce
	.byte	0x1
	.uleb128 0x12
	.byte	0x1
	.set L$set$2244,LASF54-Lsection__debug_str
	.long L$set$2244
	.byte	0x40
	.short	0x3ca
	.byte	0x7
	.ascii "_ZNSt14numeric_limitsIsE13signaling_NaNEv\0"
	.long	0xce
	.byte	0x1
	.uleb128 0x12
	.byte	0x1
	.set L$set$2245,LASF55-Lsection__debug_str
	.long L$set$2245
	.byte	0x40
	.short	0x3cd
	.byte	0x7
	.ascii "_ZNSt14numeric_limitsIsE10denorm_minEv\0"
	.long	0xce
	.byte	0x1
	.uleb128 0x6
	.set L$set$2246,LASF43-Lsection__debug_str
	.long L$set$2246
	.byte	0x40
	.short	0x3cf
	.byte	0x2a
	.long	0x158f
	.byte	0x1
	.byte	0x1
	.byte	0
	.uleb128 0x6
	.set L$set$2247,LASF44-Lsection__debug_str
	.long L$set$2247
	.byte	0x40
	.short	0x3d0
	.byte	0x2a
	.long	0x158f
	.byte	0x1
	.byte	0x1
	.byte	0x1
	.uleb128 0x6
	.set L$set$2248,LASF45-Lsection__debug_str
	.long L$set$2248
	.byte	0x40
	.short	0x3d1
	.byte	0x2a
	.long	0x158f
	.byte	0x1
	.byte	0x1
	.byte	0
	.uleb128 0x6
	.set L$set$2249,LASF46-Lsection__debug_str
	.long L$set$2249
	.byte	0x40
	.short	0x3d3
	.byte	0x2a
	.long	0x158f
	.byte	0x1
	.byte	0x1
	.byte	0x1
	.uleb128 0x6
	.set L$set$2250,LASF47-Lsection__debug_str
	.long L$set$2250
	.byte	0x40
	.short	0x3d4
	.byte	0x2a
	.long	0x158f
	.byte	0x1
	.byte	0x1
	.byte	0
	.uleb128 0x6
	.set L$set$2251,LASF48-Lsection__debug_str
	.long L$set$2251
	.byte	0x40
	.short	0x3d5
	.byte	0x37
	.long	0x2e18
	.byte	0x1
	.byte	0x1
	.byte	0
	.uleb128 0xe
	.ascii "_Tp\0"
	.long	0xce
	.byte	0
	.uleb128 0x4
	.ascii "_ZNSt14numeric_limitsIsE14is_specializedE\0"
	.long	0x6f8e
	.uleb128 0x4
	.ascii "_ZNSt14numeric_limitsIsE6digitsE\0"
	.long	0x702b
	.uleb128 0x4
	.ascii "_ZNSt14numeric_limitsIsE8digits10E\0"
	.long	0x703b
	.uleb128 0x4
	.ascii "_ZNSt14numeric_limitsIsE12max_digits10E\0"
	.long	0x704b
	.uleb128 0x4
	.ascii "_ZNSt14numeric_limitsIsE9is_signedE\0"
	.long	0x705b
	.uleb128 0x4
	.ascii "_ZNSt14numeric_limitsIsE10is_integerE\0"
	.long	0x706b
	.uleb128 0x4
	.ascii "_ZNSt14numeric_limitsIsE8is_exactE\0"
	.long	0x707b
	.uleb128 0x4
	.ascii "_ZNSt14numeric_limitsIsE5radixE\0"
	.long	0x708b
	.uleb128 0x4
	.ascii "_ZNSt14numeric_limitsIsE12min_exponentE\0"
	.long	0x7104
	.uleb128 0x4
	.ascii "_ZNSt14numeric_limitsIsE14min_exponent10E\0"
	.long	0x7114
	.uleb128 0x4
	.ascii "_ZNSt14numeric_limitsIsE12max_exponentE\0"
	.long	0x7124
	.uleb128 0x4
	.ascii "_ZNSt14numeric_limitsIsE14max_exponent10E\0"
	.long	0x7134
	.uleb128 0x4
	.ascii "_ZNSt14numeric_limitsIsE12has_infinityE\0"
	.long	0x7144
	.uleb128 0x4
	.ascii "_ZNSt14numeric_limitsIsE13has_quiet_NaNE\0"
	.long	0x7154
	.uleb128 0x4
	.ascii "_ZNSt14numeric_limitsIsE17has_signaling_NaNE\0"
	.long	0x7164
	.uleb128 0x4
	.ascii "_ZNSt14numeric_limitsIsE10has_denormE\0"
	.long	0x7174
	.uleb128 0x4
	.ascii "_ZNSt14numeric_limitsIsE15has_denorm_lossE\0"
	.long	0x7184
	.uleb128 0x4
	.ascii "_ZNSt14numeric_limitsIsE9is_iec559E\0"
	.long	0x726a
	.uleb128 0x4
	.ascii "_ZNSt14numeric_limitsIsE10is_boundedE\0"
	.long	0x727a
	.uleb128 0x4
	.ascii "_ZNSt14numeric_limitsIsE9is_moduloE\0"
	.long	0x728a
	.uleb128 0x4
	.ascii "_ZNSt14numeric_limitsIsE5trapsE\0"
	.long	0x729a
	.uleb128 0x4
	.ascii "_ZNSt14numeric_limitsIsE15tinyness_beforeE\0"
	.long	0x72aa
	.uleb128 0x4
	.ascii "_ZNSt14numeric_limitsIsE11round_styleE\0"
	.long	0x72ba
	.uleb128 0x29
	.ascii "numeric_limits<short unsigned int>\0"
	.byte	0x1
	.uleb128 0x28
	.long	0x76bd
	.byte	0x1
	.byte	0x40
	.short	0x3db
	.byte	0xc
	.long	0x7a36
	.uleb128 0x6
	.set L$set$2252,LASF26-Lsection__debug_str
	.long L$set$2252
	.byte	0x40
	.short	0x3dd
	.byte	0x2a
	.long	0x158f
	.byte	0x1
	.byte	0x1
	.byte	0x1
	.uleb128 0x21
	.byte	0x1
	.ascii "min\0"
	.byte	0x40
	.short	0x3e0
	.byte	0x7
	.ascii "_ZNSt14numeric_limitsItE3minEv\0"
	.long	0xe0
	.byte	0x1
	.uleb128 0x21
	.byte	0x1
	.ascii "max\0"
	.byte	0x40
	.short	0x3e3
	.byte	0x7
	.ascii "_ZNSt14numeric_limitsItE3maxEv\0"
	.long	0xe0
	.byte	0x1
	.uleb128 0x12
	.byte	0x1
	.set L$set$2253,LASF49-Lsection__debug_str
	.long L$set$2253
	.byte	0x40
	.short	0x3e7
	.byte	0x7
	.ascii "_ZNSt14numeric_limitsItE6lowestEv\0"
	.long	0xe0
	.byte	0x1
	.uleb128 0x6
	.set L$set$2254,LASF27-Lsection__debug_str
	.long L$set$2254
	.byte	0x40
	.short	0x3ea
	.byte	0x29
	.long	0xfd
	.byte	0x1
	.byte	0x1
	.byte	0x10
	.uleb128 0x6
	.set L$set$2255,LASF28-Lsection__debug_str
	.long L$set$2255
	.byte	0x40
	.short	0x3ec
	.byte	0x29
	.long	0xfd
	.byte	0x1
	.byte	0x1
	.byte	0x4
	.uleb128 0x6
	.set L$set$2256,LASF29-Lsection__debug_str
	.long L$set$2256
	.byte	0x40
	.short	0x3ef
	.byte	0x1c
	.long	0xfd
	.byte	0x1
	.byte	0x1
	.byte	0
	.uleb128 0x6
	.set L$set$2257,LASF30-Lsection__debug_str
	.long L$set$2257
	.byte	0x40
	.short	0x3f1
	.byte	0x2a
	.long	0x158f
	.byte	0x1
	.byte	0x1
	.byte	0
	.uleb128 0x6
	.set L$set$2258,LASF31-Lsection__debug_str
	.long L$set$2258
	.byte	0x40
	.short	0x3f2
	.byte	0x2a
	.long	0x158f
	.byte	0x1
	.byte	0x1
	.byte	0x1
	.uleb128 0x6
	.set L$set$2259,LASF32-Lsection__debug_str
	.long L$set$2259
	.byte	0x40
	.short	0x3f3
	.byte	0x2a
	.long	0x158f
	.byte	0x1
	.byte	0x1
	.byte	0x1
	.uleb128 0x6
	.set L$set$2260,LASF33-Lsection__debug_str
	.long L$set$2260
	.byte	0x40
	.short	0x3f4
	.byte	0x29
	.long	0xfd
	.byte	0x1
	.byte	0x1
	.byte	0x2
	.uleb128 0x12
	.byte	0x1
	.set L$set$2261,LASF50-Lsection__debug_str
	.long L$set$2261
	.byte	0x40
	.short	0x3f7
	.byte	0x7
	.ascii "_ZNSt14numeric_limitsItE7epsilonEv\0"
	.long	0xe0
	.byte	0x1
	.uleb128 0x12
	.byte	0x1
	.set L$set$2262,LASF51-Lsection__debug_str
	.long L$set$2262
	.byte	0x40
	.short	0x3fa
	.byte	0x7
	.ascii "_ZNSt14numeric_limitsItE11round_errorEv\0"
	.long	0xe0
	.byte	0x1
	.uleb128 0x6
	.set L$set$2263,LASF34-Lsection__debug_str
	.long L$set$2263
	.byte	0x40
	.short	0x3fc
	.byte	0x29
	.long	0xfd
	.byte	0x1
	.byte	0x1
	.byte	0
	.uleb128 0x6
	.set L$set$2264,LASF35-Lsection__debug_str
	.long L$set$2264
	.byte	0x40
	.short	0x3fd
	.byte	0x29
	.long	0xfd
	.byte	0x1
	.byte	0x1
	.byte	0
	.uleb128 0x6
	.set L$set$2265,LASF36-Lsection__debug_str
	.long L$set$2265
	.byte	0x40
	.short	0x3fe
	.byte	0x29
	.long	0xfd
	.byte	0x1
	.byte	0x1
	.byte	0
	.uleb128 0x6
	.set L$set$2266,LASF37-Lsection__debug_str
	.long L$set$2266
	.byte	0x40
	.short	0x3ff
	.byte	0x29
	.long	0xfd
	.byte	0x1
	.byte	0x1
	.byte	0
	.uleb128 0x6
	.set L$set$2267,LASF38-Lsection__debug_str
	.long L$set$2267
	.byte	0x40
	.short	0x401
	.byte	0x2a
	.long	0x158f
	.byte	0x1
	.byte	0x1
	.byte	0
	.uleb128 0x6
	.set L$set$2268,LASF39-Lsection__debug_str
	.long L$set$2268
	.byte	0x40
	.short	0x402
	.byte	0x2a
	.long	0x158f
	.byte	0x1
	.byte	0x1
	.byte	0
	.uleb128 0x6
	.set L$set$2269,LASF40-Lsection__debug_str
	.long L$set$2269
	.byte	0x40
	.short	0x403
	.byte	0x2a
	.long	0x158f
	.byte	0x1
	.byte	0x1
	.byte	0
	.uleb128 0x6
	.set L$set$2270,LASF41-Lsection__debug_str
	.long L$set$2270
	.byte	0x40
	.short	0x404
	.byte	0x38
	.long	0x2e73
	.byte	0x1
	.byte	0x1
	.byte	0
	.uleb128 0x6
	.set L$set$2271,LASF42-Lsection__debug_str
	.long L$set$2271
	.byte	0x40
	.short	0x406
	.byte	0x2a
	.long	0x158f
	.byte	0x1
	.byte	0x1
	.byte	0
	.uleb128 0x12
	.byte	0x1
	.set L$set$2272,LASF52-Lsection__debug_str
	.long L$set$2272
	.byte	0x40
	.short	0x409
	.byte	0x7
	.ascii "_ZNSt14numeric_limitsItE8infinityEv\0"
	.long	0xe0
	.byte	0x1
	.uleb128 0x12
	.byte	0x1
	.set L$set$2273,LASF53-Lsection__debug_str
	.long L$set$2273
	.byte	0x40
	.short	0x40d
	.byte	0x7
	.ascii "_ZNSt14numeric_limitsItE9quiet_NaNEv\0"
	.long	0xe0
	.byte	0x1
	.uleb128 0x12
	.byte	0x1
	.set L$set$2274,LASF54-Lsection__debug_str
	.long L$set$2274
	.byte	0x40
	.short	0x411
	.byte	0x7
	.ascii "_ZNSt14numeric_limitsItE13signaling_NaNEv\0"
	.long	0xe0
	.byte	0x1
	.uleb128 0x12
	.byte	0x1
	.set L$set$2275,LASF55-Lsection__debug_str
	.long L$set$2275
	.byte	0x40
	.short	0x415
	.byte	0x7
	.ascii "_ZNSt14numeric_limitsItE10denorm_minEv\0"
	.long	0xe0
	.byte	0x1
	.uleb128 0x6
	.set L$set$2276,LASF43-Lsection__debug_str
	.long L$set$2276
	.byte	0x40
	.short	0x418
	.byte	0x2a
	.long	0x158f
	.byte	0x1
	.byte	0x1
	.byte	0
	.uleb128 0x6
	.set L$set$2277,LASF44-Lsection__debug_str
	.long L$set$2277
	.byte	0x40
	.short	0x419
	.byte	0x2a
	.long	0x158f
	.byte	0x1
	.byte	0x1
	.byte	0x1
	.uleb128 0x6
	.set L$set$2278,LASF45-Lsection__debug_str
	.long L$set$2278
	.byte	0x40
	.short	0x41a
	.byte	0x2a
	.long	0x158f
	.byte	0x1
	.byte	0x1
	.byte	0x1
	.uleb128 0x6
	.set L$set$2279,LASF46-Lsection__debug_str
	.long L$set$2279
	.byte	0x40
	.short	0x41c
	.byte	0x2a
	.long	0x158f
	.byte	0x1
	.byte	0x1
	.byte	0x1
	.uleb128 0x6
	.set L$set$2280,LASF47-Lsection__debug_str
	.long L$set$2280
	.byte	0x40
	.short	0x41d
	.byte	0x2a
	.long	0x158f
	.byte	0x1
	.byte	0x1
	.byte	0
	.uleb128 0x6
	.set L$set$2281,LASF48-Lsection__debug_str
	.long L$set$2281
	.byte	0x40
	.short	0x41e
	.byte	0x37
	.long	0x2e18
	.byte	0x1
	.byte	0x1
	.byte	0
	.uleb128 0xe
	.ascii "_Tp\0"
	.long	0xe0
	.byte	0
	.uleb128 0x4
	.ascii "_ZNSt14numeric_limitsItE14is_specializedE\0"
	.long	0x76f0
	.uleb128 0x4
	.ascii "_ZNSt14numeric_limitsItE6digitsE\0"
	.long	0x778d
	.uleb128 0x4
	.ascii "_ZNSt14numeric_limitsItE8digits10E\0"
	.long	0x779d
	.uleb128 0x4
	.ascii "_ZNSt14numeric_limitsItE12max_digits10E\0"
	.long	0x77ad
	.uleb128 0x4
	.ascii "_ZNSt14numeric_limitsItE9is_signedE\0"
	.long	0x77bd
	.uleb128 0x4
	.ascii "_ZNSt14numeric_limitsItE10is_integerE\0"
	.long	0x77cd
	.uleb128 0x4
	.ascii "_ZNSt14numeric_limitsItE8is_exactE\0"
	.long	0x77dd
	.uleb128 0x4
	.ascii "_ZNSt14numeric_limitsItE5radixE\0"
	.long	0x77ed
	.uleb128 0x4
	.ascii "_ZNSt14numeric_limitsItE12min_exponentE\0"
	.long	0x7866
	.uleb128 0x4
	.ascii "_ZNSt14numeric_limitsItE14min_exponent10E\0"
	.long	0x7876
	.uleb128 0x4
	.ascii "_ZNSt14numeric_limitsItE12max_exponentE\0"
	.long	0x7886
	.uleb128 0x4
	.ascii "_ZNSt14numeric_limitsItE14max_exponent10E\0"
	.long	0x7896
	.uleb128 0x4
	.ascii "_ZNSt14numeric_limitsItE12has_infinityE\0"
	.long	0x78a6
	.uleb128 0x4
	.ascii "_ZNSt14numeric_limitsItE13has_quiet_NaNE\0"
	.long	0x78b6
	.uleb128 0x4
	.ascii "_ZNSt14numeric_limitsItE17has_signaling_NaNE\0"
	.long	0x78c6
	.uleb128 0x4
	.ascii "_ZNSt14numeric_limitsItE10has_denormE\0"
	.long	0x78d6
	.uleb128 0x4
	.ascii "_ZNSt14numeric_limitsItE15has_denorm_lossE\0"
	.long	0x78e6
	.uleb128 0x4
	.ascii "_ZNSt14numeric_limitsItE9is_iec559E\0"
	.long	0x79cc
	.uleb128 0x4
	.ascii "_ZNSt14numeric_limitsItE10is_boundedE\0"
	.long	0x79dc
	.uleb128 0x4
	.ascii "_ZNSt14numeric_limitsItE9is_moduloE\0"
	.long	0x79ec
	.uleb128 0x4
	.ascii "_ZNSt14numeric_limitsItE5trapsE\0"
	.long	0x79fc
	.uleb128 0x4
	.ascii "_ZNSt14numeric_limitsItE15tinyness_beforeE\0"
	.long	0x7a0c
	.uleb128 0x4
	.ascii "_ZNSt14numeric_limitsItE11round_styleE\0"
	.long	0x7a1c
	.uleb128 0x29
	.ascii "numeric_limits<int>\0"
	.byte	0x1
	.uleb128 0x28
	.long	0x7e1f
	.byte	0x1
	.byte	0x40
	.short	0x424
	.byte	0xc
	.long	0x8189
	.uleb128 0x6
	.set L$set$2282,LASF26-Lsection__debug_str
	.long L$set$2282
	.byte	0x40
	.short	0x426
	.byte	0x2a
	.long	0x158f
	.byte	0x1
	.byte	0x1
	.byte	0x1
	.uleb128 0x21
	.byte	0x1
	.ascii "min\0"
	.byte	0x40
	.short	0x429
	.byte	0x7
	.ascii "_ZNSt14numeric_limitsIiE3minEv\0"
	.long	0xf6
	.byte	0x1
	.uleb128 0x21
	.byte	0x1
	.ascii "max\0"
	.byte	0x40
	.short	0x42c
	.byte	0x7
