
./a.out:	file format mach-o arm64

Disassembly of section __TEXT,__text:

0000000100003090 <_main>:
100003090: d10103ff    	sub	sp, sp, #64
100003094: a9037bfd    	stp	x29, x30, [sp, #48]
100003098: 9100c3fd    	add	x29, sp, #48
10000309c: b0000008    	adrp	x8, 0x100004000 <_main+0x10>
1000030a0: f9403d08    	ldr	x8, [x8, #120]
1000030a4: f9000fe8    	str	x8, [sp, #24]
1000030a8: 9400033f    	bl	0x100003da4 <_strlen+0x100003da4>
1000030ac: aa0003e8    	mov	x8, x0
1000030b0: f9400fe0    	ldr	x0, [sp, #24]
1000030b4: f81f83a8    	stur	x8, [x29, #-8]
1000030b8: b0000008    	adrp	x8, 0x100004000 <_main+0x2c>
1000030bc: f9400508    	ldr	x8, [x8, #8]
1000030c0: f90007e8    	str	x8, [sp, #8]
1000030c4: f9400101    	ldr	x1, [x8]
1000030c8: 94000022    	bl	0x100003150 <std::__1::basic_ostream<char, std::__1::char_traits<char>>& std::__1::operator<<[abi:ue170006]<std::__1::char_traits<char>>(std::__1::basic_ostream<char, std::__1::char_traits<char>>&, char const*)>
1000030cc: 90000001    	adrp	x1, 0x100003000 <_main+0x3c>
1000030d0: 91071021    	add	x1, x1, #452
1000030d4: f81f03a1    	stur	x1, [x29, #-16]
1000030d8: 94000030    	bl	0x100003198 <std::__1::basic_ostream<char, std::__1::char_traits<char>>::operator<<[abi:ue170006](std::__1::basic_ostream<char, std::__1::char_traits<char>>& (*)(std::__1::basic_ostream<char, std::__1::char_traits<char>>&))>
1000030dc: f94007e8    	ldr	x8, [sp, #8]
1000030e0: f9400fe0    	ldr	x0, [sp, #24]
1000030e4: f9400101    	ldr	x1, [x8]
1000030e8: 9400001a    	bl	0x100003150 <std::__1::basic_ostream<char, std::__1::char_traits<char>>& std::__1::operator<<[abi:ue170006]<std::__1::char_traits<char>>(std::__1::basic_ostream<char, std::__1::char_traits<char>>&, char const*)>
1000030ec: f85f03a1    	ldur	x1, [x29, #-16]
1000030f0: 9400002a    	bl	0x100003198 <std::__1::basic_ostream<char, std::__1::char_traits<char>>::operator<<[abi:ue170006](std::__1::basic_ostream<char, std::__1::char_traits<char>>& (*)(std::__1::basic_ostream<char, std::__1::char_traits<char>>&))>
1000030f4: f9400fe0    	ldr	x0, [sp, #24]
1000030f8: b0000001    	adrp	x1, 0x100004000 <_main+0x6c>
1000030fc: f9400c21    	ldr	x1, [x1, #24]
100003100: f9000be1    	str	x1, [sp, #16]
100003104: 94000343    	bl	0x100003e10 <_strlen+0x100003e10>
100003108: f85f03a1    	ldur	x1, [x29, #-16]
10000310c: 94000023    	bl	0x100003198 <std::__1::basic_ostream<char, std::__1::char_traits<char>>::operator<<[abi:ue170006](std::__1::basic_ostream<char, std::__1::char_traits<char>>& (*)(std::__1::basic_ostream<char, std::__1::char_traits<char>>&))>
100003110: f9400be1    	ldr	x1, [sp, #16]
100003114: f9400fe0    	ldr	x0, [sp, #24]
100003118: 9400033e    	bl	0x100003e10 <_strlen+0x100003e10>
10000311c: f85f03a1    	ldur	x1, [x29, #-16]
100003120: 9400001e    	bl	0x100003198 <std::__1::basic_ostream<char, std::__1::char_traits<char>>::operator<<[abi:ue170006](std::__1::basic_ostream<char, std::__1::char_traits<char>>& (*)(std::__1::basic_ostream<char, std::__1::char_traits<char>>&))>
100003124: 52800000    	mov	w0, #0
100003128: a9437bfd    	ldp	x29, x30, [sp, #48]
10000312c: 910103ff    	add	sp, sp, #64
100003130: d65f03c0    	ret

0000000100003134 <get_f()>:
100003134: d10043ff    	sub	sp, sp, #16
100003138: b0000008    	adrp	x8, 0x100004000 <get_f()+0x8>
10000313c: f9400d08    	ldr	x8, [x8, #24]
100003140: f90007e8    	str	x8, [sp, #8]
100003144: f94007e0    	ldr	x0, [sp, #8]
100003148: 910043ff    	add	sp, sp, #16
10000314c: d65f03c0    	ret

0000000100003150 <std::__1::basic_ostream<char, std::__1::char_traits<char>>& std::__1::operator<<[abi:ue170006]<std::__1::char_traits<char>>(std::__1::basic_ostream<char, std::__1::char_traits<char>>&, char const*)>:
100003150: d100c3ff    	sub	sp, sp, #48
100003154: a9027bfd    	stp	x29, x30, [sp, #32]
100003158: 910083fd    	add	x29, sp, #32
10000315c: f81f83a0    	stur	x0, [x29, #-8]
100003160: f9000be1    	str	x1, [sp, #16]
100003164: f85f83a8    	ldur	x8, [x29, #-8]
100003168: f90007e8    	str	x8, [sp, #8]
10000316c: f9400be8    	ldr	x8, [sp, #16]
100003170: f90003e8    	str	x8, [sp]
100003174: f9400be0    	ldr	x0, [sp, #16]
100003178: 940000a6    	bl	0x100003410 <std::__1::char_traits<char>::length[abi:ue170006](char const*)>
10000317c: f94003e1    	ldr	x1, [sp]
100003180: aa0003e2    	mov	x2, x0
100003184: f94007e0    	ldr	x0, [sp, #8]
100003188: 94000027    	bl	0x100003224 <std::__1::basic_ostream<char, std::__1::char_traits<char>>& std::__1::__put_character_sequence[abi:ue170006]<char, std::__1::char_traits<char>>(std::__1::basic_ostream<char, std::__1::char_traits<char>>&, char const*, unsigned long)>
10000318c: a9427bfd    	ldp	x29, x30, [sp, #32]
100003190: 9100c3ff    	add	sp, sp, #48
100003194: d65f03c0    	ret

0000000100003198 <std::__1::basic_ostream<char, std::__1::char_traits<char>>::operator<<[abi:ue170006](std::__1::basic_ostream<char, std::__1::char_traits<char>>& (*)(std::__1::basic_ostream<char, std::__1::char_traits<char>>&))>:
100003198: d10083ff    	sub	sp, sp, #32
10000319c: a9017bfd    	stp	x29, x30, [sp, #16]
1000031a0: 910043fd    	add	x29, sp, #16
1000031a4: f90007e0    	str	x0, [sp, #8]
1000031a8: f90003e1    	str	x1, [sp]
1000031ac: f94007e0    	ldr	x0, [sp, #8]
1000031b0: f94003e8    	ldr	x8, [sp]
1000031b4: d63f0100    	blr	x8
1000031b8: a9417bfd    	ldp	x29, x30, [sp, #16]
1000031bc: 910083ff    	add	sp, sp, #32
1000031c0: d65f03c0    	ret

00000001000031c4 <std::__1::basic_ostream<char, std::__1::char_traits<char>>& std::__1::endl[abi:ue170006]<char, std::__1::char_traits<char>>(std::__1::basic_ostream<char, std::__1::char_traits<char>>&)>:
1000031c4: d10083ff    	sub	sp, sp, #32
1000031c8: a9017bfd    	stp	x29, x30, [sp, #16]
1000031cc: 910043fd    	add	x29, sp, #16
1000031d0: f90007e0    	str	x0, [sp, #8]
1000031d4: f94007e8    	ldr	x8, [sp, #8]
1000031d8: f90003e8    	str	x8, [sp]
1000031dc: f94007e8    	ldr	x8, [sp, #8]
1000031e0: f9400109    	ldr	x9, [x8]
1000031e4: f85e8129    	ldur	x9, [x9, #-24]
1000031e8: 8b090100    	add	x0, x8, x9
1000031ec: 52800141    	mov	w1, #10
1000031f0: 94000286    	bl	0x100003c08 <std::__1::basic_ios<char, std::__1::char_traits<char>>::widen[abi:ue170006](char) const>
1000031f4: aa0003e8    	mov	x8, x0
1000031f8: f94003e0    	ldr	x0, [sp]
1000031fc: 13001d01    	sxtb	w1, w8
100003200: 940002f8    	bl	0x100003de0 <_strlen+0x100003de0>
100003204: f94007e0    	ldr	x0, [sp, #8]
100003208: 940002f9    	bl	0x100003dec <_strlen+0x100003dec>
10000320c: f94007e0    	ldr	x0, [sp, #8]
100003210: a9417bfd    	ldp	x29, x30, [sp, #16]
100003214: 910083ff    	add	sp, sp, #32
100003218: d65f03c0    	ret

000000010000321c <f()>:
10000321c: 52800060    	mov	w0, #3
100003220: d65f03c0    	ret

0000000100003224 <std::__1::basic_ostream<char, std::__1::char_traits<char>>& std::__1::__put_character_sequence[abi:ue170006]<char, std::__1::char_traits<char>>(std::__1::basic_ostream<char, std::__1::char_traits<char>>&, char const*, unsigned long)>:
100003224: d10283ff    	sub	sp, sp, #160
100003228: a9097bfd    	stp	x29, x30, [sp, #144]
10000322c: 910243fd    	add	x29, sp, #144
100003230: f81f83a0    	stur	x0, [x29, #-8]
100003234: f81f03a1    	stur	x1, [x29, #-16]
100003238: f81e83a2    	stur	x2, [x29, #-24]
10000323c: f85f83a1    	ldur	x1, [x29, #-8]
100003240: d100a3a0    	sub	x0, x29, #40
100003244: 940002ed    	bl	0x100003df8 <_strlen+0x100003df8>
100003248: 14000001    	b	0x10000324c <std::__1::basic_ostream<char, std::__1::char_traits<char>>& std::__1::__put_character_sequence[abi:ue170006]<char, std::__1::char_traits<char>>(std::__1::basic_ostream<char, std::__1::char_traits<char>>&, char const*, unsigned long)+0x28>
10000324c: d100a3a0    	sub	x0, x29, #40
100003250: 9400007d    	bl	0x100003444 <std::__1::basic_ostream<char, std::__1::char_traits<char>>::sentry::operator bool[abi:ue170006]() const>
100003254: b90047e0    	str	w0, [sp, #68]
100003258: 14000001    	b	0x10000325c <std::__1::basic_ostream<char, std::__1::char_traits<char>>& std::__1::__put_character_sequence[abi:ue170006]<char, std::__1::char_traits<char>>(std::__1::basic_ostream<char, std::__1::char_traits<char>>&, char const*, unsigned long)+0x38>
10000325c: b94047e8    	ldr	w8, [sp, #68]
100003260: 36000c08    	tbz	w8, #0, 0x1000033e0 <std::__1::basic_ostream<char, std::__1::char_traits<char>>& std::__1::__put_character_sequence[abi:ue170006]<char, std::__1::char_traits<char>>(std::__1::basic_ostream<char, std::__1::char_traits<char>>&, char const*, unsigned long)+0x1bc>
100003264: 14000001    	b	0x100003268 <std::__1::basic_ostream<char, std::__1::char_traits<char>>& std::__1::__put_character_sequence[abi:ue170006]<char, std::__1::char_traits<char>>(std::__1::basic_ostream<char, std::__1::char_traits<char>>&, char const*, unsigned long)+0x44>
100003268: f85f83a1    	ldur	x1, [x29, #-8]
10000326c: 910123e0    	add	x0, sp, #72
100003270: 9400010c    	bl	0x1000036a0 <std::__1::ostreambuf_iterator<char, std::__1::char_traits<char>>::ostreambuf_iterator[abi:ue170006](std::__1::basic_ostream<char, std::__1::char_traits<char>>&)>
100003274: f85f03a8    	ldur	x8, [x29, #-16]
100003278: f9001fe8    	str	x8, [sp, #56]
10000327c: f85f83a8    	ldur	x8, [x29, #-8]
100003280: f9400109    	ldr	x9, [x8]
100003284: f85e8129    	ldur	x9, [x9, #-24]
100003288: 8b090100    	add	x0, x8, x9
10000328c: 94000112    	bl	0x1000036d4 <std::__1::ios_base::flags[abi:ue170006]() const>
100003290: b90043e0    	str	w0, [sp, #64]
100003294: 14000001    	b	0x100003298 <std::__1::basic_ostream<char, std::__1::char_traits<char>>& std::__1::__put_character_sequence[abi:ue170006]<char, std::__1::char_traits<char>>(std::__1::basic_ostream<char, std::__1::char_traits<char>>&, char const*, unsigned long)+0x74>
100003298: b94043e8    	ldr	w8, [sp, #64]
10000329c: 52801609    	mov	w9, #176
1000032a0: 0a090108    	and	w8, w8, w9
1000032a4: 71008108    	subs	w8, w8, #32
1000032a8: 1a9f07e8    	cset	w8, ne
1000032ac: 370000e8    	tbnz	w8, #0, 0x1000032c8 <std::__1::basic_ostream<char, std::__1::char_traits<char>>& std::__1::__put_character_sequence[abi:ue170006]<char, std::__1::char_traits<char>>(std::__1::basic_ostream<char, std::__1::char_traits<char>>&, char const*, unsigned long)+0xa4>
1000032b0: 14000001    	b	0x1000032b4 <std::__1::basic_ostream<char, std::__1::char_traits<char>>& std::__1::__put_character_sequence[abi:ue170006]<char, std::__1::char_traits<char>>(std::__1::basic_ostream<char, std::__1::char_traits<char>>&, char const*, unsigned long)+0x90>
1000032b4: f85f03a8    	ldur	x8, [x29, #-16]
1000032b8: f85e83a9    	ldur	x9, [x29, #-24]
1000032bc: 8b090108    	add	x8, x8, x9
1000032c0: f9001be8    	str	x8, [sp, #48]
1000032c4: 14000004    	b	0x1000032d4 <std::__1::basic_ostream<char, std::__1::char_traits<char>>& std::__1::__put_character_sequence[abi:ue170006]<char, std::__1::char_traits<char>>(std::__1::basic_ostream<char, std::__1::char_traits<char>>&, char const*, unsigned long)+0xb0>
1000032c8: f85f03a8    	ldur	x8, [x29, #-16]
1000032cc: f9001be8    	str	x8, [sp, #48]
1000032d0: 14000001    	b	0x1000032d4 <std::__1::basic_ostream<char, std::__1::char_traits<char>>& std::__1::__put_character_sequence[abi:ue170006]<char, std::__1::char_traits<char>>(std::__1::basic_ostream<char, std::__1::char_traits<char>>&, char const*, unsigned long)+0xb0>
1000032d4: f9401be8    	ldr	x8, [sp, #48]
1000032d8: f9000be8    	str	x8, [sp, #16]
1000032dc: f85f03a8    	ldur	x8, [x29, #-16]
1000032e0: f85e83a9    	ldur	x9, [x29, #-24]
1000032e4: 8b090108    	add	x8, x8, x9
1000032e8: f9000fe8    	str	x8, [sp, #24]
1000032ec: f85f83a8    	ldur	x8, [x29, #-8]
1000032f0: f9400109    	ldr	x9, [x8]
1000032f4: f85e8129    	ldur	x9, [x9, #-24]
1000032f8: 8b090108    	add	x8, x8, x9
1000032fc: f90013e8    	str	x8, [sp, #32]
100003300: f85f83a8    	ldur	x8, [x29, #-8]
100003304: f9400109    	ldr	x9, [x8]
100003308: f85e8129    	ldur	x9, [x9, #-24]
10000330c: 8b090100    	add	x0, x8, x9
100003310: 940000f7    	bl	0x1000036ec <std::__1::basic_ios<char, std::__1::char_traits<char>>::fill[abi:ue170006]() const>
100003314: b9002fe0    	str	w0, [sp, #44]
100003318: 14000001    	b	0x10000331c <std::__1::basic_ostream<char, std::__1::char_traits<char>>& std::__1::__put_character_sequence[abi:ue170006]<char, std::__1::char_traits<char>>(std::__1::basic_ostream<char, std::__1::char_traits<char>>&, char const*, unsigned long)+0xf8>
10000331c: b9402fe8    	ldr	w8, [sp, #44]
100003320: f94013e4    	ldr	x4, [sp, #32]
100003324: f9400fe3    	ldr	x3, [sp, #24]
100003328: f9400be2    	ldr	x2, [sp, #16]
10000332c: f9401fe1    	ldr	x1, [sp, #56]
100003330: f94027e0    	ldr	x0, [sp, #72]
100003334: 13001d05    	sxtb	w5, w8
100003338: 9400004a    	bl	0x100003460 <std::__1::ostreambuf_iterator<char, std::__1::char_traits<char>> std::__1::__pad_and_output[abi:ue170006]<char, std::__1::char_traits<char>>(std::__1::ostreambuf_iterator<char, std::__1::char_traits<char>>, char const*, char const*, char const*, std::__1::ios_base&, char)>
10000333c: f90007e0    	str	x0, [sp, #8]
100003340: 14000001    	b	0x100003344 <std::__1::basic_ostream<char, std::__1::char_traits<char>>& std::__1::__put_character_sequence[abi:ue170006]<char, std::__1::char_traits<char>>(std::__1::basic_ostream<char, std::__1::char_traits<char>>&, char const*, unsigned long)+0x120>
100003344: f94007e8    	ldr	x8, [sp, #8]
100003348: d10103a0    	sub	x0, x29, #64
10000334c: f81c03a8    	stur	x8, [x29, #-64]
100003350: 94000100    	bl	0x100003750 <std::__1::ostreambuf_iterator<char, std::__1::char_traits<char>>::failed[abi:ue170006]() const>
100003354: 36000440    	tbz	w0, #0, 0x1000033dc <std::__1::basic_ostream<char, std::__1::char_traits<char>>& std::__1::__put_character_sequence[abi:ue170006]<char, std::__1::char_traits<char>>(std::__1::basic_ostream<char, std::__1::char_traits<char>>&, char const*, unsigned long)+0x1b8>
100003358: 14000001    	b	0x10000335c <std::__1::basic_ostream<char, std::__1::char_traits<char>>& std::__1::__put_character_sequence[abi:ue170006]<char, std::__1::char_traits<char>>(std::__1::basic_ostream<char, std::__1::char_traits<char>>&, char const*, unsigned long)+0x138>
10000335c: f85f83a8    	ldur	x8, [x29, #-8]
100003360: f9400109    	ldr	x9, [x8]
100003364: f85e8129    	ldur	x9, [x9, #-24]
100003368: 8b090100    	add	x0, x8, x9
10000336c: 528000a1    	mov	w1, #5
100003370: 94000101    	bl	0x100003774 <std::__1::basic_ios<char, std::__1::char_traits<char>>::setstate[abi:ue170006](unsigned int)>
100003374: 14000001    	b	0x100003378 <std::__1::basic_ostream<char, std::__1::char_traits<char>>& std::__1::__put_character_sequence[abi:ue170006]<char, std::__1::char_traits<char>>(std::__1::basic_ostream<char, std::__1::char_traits<char>>&, char const*, unsigned long)+0x154>
100003378: 14000019    	b	0x1000033dc <std::__1::basic_ostream<char, std::__1::char_traits<char>>& std::__1::__put_character_sequence[abi:ue170006]<char, std::__1::char_traits<char>>(std::__1::basic_ostream<char, std::__1::char_traits<char>>&, char const*, unsigned long)+0x1b8>
10000337c: f81d03a0    	stur	x0, [x29, #-48]
100003380: aa0103e8    	mov	x8, x1
100003384: b81cc3a8    	stur	w8, [x29, #-52]
100003388: 14000007    	b	0x1000033a4 <std::__1::basic_ostream<char, std::__1::char_traits<char>>& std::__1::__put_character_sequence[abi:ue170006]<char, std::__1::char_traits<char>>(std::__1::basic_ostream<char, std::__1::char_traits<char>>&, char const*, unsigned long)+0x180>
10000338c: f81d03a0    	stur	x0, [x29, #-48]
100003390: aa0103e8    	mov	x8, x1
100003394: b81cc3a8    	stur	w8, [x29, #-52]
100003398: d100a3a0    	sub	x0, x29, #40
10000339c: 9400029a    	bl	0x100003e04 <_strlen+0x100003e04>
1000033a0: 14000001    	b	0x1000033a4 <std::__1::basic_ostream<char, std::__1::char_traits<char>>& std::__1::__put_character_sequence[abi:ue170006]<char, std::__1::char_traits<char>>(std::__1::basic_ostream<char, std::__1::char_traits<char>>&, char const*, unsigned long)+0x180>
1000033a4: f85d03a0    	ldur	x0, [x29, #-48]
1000033a8: 940002a9    	bl	0x100003e4c <_strlen+0x100003e4c>
1000033ac: f85f83a8    	ldur	x8, [x29, #-8]
1000033b0: f9400109    	ldr	x9, [x8]
1000033b4: f85e8129    	ldur	x9, [x9, #-24]
1000033b8: 8b090100    	add	x0, x8, x9
1000033bc: 9400029b    	bl	0x100003e28 <_strlen+0x100003e28>
1000033c0: 14000001    	b	0x1000033c4 <std::__1::basic_ostream<char, std::__1::char_traits<char>>& std::__1::__put_character_sequence[abi:ue170006]<char, std::__1::char_traits<char>>(std::__1::basic_ostream<char, std::__1::char_traits<char>>&, char const*, unsigned long)+0x1a0>
1000033c4: 940002a5    	bl	0x100003e58 <_strlen+0x100003e58>
1000033c8: 14000001    	b	0x1000033cc <std::__1::basic_ostream<char, std::__1::char_traits<char>>& std::__1::__put_character_sequence[abi:ue170006]<char, std::__1::char_traits<char>>(std::__1::basic_ostream<char, std::__1::char_traits<char>>&, char const*, unsigned long)+0x1a8>
1000033cc: f85f83a0    	ldur	x0, [x29, #-8]
1000033d0: a9497bfd    	ldp	x29, x30, [sp, #144]
1000033d4: 910283ff    	add	sp, sp, #160
1000033d8: d65f03c0    	ret
1000033dc: 14000001    	b	0x1000033e0 <std::__1::basic_ostream<char, std::__1::char_traits<char>>& std::__1::__put_character_sequence[abi:ue170006]<char, std::__1::char_traits<char>>(std::__1::basic_ostream<char, std::__1::char_traits<char>>&, char const*, unsigned long)+0x1bc>
1000033e0: d100a3a0    	sub	x0, x29, #40
1000033e4: 94000288    	bl	0x100003e04 <_strlen+0x100003e04>
1000033e8: 17fffff9    	b	0x1000033cc <std::__1::basic_ostream<char, std::__1::char_traits<char>>& std::__1::__put_character_sequence[abi:ue170006]<char, std::__1::char_traits<char>>(std::__1::basic_ostream<char, std::__1::char_traits<char>>&, char const*, unsigned long)+0x1a8>
1000033ec: f81d03a0    	stur	x0, [x29, #-48]
1000033f0: aa0103e8    	mov	x8, x1
1000033f4: b81cc3a8    	stur	w8, [x29, #-52]
1000033f8: 94000298    	bl	0x100003e58 <_strlen+0x100003e58>
1000033fc: 14000001    	b	0x100003400 <std::__1::basic_ostream<char, std::__1::char_traits<char>>& std::__1::__put_character_sequence[abi:ue170006]<char, std::__1::char_traits<char>>(std::__1::basic_ostream<char, std::__1::char_traits<char>>&, char const*, unsigned long)+0x1dc>
100003400: 14000001    	b	0x100003404 <std::__1::basic_ostream<char, std::__1::char_traits<char>>& std::__1::__put_character_sequence[abi:ue170006]<char, std::__1::char_traits<char>>(std::__1::basic_ostream<char, std::__1::char_traits<char>>&, char const*, unsigned long)+0x1e0>
100003404: f85d03a0    	ldur	x0, [x29, #-48]
100003408: 94000264    	bl	0x100003d98 <_strlen+0x100003d98>
10000340c: 940000e5    	bl	0x1000037a0 <___clang_call_terminate>

0000000100003410 <std::__1::char_traits<char>::length[abi:ue170006](char const*)>:
100003410: d10083ff    	sub	sp, sp, #32
100003414: a9017bfd    	stp	x29, x30, [sp, #16]
100003418: 910043fd    	add	x29, sp, #16
10000341c: f90007e0    	str	x0, [sp, #8]
100003420: f94007e0    	ldr	x0, [sp, #8]
100003424: 94000240    	bl	0x100003d24 <std::__1::__constexpr_strlen[abi:ue170006](char const*)>
100003428: f90003e0    	str	x0, [sp]
10000342c: 14000001    	b	0x100003430 <std::__1::char_traits<char>::length[abi:ue170006](char const*)+0x20>
100003430: f94003e0    	ldr	x0, [sp]
100003434: a9417bfd    	ldp	x29, x30, [sp, #16]
100003438: 910083ff    	add	sp, sp, #32
10000343c: d65f03c0    	ret
100003440: 940000d8    	bl	0x1000037a0 <___clang_call_terminate>

0000000100003444 <std::__1::basic_ostream<char, std::__1::char_traits<char>>::sentry::operator bool[abi:ue170006]() const>:
100003444: d10043ff    	sub	sp, sp, #16
100003448: f90007e0    	str	x0, [sp, #8]
10000344c: f94007e8    	ldr	x8, [sp, #8]
100003450: 39400108    	ldrb	w8, [x8]
100003454: 12000100    	and	w0, w8, #0x1
100003458: 910043ff    	add	sp, sp, #16
10000345c: d65f03c0    	ret

0000000100003460 <std::__1::ostreambuf_iterator<char, std::__1::char_traits<char>> std::__1::__pad_and_output[abi:ue170006]<char, std::__1::char_traits<char>>(std::__1::ostreambuf_iterator<char, std::__1::char_traits<char>>, char const*, char const*, char const*, std::__1::ios_base&, char)>:
100003460: d10283ff    	sub	sp, sp, #160
100003464: a9097bfd    	stp	x29, x30, [sp, #144]
100003468: 910243fd    	add	x29, sp, #144
10000346c: f81f03a0    	stur	x0, [x29, #-16]
100003470: f81e83a1    	stur	x1, [x29, #-24]
100003474: f81e03a2    	stur	x2, [x29, #-32]
100003478: f81d83a3    	stur	x3, [x29, #-40]
10000347c: f81d03a4    	stur	x4, [x29, #-48]
100003480: 381cf3a5    	sturb	w5, [x29, #-49]
100003484: f85f03a8    	ldur	x8, [x29, #-16]
100003488: f1000108    	subs	x8, x8, #0
10000348c: 1a9f07e8    	cset	w8, ne
100003490: 370000a8    	tbnz	w8, #0, 0x1000034a4 <std::__1::ostreambuf_iterator<char, std::__1::char_traits<char>> std::__1::__pad_and_output[abi:ue170006]<char, std::__1::char_traits<char>>(std::__1::ostreambuf_iterator<char, std::__1::char_traits<char>>, char const*, char const*, char const*, std::__1::ios_base&, char)+0x44>
100003494: 14000001    	b	0x100003498 <std::__1::ostreambuf_iterator<char, std::__1::char_traits<char>> std::__1::__pad_and_output[abi:ue170006]<char, std::__1::char_traits<char>>(std::__1::ostreambuf_iterator<char, std::__1::char_traits<char>>, char const*, char const*, char const*, std::__1::ios_base&, char)+0x38>
100003498: f85f03a8    	ldur	x8, [x29, #-16]
10000349c: f81f83a8    	stur	x8, [x29, #-8]
1000034a0: 1400007a    	b	0x100003688 <std::__1::ostreambuf_iterator<char, std::__1::char_traits<char>> std::__1::__pad_and_output[abi:ue170006]<char, std::__1::char_traits<char>>(std::__1::ostreambuf_iterator<char, std::__1::char_traits<char>>, char const*, char const*, char const*, std::__1::ios_base&, char)+0x228>
1000034a4: f85d83a8    	ldur	x8, [x29, #-40]
1000034a8: f85e83a9    	ldur	x9, [x29, #-24]
1000034ac: eb090108    	subs	x8, x8, x9
1000034b0: f81c03a8    	stur	x8, [x29, #-64]
1000034b4: f85d03a0    	ldur	x0, [x29, #-48]
1000034b8: 940000bd    	bl	0x1000037ac <std::__1::ios_base::width[abi:ue170006]() const>
1000034bc: f90027e0    	str	x0, [sp, #72]
1000034c0: f94027e8    	ldr	x8, [sp, #72]
1000034c4: f85c03a9    	ldur	x9, [x29, #-64]
1000034c8: eb090108    	subs	x8, x8, x9
1000034cc: 1a9fc7e8    	cset	w8, le
1000034d0: 370000e8    	tbnz	w8, #0, 0x1000034ec <std::__1::ostreambuf_iterator<char, std::__1::char_traits<char>> std::__1::__pad_and_output[abi:ue170006]<char, std::__1::char_traits<char>>(std::__1::ostreambuf_iterator<char, std::__1::char_traits<char>>, char const*, char const*, char const*, std::__1::ios_base&, char)+0x8c>
1000034d4: 14000001    	b	0x1000034d8 <std::__1::ostreambuf_iterator<char, std::__1::char_traits<char>> std::__1::__pad_and_output[abi:ue170006]<char, std::__1::char_traits<char>>(std::__1::ostreambuf_iterator<char, std::__1::char_traits<char>>, char const*, char const*, char const*, std::__1::ios_base&, char)+0x78>
1000034d8: f85c03a9    	ldur	x9, [x29, #-64]
1000034dc: f94027e8    	ldr	x8, [sp, #72]
1000034e0: eb090108    	subs	x8, x8, x9
1000034e4: f90027e8    	str	x8, [sp, #72]
1000034e8: 14000003    	b	0x1000034f4 <std::__1::ostreambuf_iterator<char, std::__1::char_traits<char>> std::__1::__pad_and_output[abi:ue170006]<char, std::__1::char_traits<char>>(std::__1::ostreambuf_iterator<char, std::__1::char_traits<char>>, char const*, char const*, char const*, std::__1::ios_base&, char)+0x94>
1000034ec: f90027ff    	str	xzr, [sp, #72]
1000034f0: 14000001    	b	0x1000034f4 <std::__1::ostreambuf_iterator<char, std::__1::char_traits<char>> std::__1::__pad_and_output[abi:ue170006]<char, std::__1::char_traits<char>>(std::__1::ostreambuf_iterator<char, std::__1::char_traits<char>>, char const*, char const*, char const*, std::__1::ios_base&, char)+0x94>
1000034f4: f85e03a8    	ldur	x8, [x29, #-32]
1000034f8: f85e83a9    	ldur	x9, [x29, #-24]
1000034fc: eb090108    	subs	x8, x8, x9
100003500: f90023e8    	str	x8, [sp, #64]
100003504: f94023e8    	ldr	x8, [sp, #64]
100003508: f1000108    	subs	x8, x8, #0
10000350c: 1a9fc7e8    	cset	w8, le
100003510: 37000208    	tbnz	w8, #0, 0x100003550 <std::__1::ostreambuf_iterator<char, std::__1::char_traits<char>> std::__1::__pad_and_output[abi:ue170006]<char, std::__1::char_traits<char>>(std::__1::ostreambuf_iterator<char, std::__1::char_traits<char>>, char const*, char const*, char const*, std::__1::ios_base&, char)+0xf0>
100003514: 14000001    	b	0x100003518 <std::__1::ostreambuf_iterator<char, std::__1::char_traits<char>> std::__1::__pad_and_output[abi:ue170006]<char, std::__1::char_traits<char>>(std::__1::ostreambuf_iterator<char, std::__1::char_traits<char>>, char const*, char const*, char const*, std::__1::ios_base&, char)+0xb8>
100003518: f85f03a0    	ldur	x0, [x29, #-16]
10000351c: f85e83a1    	ldur	x1, [x29, #-24]
100003520: f94023e2    	ldr	x2, [sp, #64]
100003524: 940000a8    	bl	0x1000037c4 <std::__1::basic_streambuf<char, std::__1::char_traits<char>>::sputn[abi:ue170006](char const*, long)>
100003528: f94023e8    	ldr	x8, [sp, #64]
10000352c: eb080008    	subs	x8, x0, x8
100003530: 1a9f17e8    	cset	w8, eq
100003534: 370000c8    	tbnz	w8, #0, 0x10000354c <std::__1::ostreambuf_iterator<char, std::__1::char_traits<char>> std::__1::__pad_and_output[abi:ue170006]<char, std::__1::char_traits<char>>(std::__1::ostreambuf_iterator<char, std::__1::char_traits<char>>, char const*, char const*, char const*, std::__1::ios_base&, char)+0xec>
100003538: 14000001    	b	0x10000353c <std::__1::ostreambuf_iterator<char, std::__1::char_traits<char>> std::__1::__pad_and_output[abi:ue170006]<char, std::__1::char_traits<char>>(std::__1::ostreambuf_iterator<char, std::__1::char_traits<char>>, char const*, char const*, char const*, std::__1::ios_base&, char)+0xdc>
10000353c: f81f03bf    	stur	xzr, [x29, #-16]
100003540: f85f03a8    	ldur	x8, [x29, #-16]
100003544: f81f83a8    	stur	x8, [x29, #-8]
100003548: 14000050    	b	0x100003688 <std::__1::ostreambuf_iterator<char, std::__1::char_traits<char>> std::__1::__pad_and_output[abi:ue170006]<char, std::__1::char_traits<char>>(std::__1::ostreambuf_iterator<char, std::__1::char_traits<char>>, char const*, char const*, char const*, std::__1::ios_base&, char)+0x228>
10000354c: 14000001    	b	0x100003550 <std::__1::ostreambuf_iterator<char, std::__1::char_traits<char>> std::__1::__pad_and_output[abi:ue170006]<char, std::__1::char_traits<char>>(std::__1::ostreambuf_iterator<char, std::__1::char_traits<char>>, char const*, char const*, char const*, std::__1::ios_base&, char)+0xf0>
100003550: f94027e8    	ldr	x8, [sp, #72]
100003554: f1000108    	subs	x8, x8, #0
100003558: 1a9fc7e8    	cset	w8, le
10000355c: 370005c8    	tbnz	w8, #0, 0x100003614 <std::__1::ostreambuf_iterator<char, std::__1::char_traits<char>> std::__1::__pad_and_output[abi:ue170006]<char, std::__1::char_traits<char>>(std::__1::ostreambuf_iterator<char, std::__1::char_traits<char>>, char const*, char const*, char const*, std::__1::ios_base&, char)+0x1b4>
100003560: 14000001    	b	0x100003564 <std::__1::ostreambuf_iterator<char, std::__1::char_traits<char>> std::__1::__pad_and_output[abi:ue170006]<char, std::__1::char_traits<char>>(std::__1::ostreambuf_iterator<char, std::__1::char_traits<char>>, char const*, char const*, char const*, std::__1::ios_base&, char)+0x104>
100003564: f94027e1    	ldr	x1, [sp, #72]
100003568: 38dcf3a2    	ldursb	w2, [x29, #-49]
10000356c: 9100a3e0    	add	x0, sp, #40
100003570: f90003e0    	str	x0, [sp]
100003574: 940000a3    	bl	0x100003800 <std::__1::basic_string<char, std::__1::char_traits<char>, std::__1::allocator<char>>::basic_string[abi:ue170006](unsigned long, char)>
100003578: f94003e0    	ldr	x0, [sp]
10000357c: f85f03a8    	ldur	x8, [x29, #-16]
100003580: f90007e8    	str	x8, [sp, #8]
100003584: 940000ae    	bl	0x10000383c <std::__1::basic_string<char, std::__1::char_traits<char>, std::__1::allocator<char>>::data[abi:ue170006]()>
100003588: aa0003e1    	mov	x1, x0
10000358c: f94007e0    	ldr	x0, [sp, #8]
100003590: f94027e2    	ldr	x2, [sp, #72]
100003594: 9400008c    	bl	0x1000037c4 <std::__1::basic_streambuf<char, std::__1::char_traits<char>>::sputn[abi:ue170006](char const*, long)>
100003598: f9000be0    	str	x0, [sp, #16]
10000359c: 14000001    	b	0x1000035a0 <std::__1::ostreambuf_iterator<char, std::__1::char_traits<char>> std::__1::__pad_and_output[abi:ue170006]<char, std::__1::char_traits<char>>(std::__1::ostreambuf_iterator<char, std::__1::char_traits<char>>, char const*, char const*, char const*, std::__1::ios_base&, char)+0x140>
1000035a0: f9400be8    	ldr	x8, [sp, #16]
1000035a4: f94027e9    	ldr	x9, [sp, #72]
1000035a8: eb090108    	subs	x8, x8, x9
1000035ac: 1a9f17e8    	cset	w8, eq
1000035b0: 370001c8    	tbnz	w8, #0, 0x1000035e8 <std::__1::ostreambuf_iterator<char, std::__1::char_traits<char>> std::__1::__pad_and_output[abi:ue170006]<char, std::__1::char_traits<char>>(std::__1::ostreambuf_iterator<char, std::__1::char_traits<char>>, char const*, char const*, char const*, std::__1::ios_base&, char)+0x188>
1000035b4: 14000001    	b	0x1000035b8 <std::__1::ostreambuf_iterator<char, std::__1::char_traits<char>> std::__1::__pad_and_output[abi:ue170006]<char, std::__1::char_traits<char>>(std::__1::ostreambuf_iterator<char, std::__1::char_traits<char>>, char const*, char const*, char const*, std::__1::ios_base&, char)+0x158>
1000035b8: f81f03bf    	stur	xzr, [x29, #-16]
1000035bc: f85f03a8    	ldur	x8, [x29, #-16]
1000035c0: f81f83a8    	stur	x8, [x29, #-8]
1000035c4: 52800028    	mov	w8, #1
1000035c8: b9001be8    	str	w8, [sp, #24]
1000035cc: 14000009    	b	0x1000035f0 <std::__1::ostreambuf_iterator<char, std::__1::char_traits<char>> std::__1::__pad_and_output[abi:ue170006]<char, std::__1::char_traits<char>>(std::__1::ostreambuf_iterator<char, std::__1::char_traits<char>>, char const*, char const*, char const*, std::__1::ios_base&, char)+0x190>
1000035d0: f90013e0    	str	x0, [sp, #32]
1000035d4: aa0103e8    	mov	x8, x1
1000035d8: b9001fe8    	str	w8, [sp, #28]
1000035dc: 9100a3e0    	add	x0, sp, #40
1000035e0: 940001fd    	bl	0x100003dd4 <_strlen+0x100003dd4>
1000035e4: 1400002d    	b	0x100003698 <std::__1::ostreambuf_iterator<char, std::__1::char_traits<char>> std::__1::__pad_and_output[abi:ue170006]<char, std::__1::char_traits<char>>(std::__1::ostreambuf_iterator<char, std::__1::char_traits<char>>, char const*, char const*, char const*, std::__1::ios_base&, char)+0x238>
1000035e8: b9001bff    	str	wzr, [sp, #24]
1000035ec: 14000001    	b	0x1000035f0 <std::__1::ostreambuf_iterator<char, std::__1::char_traits<char>> std::__1::__pad_and_output[abi:ue170006]<char, std::__1::char_traits<char>>(std::__1::ostreambuf_iterator<char, std::__1::char_traits<char>>, char const*, char const*, char const*, std::__1::ios_base&, char)+0x190>
1000035f0: 9100a3e0    	add	x0, sp, #40
1000035f4: 940001f8    	bl	0x100003dd4 <_strlen+0x100003dd4>
1000035f8: b9401be8    	ldr	w8, [sp, #24]
1000035fc: 71000108    	subs	w8, w8, #0
100003600: 1a9f17e8    	cset	w8, eq
100003604: 37000068    	tbnz	w8, #0, 0x100003610 <std::__1::ostreambuf_iterator<char, std::__1::char_traits<char>> std::__1::__pad_and_output[abi:ue170006]<char, std::__1::char_traits<char>>(std::__1::ostreambuf_iterator<char, std::__1::char_traits<char>>, char const*, char const*, char const*, std::__1::ios_base&, char)+0x1b0>
100003608: 14000001    	b	0x10000360c <std::__1::ostreambuf_iterator<char, std::__1::char_traits<char>> std::__1::__pad_and_output[abi:ue170006]<char, std::__1::char_traits<char>>(std::__1::ostreambuf_iterator<char, std::__1::char_traits<char>>, char const*, char const*, char const*, std::__1::ios_base&, char)+0x1ac>
10000360c: 1400001f    	b	0x100003688 <std::__1::ostreambuf_iterator<char, std::__1::char_traits<char>> std::__1::__pad_and_output[abi:ue170006]<char, std::__1::char_traits<char>>(std::__1::ostreambuf_iterator<char, std::__1::char_traits<char>>, char const*, char const*, char const*, std::__1::ios_base&, char)+0x228>
100003610: 14000001    	b	0x100003614 <std::__1::ostreambuf_iterator<char, std::__1::char_traits<char>> std::__1::__pad_and_output[abi:ue170006]<char, std::__1::char_traits<char>>(std::__1::ostreambuf_iterator<char, std::__1::char_traits<char>>, char const*, char const*, char const*, std::__1::ios_base&, char)+0x1b4>
100003614: f85d83a8    	ldur	x8, [x29, #-40]
100003618: f85e03a9    	ldur	x9, [x29, #-32]
10000361c: eb090108    	subs	x8, x8, x9
100003620: f90023e8    	str	x8, [sp, #64]
100003624: f94023e8    	ldr	x8, [sp, #64]
100003628: f1000108    	subs	x8, x8, #0
10000362c: 1a9fc7e8    	cset	w8, le
100003630: 37000208    	tbnz	w8, #0, 0x100003670 <std::__1::ostreambuf_iterator<char, std::__1::char_traits<char>> std::__1::__pad_and_output[abi:ue170006]<char, std::__1::char_traits<char>>(std::__1::ostreambuf_iterator<char, std::__1::char_traits<char>>, char const*, char const*, char const*, std::__1::ios_base&, char)+0x210>
100003634: 14000001    	b	0x100003638 <std::__1::ostreambuf_iterator<char, std::__1::char_traits<char>> std::__1::__pad_and_output[abi:ue170006]<char, std::__1::char_traits<char>>(std::__1::ostreambuf_iterator<char, std::__1::char_traits<char>>, char const*, char const*, char const*, std::__1::ios_base&, char)+0x1d8>
100003638: f85f03a0    	ldur	x0, [x29, #-16]
10000363c: f85e03a1    	ldur	x1, [x29, #-32]
100003640: f94023e2    	ldr	x2, [sp, #64]
100003644: 94000060    	bl	0x1000037c4 <std::__1::basic_streambuf<char, std::__1::char_traits<char>>::sputn[abi:ue170006](char const*, long)>
100003648: f94023e8    	ldr	x8, [sp, #64]
10000364c: eb080008    	subs	x8, x0, x8
100003650: 1a9f17e8    	cset	w8, eq
100003654: 370000c8    	tbnz	w8, #0, 0x10000366c <std::__1::ostreambuf_iterator<char, std::__1::char_traits<char>> std::__1::__pad_and_output[abi:ue170006]<char, std::__1::char_traits<char>>(std::__1::ostreambuf_iterator<char, std::__1::char_traits<char>>, char const*, char const*, char const*, std::__1::ios_base&, char)+0x20c>
100003658: 14000001    	b	0x10000365c <std::__1::ostreambuf_iterator<char, std::__1::char_traits<char>> std::__1::__pad_and_output[abi:ue170006]<char, std::__1::char_traits<char>>(std::__1::ostreambuf_iterator<char, std::__1::char_traits<char>>, char const*, char const*, char const*, std::__1::ios_base&, char)+0x1fc>
10000365c: f81f03bf    	stur	xzr, [x29, #-16]
100003660: f85f03a8    	ldur	x8, [x29, #-16]
100003664: f81f83a8    	stur	x8, [x29, #-8]
100003668: 14000008    	b	0x100003688 <std::__1::ostreambuf_iterator<char, std::__1::char_traits<char>> std::__1::__pad_and_output[abi:ue170006]<char, std::__1::char_traits<char>>(std::__1::ostreambuf_iterator<char, std::__1::char_traits<char>>, char const*, char const*, char const*, std::__1::ios_base&, char)+0x228>
10000366c: 14000001    	b	0x100003670 <std::__1::ostreambuf_iterator<char, std::__1::char_traits<char>> std::__1::__pad_and_output[abi:ue170006]<char, std::__1::char_traits<char>>(std::__1::ostreambuf_iterator<char, std::__1::char_traits<char>>, char const*, char const*, char const*, std::__1::ios_base&, char)+0x210>
100003670: f85d03a0    	ldur	x0, [x29, #-48]
100003674: d2800001    	mov	x1, #0
100003678: 9400007b    	bl	0x100003864 <std::__1::ios_base::width[abi:ue170006](long)>
10000367c: f85f03a8    	ldur	x8, [x29, #-16]
100003680: f81f83a8    	stur	x8, [x29, #-8]
100003684: 14000001    	b	0x100003688 <std::__1::ostreambuf_iterator<char, std::__1::char_traits<char>> std::__1::__pad_and_output[abi:ue170006]<char, std::__1::char_traits<char>>(std::__1::ostreambuf_iterator<char, std::__1::char_traits<char>>, char const*, char const*, char const*, std::__1::ios_base&, char)+0x228>
100003688: f85f83a0    	ldur	x0, [x29, #-8]
10000368c: a9497bfd    	ldp	x29, x30, [sp, #144]
100003690: 910283ff    	add	sp, sp, #160
100003694: d65f03c0    	ret
100003698: f94013e0    	ldr	x0, [sp, #32]
10000369c: 940001bf    	bl	0x100003d98 <_strlen+0x100003d98>

00000001000036a0 <std::__1::ostreambuf_iterator<char, std::__1::char_traits<char>>::ostreambuf_iterator[abi:ue170006](std::__1::basic_ostream<char, std::__1::char_traits<char>>&)>:
1000036a0: d100c3ff    	sub	sp, sp, #48
1000036a4: a9027bfd    	stp	x29, x30, [sp, #32]
1000036a8: 910083fd    	add	x29, sp, #32
1000036ac: f81f83a0    	stur	x0, [x29, #-8]
1000036b0: f9000be1    	str	x1, [sp, #16]
1000036b4: f85f83a0    	ldur	x0, [x29, #-8]
1000036b8: f90007e0    	str	x0, [sp, #8]
1000036bc: f9400be1    	ldr	x1, [sp, #16]
1000036c0: 94000122    	bl	0x100003b48 <std::__1::ostreambuf_iterator<char, std::__1::char_traits<char>>::ostreambuf_iterator[abi:ue170006](std::__1::basic_ostream<char, std::__1::char_traits<char>>&)>
1000036c4: f94007e0    	ldr	x0, [sp, #8]
1000036c8: a9427bfd    	ldp	x29, x30, [sp, #32]
1000036cc: 9100c3ff    	add	sp, sp, #48
1000036d0: d65f03c0    	ret

00000001000036d4 <std::__1::ios_base::flags[abi:ue170006]() const>:
1000036d4: d10043ff    	sub	sp, sp, #16
1000036d8: f90007e0    	str	x0, [sp, #8]
1000036dc: f94007e8    	ldr	x8, [sp, #8]
1000036e0: b9400900    	ldr	w0, [x8, #8]
1000036e4: 910043ff    	add	sp, sp, #16
1000036e8: d65f03c0    	ret

00000001000036ec <std::__1::basic_ios<char, std::__1::char_traits<char>>::fill[abi:ue170006]() const>:
1000036ec: d10083ff    	sub	sp, sp, #32
1000036f0: a9017bfd    	stp	x29, x30, [sp, #16]
1000036f4: 910043fd    	add	x29, sp, #16
1000036f8: f90007e0    	str	x0, [sp, #8]
1000036fc: f94007e8    	ldr	x8, [sp, #8]
100003700: f90003e8    	str	x8, [sp]
100003704: 9400013f    	bl	0x100003c00 <std::__1::char_traits<char>::eof[abi:ue170006]()>
100003708: f94003e8    	ldr	x8, [sp]
10000370c: b9409101    	ldr	w1, [x8, #144]
100003710: 94000132    	bl	0x100003bd8 <std::__1::char_traits<char>::eq_int_type[abi:ue170006](int, int)>
100003714: 36000120    	tbz	w0, #0, 0x100003738 <std::__1::basic_ios<char, std::__1::char_traits<char>>::fill[abi:ue170006]() const+0x4c>
100003718: 14000001    	b	0x10000371c <std::__1::basic_ios<char, std::__1::char_traits<char>>::fill[abi:ue170006]() const+0x30>
10000371c: f94003e0    	ldr	x0, [sp]
100003720: 52800401    	mov	w1, #32
100003724: 94000139    	bl	0x100003c08 <std::__1::basic_ios<char, std::__1::char_traits<char>>::widen[abi:ue170006](char) const>
100003728: f94003e9    	ldr	x9, [sp]
10000372c: 13001c08    	sxtb	w8, w0
100003730: b9009128    	str	w8, [x9, #144]
100003734: 14000001    	b	0x100003738 <std::__1::basic_ios<char, std::__1::char_traits<char>>::fill[abi:ue170006]() const+0x4c>
100003738: f94003e8    	ldr	x8, [sp]
10000373c: b9409108    	ldr	w8, [x8, #144]
100003740: 13001d00    	sxtb	w0, w8
100003744: a9417bfd    	ldp	x29, x30, [sp, #16]
100003748: 910083ff    	add	sp, sp, #32
10000374c: d65f03c0    	ret

0000000100003750 <std::__1::ostreambuf_iterator<char, std::__1::char_traits<char>>::failed[abi:ue170006]() const>:
100003750: d10043ff    	sub	sp, sp, #16
100003754: f90007e0    	str	x0, [sp, #8]
100003758: f94007e8    	ldr	x8, [sp, #8]
10000375c: f9400108    	ldr	x8, [x8]
100003760: f1000108    	subs	x8, x8, #0
100003764: 1a9f17e8    	cset	w8, eq
100003768: 12000100    	and	w0, w8, #0x1
10000376c: 910043ff    	add	sp, sp, #16
100003770: d65f03c0    	ret

0000000100003774 <std::__1::basic_ios<char, std::__1::char_traits<char>>::setstate[abi:ue170006](unsigned int)>:
100003774: d10083ff    	sub	sp, sp, #32
100003778: a9017bfd    	stp	x29, x30, [sp, #16]
10000377c: 910043fd    	add	x29, sp, #16
100003780: f90007e0    	str	x0, [sp, #8]
100003784: b90007e1    	str	w1, [sp, #4]
100003788: f94007e0    	ldr	x0, [sp, #8]
10000378c: b94007e1    	ldr	w1, [sp, #4]
100003790: 94000158    	bl	0x100003cf0 <std::__1::ios_base::setstate[abi:ue170006](unsigned int)>
100003794: a9417bfd    	ldp	x29, x30, [sp, #16]
100003798: 910083ff    	add	sp, sp, #32
10000379c: d65f03c0    	ret

00000001000037a0 <___clang_call_terminate>:
1000037a0: a9bf7bfd    	stp	x29, x30, [sp, #-16]!
1000037a4: 940001aa    	bl	0x100003e4c <_strlen+0x100003e4c>
1000037a8: 940001a6    	bl	0x100003e40 <_strlen+0x100003e40>

00000001000037ac <std::__1::ios_base::width[abi:ue170006]() const>:
1000037ac: d10043ff    	sub	sp, sp, #16
1000037b0: f90007e0    	str	x0, [sp, #8]
1000037b4: f94007e8    	ldr	x8, [sp, #8]
1000037b8: f9400d00    	ldr	x0, [x8, #24]
1000037bc: 910043ff    	add	sp, sp, #16
1000037c0: d65f03c0    	ret

00000001000037c4 <std::__1::basic_streambuf<char, std::__1::char_traits<char>>::sputn[abi:ue170006](char const*, long)>:
1000037c4: d100c3ff    	sub	sp, sp, #48
1000037c8: a9027bfd    	stp	x29, x30, [sp, #32]
1000037cc: 910083fd    	add	x29, sp, #32
1000037d0: f81f83a0    	stur	x0, [x29, #-8]
1000037d4: f9000be1    	str	x1, [sp, #16]
1000037d8: f90007e2    	str	x2, [sp, #8]
1000037dc: f85f83a0    	ldur	x0, [x29, #-8]
1000037e0: f9400be1    	ldr	x1, [sp, #16]
1000037e4: f94007e2    	ldr	x2, [sp, #8]
1000037e8: f9400008    	ldr	x8, [x0]
1000037ec: f9403108    	ldr	x8, [x8, #96]
1000037f0: d63f0100    	blr	x8
1000037f4: a9427bfd    	ldp	x29, x30, [sp, #32]
1000037f8: 9100c3ff    	add	sp, sp, #48
1000037fc: d65f03c0    	ret

0000000100003800 <std::__1::basic_string<char, std::__1::char_traits<char>, std::__1::allocator<char>>::basic_string[abi:ue170006](unsigned long, char)>:
100003800: d100c3ff    	sub	sp, sp, #48
100003804: a9027bfd    	stp	x29, x30, [sp, #32]
100003808: 910083fd    	add	x29, sp, #32
10000380c: f81f83a0    	stur	x0, [x29, #-8]
100003810: f9000be1    	str	x1, [sp, #16]
100003814: 39003fe2    	strb	w2, [sp, #15]
100003818: f85f83a0    	ldur	x0, [x29, #-8]
10000381c: f90003e0    	str	x0, [sp]
100003820: f9400be1    	ldr	x1, [sp, #16]
100003824: 39c03fe2    	ldrsb	w2, [sp, #15]
100003828: 9400001a    	bl	0x100003890 <std::__1::basic_string<char, std::__1::char_traits<char>, std::__1::allocator<char>>::basic_string[abi:ue170006](unsigned long, char)>
10000382c: f94003e0    	ldr	x0, [sp]
100003830: a9427bfd    	ldp	x29, x30, [sp, #32]
100003834: 9100c3ff    	add	sp, sp, #48
100003838: d65f03c0    	ret

000000010000383c <std::__1::basic_string<char, std::__1::char_traits<char>, std::__1::allocator<char>>::data[abi:ue170006]()>:
10000383c: d10083ff    	sub	sp, sp, #32
100003840: a9017bfd    	stp	x29, x30, [sp, #16]
100003844: 910043fd    	add	x29, sp, #16
100003848: f90007e0    	str	x0, [sp, #8]
10000384c: f94007e0    	ldr	x0, [sp, #8]
100003850: 94000066    	bl	0x1000039e8 <std::__1::basic_string<char, std::__1::char_traits<char>, std::__1::allocator<char>>::__get_pointer[abi:ue170006]()>
100003854: 94000060    	bl	0x1000039d4 <char* std::__1::__to_address[abi:ue170006]<char>(char*)>
100003858: a9417bfd    	ldp	x29, x30, [sp, #16]
10000385c: 910083ff    	add	sp, sp, #32
100003860: d65f03c0    	ret

0000000100003864 <std::__1::ios_base::width[abi:ue170006](long)>:
100003864: d10083ff    	sub	sp, sp, #32
100003868: f9000fe0    	str	x0, [sp, #24]
10000386c: f9000be1    	str	x1, [sp, #16]
100003870: f9400fe9    	ldr	x9, [sp, #24]
100003874: f9400d28    	ldr	x8, [x9, #24]
100003878: f90007e8    	str	x8, [sp, #8]
10000387c: f9400be8    	ldr	x8, [sp, #16]
100003880: f9000d28    	str	x8, [x9, #24]
100003884: f94007e0    	ldr	x0, [sp, #8]
100003888: 910083ff    	add	sp, sp, #32
10000388c: d65f03c0    	ret

0000000100003890 <std::__1::basic_string<char, std::__1::char_traits<char>, std::__1::allocator<char>>::basic_string[abi:ue170006](unsigned long, char)>:
100003890: d100c3ff    	sub	sp, sp, #48
100003894: a9027bfd    	stp	x29, x30, [sp, #32]
100003898: 910083fd    	add	x29, sp, #32
10000389c: f81f83a0    	stur	x0, [x29, #-8]
1000038a0: f9000be1    	str	x1, [sp, #16]
1000038a4: 39003fe2    	strb	w2, [sp, #15]
1000038a8: f85f83a0    	ldur	x0, [x29, #-8]
1000038ac: f90003e0    	str	x0, [sp]
1000038b0: 91003be1    	add	x1, sp, #14
1000038b4: 910037e2    	add	x2, sp, #13
1000038b8: 94000009    	bl	0x1000038dc <std::__1::__compressed_pair<std::__1::basic_string<char, std::__1::char_traits<char>, std::__1::allocator<char>>::__rep, std::__1::allocator<char>>::__compressed_pair[abi:ue170006]<std::__1::__default_init_tag, std::__1::__default_init_tag>(std::__1::__default_init_tag&&, std::__1::__default_init_tag&&)>
1000038bc: f94003e0    	ldr	x0, [sp]
1000038c0: f9400be1    	ldr	x1, [sp, #16]
1000038c4: 39c03fe2    	ldrsb	w2, [sp, #15]
1000038c8: 94000140    	bl	0x100003dc8 <_strlen+0x100003dc8>
1000038cc: f94003e0    	ldr	x0, [sp]
1000038d0: a9427bfd    	ldp	x29, x30, [sp, #32]
1000038d4: 9100c3ff    	add	sp, sp, #48
1000038d8: d65f03c0    	ret

00000001000038dc <std::__1::__compressed_pair<std::__1::basic_string<char, std::__1::char_traits<char>, std::__1::allocator<char>>::__rep, std::__1::allocator<char>>::__compressed_pair[abi:ue170006]<std::__1::__default_init_tag, std::__1::__default_init_tag>(std::__1::__default_init_tag&&, std::__1::__default_init_tag&&)>:
1000038dc: d100c3ff    	sub	sp, sp, #48
1000038e0: a9027bfd    	stp	x29, x30, [sp, #32]
1000038e4: 910083fd    	add	x29, sp, #32
1000038e8: f81f83a0    	stur	x0, [x29, #-8]
1000038ec: f9000be1    	str	x1, [sp, #16]
1000038f0: f90007e2    	str	x2, [sp, #8]
1000038f4: f85f83a0    	ldur	x0, [x29, #-8]
1000038f8: f90003e0    	str	x0, [sp]
1000038fc: f9400be1    	ldr	x1, [sp, #16]
100003900: f94007e2    	ldr	x2, [sp, #8]
100003904: 94000005    	bl	0x100003918 <std::__1::__compressed_pair<std::__1::basic_string<char, std::__1::char_traits<char>, std::__1::allocator<char>>::__rep, std::__1::allocator<char>>::__compressed_pair[abi:ue170006]<std::__1::__default_init_tag, std::__1::__default_init_tag>(std::__1::__default_init_tag&&, std::__1::__default_init_tag&&)>
100003908: f94003e0    	ldr	x0, [sp]
10000390c: a9427bfd    	ldp	x29, x30, [sp, #32]
100003910: 9100c3ff    	add	sp, sp, #48
100003914: d65f03c0    	ret

0000000100003918 <std::__1::__compressed_pair<std::__1::basic_string<char, std::__1::char_traits<char>, std::__1::allocator<char>>::__rep, std::__1::allocator<char>>::__compressed_pair[abi:ue170006]<std::__1::__default_init_tag, std::__1::__default_init_tag>(std::__1::__default_init_tag&&, std::__1::__default_init_tag&&)>:
100003918: d10103ff    	sub	sp, sp, #64
10000391c: a9037bfd    	stp	x29, x30, [sp, #48]
100003920: 9100c3fd    	add	x29, sp, #48
100003924: f81f83a0    	stur	x0, [x29, #-8]
100003928: f81f03a1    	stur	x1, [x29, #-16]
10000392c: f9000fe2    	str	x2, [sp, #24]
100003930: f85f83a0    	ldur	x0, [x29, #-8]
100003934: f90007e0    	str	x0, [sp, #8]
100003938: 94000007    	bl	0x100003954 <std::__1::__compressed_pair_elem<std::__1::basic_string<char, std::__1::char_traits<char>, std::__1::allocator<char>>::__rep, 0, false>::__compressed_pair_elem[abi:ue170006](std::__1::__default_init_tag)>
10000393c: f94007e0    	ldr	x0, [sp, #8]
100003940: 9400000a    	bl	0x100003968 <std::__1::__compressed_pair_elem<std::__1::allocator<char>, 1, true>::__compressed_pair_elem[abi:ue170006](std::__1::__default_init_tag)>
100003944: f94007e0    	ldr	x0, [sp, #8]
100003948: a9437bfd    	ldp	x29, x30, [sp, #48]
10000394c: 910103ff    	add	sp, sp, #64
100003950: d65f03c0    	ret

0000000100003954 <std::__1::__compressed_pair_elem<std::__1::basic_string<char, std::__1::char_traits<char>, std::__1::allocator<char>>::__rep, 0, false>::__compressed_pair_elem[abi:ue170006](std::__1::__default_init_tag)>:
100003954: d10043ff    	sub	sp, sp, #16
100003958: f90003e0    	str	x0, [sp]
10000395c: f94003e0    	ldr	x0, [sp]
100003960: 910043ff    	add	sp, sp, #16
100003964: d65f03c0    	ret

0000000100003968 <std::__1::__compressed_pair_elem<std::__1::allocator<char>, 1, true>::__compressed_pair_elem[abi:ue170006](std::__1::__default_init_tag)>:
100003968: d100c3ff    	sub	sp, sp, #48
10000396c: a9027bfd    	stp	x29, x30, [sp, #32]
100003970: 910083fd    	add	x29, sp, #32
100003974: f9000be0    	str	x0, [sp, #16]
100003978: f9400be0    	ldr	x0, [sp, #16]
10000397c: f90007e0    	str	x0, [sp, #8]
100003980: 94000005    	bl	0x100003994 <std::__1::allocator<char>::allocator[abi:ue170006]()>
100003984: f94007e0    	ldr	x0, [sp, #8]
100003988: a9427bfd    	ldp	x29, x30, [sp, #32]
10000398c: 9100c3ff    	add	sp, sp, #48
100003990: d65f03c0    	ret

0000000100003994 <std::__1::allocator<char>::allocator[abi:ue170006]()>:
100003994: d10083ff    	sub	sp, sp, #32
100003998: a9017bfd    	stp	x29, x30, [sp, #16]
10000399c: 910043fd    	add	x29, sp, #16
1000039a0: f90007e0    	str	x0, [sp, #8]
1000039a4: f94007e0    	ldr	x0, [sp, #8]
1000039a8: f90003e0    	str	x0, [sp]
1000039ac: 94000005    	bl	0x1000039c0 <std::__1::__non_trivial_if<true, std::__1::allocator<char>>::__non_trivial_if[abi:ue170006]()>
1000039b0: f94003e0    	ldr	x0, [sp]
1000039b4: a9417bfd    	ldp	x29, x30, [sp, #16]
1000039b8: 910083ff    	add	sp, sp, #32
1000039bc: d65f03c0    	ret

00000001000039c0 <std::__1::__non_trivial_if<true, std::__1::allocator<char>>::__non_trivial_if[abi:ue170006]()>:
1000039c0: d10043ff    	sub	sp, sp, #16
1000039c4: f90007e0    	str	x0, [sp, #8]
1000039c8: f94007e0    	ldr	x0, [sp, #8]
1000039cc: 910043ff    	add	sp, sp, #16
1000039d0: d65f03c0    	ret

00000001000039d4 <char* std::__1::__to_address[abi:ue170006]<char>(char*)>:
1000039d4: d10043ff    	sub	sp, sp, #16
1000039d8: f90007e0    	str	x0, [sp, #8]
1000039dc: f94007e0    	ldr	x0, [sp, #8]
1000039e0: 910043ff    	add	sp, sp, #16
1000039e4: d65f03c0    	ret

00000001000039e8 <std::__1::basic_string<char, std::__1::char_traits<char>, std::__1::allocator<char>>::__get_pointer[abi:ue170006]()>:
1000039e8: d100c3ff    	sub	sp, sp, #48
1000039ec: a9027bfd    	stp	x29, x30, [sp, #32]
1000039f0: 910083fd    	add	x29, sp, #32
1000039f4: f81f83a0    	stur	x0, [x29, #-8]
1000039f8: f85f83a0    	ldur	x0, [x29, #-8]
1000039fc: f9000be0    	str	x0, [sp, #16]
100003a00: 9400000f    	bl	0x100003a3c <std::__1::basic_string<char, std::__1::char_traits<char>, std::__1::allocator<char>>::__is_long[abi:ue170006]() const>
100003a04: 360000c0    	tbz	w0, #0, 0x100003a1c <std::__1::basic_string<char, std::__1::char_traits<char>, std::__1::allocator<char>>::__get_pointer[abi:ue170006]()+0x34>
100003a08: 14000001    	b	0x100003a0c <std::__1::basic_string<char, std::__1::char_traits<char>, std::__1::allocator<char>>::__get_pointer[abi:ue170006]()+0x24>
100003a0c: f9400be0    	ldr	x0, [sp, #16]
100003a10: 94000019    	bl	0x100003a74 <std::__1::basic_string<char, std::__1::char_traits<char>, std::__1::allocator<char>>::__get_long_pointer[abi:ue170006]()>
100003a14: f90007e0    	str	x0, [sp, #8]
100003a18: 14000005    	b	0x100003a2c <std::__1::basic_string<char, std::__1::char_traits<char>, std::__1::allocator<char>>::__get_pointer[abi:ue170006]()+0x44>
100003a1c: f9400be0    	ldr	x0, [sp, #16]
100003a20: 9400001f    	bl	0x100003a9c <std::__1::basic_string<char, std::__1::char_traits<char>, std::__1::allocator<char>>::__get_short_pointer[abi:ue170006]()>
100003a24: f90007e0    	str	x0, [sp, #8]
100003a28: 14000001    	b	0x100003a2c <std::__1::basic_string<char, std::__1::char_traits<char>, std::__1::allocator<char>>::__get_pointer[abi:ue170006]()+0x44>
100003a2c: f94007e0    	ldr	x0, [sp, #8]
100003a30: a9427bfd    	ldp	x29, x30, [sp, #32]
100003a34: 9100c3ff    	add	sp, sp, #48
100003a38: d65f03c0    	ret

0000000100003a3c <std::__1::basic_string<char, std::__1::char_traits<char>, std::__1::allocator<char>>::__is_long[abi:ue170006]() const>:
100003a3c: d10083ff    	sub	sp, sp, #32
100003a40: a9017bfd    	stp	x29, x30, [sp, #16]
100003a44: 910043fd    	add	x29, sp, #16
100003a48: f90007e0    	str	x0, [sp, #8]
100003a4c: f94007e0    	ldr	x0, [sp, #8]
100003a50: 9400001d    	bl	0x100003ac4 <std::__1::__compressed_pair<std::__1::basic_string<char, std::__1::char_traits<char>, std::__1::allocator<char>>::__rep, std::__1::allocator<char>>::first[abi:ue170006]() const>
100003a54: 39405c08    	ldrb	w8, [x0, #23]
100003a58: 53077d08    	lsr	w8, w8, #7
100003a5c: 72001d08    	ands	w8, w8, #0xff
100003a60: 1a9f07e8    	cset	w8, ne
100003a64: 12000100    	and	w0, w8, #0x1
100003a68: a9417bfd    	ldp	x29, x30, [sp, #16]
100003a6c: 910083ff    	add	sp, sp, #32
100003a70: d65f03c0    	ret

0000000100003a74 <std::__1::basic_string<char, std::__1::char_traits<char>, std::__1::allocator<char>>::__get_long_pointer[abi:ue170006]()>:
100003a74: d10083ff    	sub	sp, sp, #32
100003a78: a9017bfd    	stp	x29, x30, [sp, #16]
100003a7c: 910043fd    	add	x29, sp, #16
100003a80: f90007e0    	str	x0, [sp, #8]
100003a84: f94007e0    	ldr	x0, [sp, #8]
100003a88: 9400001d    	bl	0x100003afc <std::__1::__compressed_pair<std::__1::basic_string<char, std::__1::char_traits<char>, std::__1::allocator<char>>::__rep, std::__1::allocator<char>>::first[abi:ue170006]()>
100003a8c: f9400000    	ldr	x0, [x0]
100003a90: a9417bfd    	ldp	x29, x30, [sp, #16]
100003a94: 910083ff    	add	sp, sp, #32
100003a98: d65f03c0    	ret

0000000100003a9c <std::__1::basic_string<char, std::__1::char_traits<char>, std::__1::allocator<char>>::__get_short_pointer[abi:ue170006]()>:
100003a9c: d10083ff    	sub	sp, sp, #32
100003aa0: a9017bfd    	stp	x29, x30, [sp, #16]
100003aa4: 910043fd    	add	x29, sp, #16
100003aa8: f90007e0    	str	x0, [sp, #8]
100003aac: f94007e0    	ldr	x0, [sp, #8]
100003ab0: 94000013    	bl	0x100003afc <std::__1::__compressed_pair<std::__1::basic_string<char, std::__1::char_traits<char>, std::__1::allocator<char>>::__rep, std::__1::allocator<char>>::first[abi:ue170006]()>
100003ab4: 94000020    	bl	0x100003b34 <std::__1::pointer_traits<char*>::pointer_to[abi:ue170006](char&)>
100003ab8: a9417bfd    	ldp	x29, x30, [sp, #16]
100003abc: 910083ff    	add	sp, sp, #32
100003ac0: d65f03c0    	ret

0000000100003ac4 <std::__1::__compressed_pair<std::__1::basic_string<char, std::__1::char_traits<char>, std::__1::allocator<char>>::__rep, std::__1::allocator<char>>::first[abi:ue170006]() const>:
100003ac4: d10083ff    	sub	sp, sp, #32
100003ac8: a9017bfd    	stp	x29, x30, [sp, #16]
100003acc: 910043fd    	add	x29, sp, #16
100003ad0: f90007e0    	str	x0, [sp, #8]
100003ad4: f94007e0    	ldr	x0, [sp, #8]
100003ad8: 94000004    	bl	0x100003ae8 <std::__1::__compressed_pair_elem<std::__1::basic_string<char, std::__1::char_traits<char>, std::__1::allocator<char>>::__rep, 0, false>::__get[abi:ue170006]() const>
100003adc: a9417bfd    	ldp	x29, x30, [sp, #16]
100003ae0: 910083ff    	add	sp, sp, #32
100003ae4: d65f03c0    	ret

0000000100003ae8 <std::__1::__compressed_pair_elem<std::__1::basic_string<char, std::__1::char_traits<char>, std::__1::allocator<char>>::__rep, 0, false>::__get[abi:ue170006]() const>:
100003ae8: d10043ff    	sub	sp, sp, #16
100003aec: f90007e0    	str	x0, [sp, #8]
100003af0: f94007e0    	ldr	x0, [sp, #8]
100003af4: 910043ff    	add	sp, sp, #16
100003af8: d65f03c0    	ret

0000000100003afc <std::__1::__compressed_pair<std::__1::basic_string<char, std::__1::char_traits<char>, std::__1::allocator<char>>::__rep, std::__1::allocator<char>>::first[abi:ue170006]()>:
100003afc: d10083ff    	sub	sp, sp, #32
100003b00: a9017bfd    	stp	x29, x30, [sp, #16]
100003b04: 910043fd    	add	x29, sp, #16
100003b08: f90007e0    	str	x0, [sp, #8]
100003b0c: f94007e0    	ldr	x0, [sp, #8]
100003b10: 94000004    	bl	0x100003b20 <std::__1::__compressed_pair_elem<std::__1::basic_string<char, std::__1::char_traits<char>, std::__1::allocator<char>>::__rep, 0, false>::__get[abi:ue170006]()>
100003b14: a9417bfd    	ldp	x29, x30, [sp, #16]
100003b18: 910083ff    	add	sp, sp, #32
100003b1c: d65f03c0    	ret

0000000100003b20 <std::__1::__compressed_pair_elem<std::__1::basic_string<char, std::__1::char_traits<char>, std::__1::allocator<char>>::__rep, 0, false>::__get[abi:ue170006]()>:
100003b20: d10043ff    	sub	sp, sp, #16
100003b24: f90007e0    	str	x0, [sp, #8]
100003b28: f94007e0    	ldr	x0, [sp, #8]
100003b2c: 910043ff    	add	sp, sp, #16
100003b30: d65f03c0    	ret

0000000100003b34 <std::__1::pointer_traits<char*>::pointer_to[abi:ue170006](char&)>:
100003b34: d10043ff    	sub	sp, sp, #16
100003b38: f90007e0    	str	x0, [sp, #8]
100003b3c: f94007e0    	ldr	x0, [sp, #8]
100003b40: 910043ff    	add	sp, sp, #16
100003b44: d65f03c0    	ret

0000000100003b48 <std::__1::ostreambuf_iterator<char, std::__1::char_traits<char>>::ostreambuf_iterator[abi:ue170006](std::__1::basic_ostream<char, std::__1::char_traits<char>>&)>:
100003b48: d100c3ff    	sub	sp, sp, #48
100003b4c: a9027bfd    	stp	x29, x30, [sp, #32]
100003b50: 910083fd    	add	x29, sp, #32
100003b54: f81f83a0    	stur	x0, [x29, #-8]
100003b58: f9000be1    	str	x1, [sp, #16]
100003b5c: f85f83a8    	ldur	x8, [x29, #-8]
100003b60: f90003e8    	str	x8, [sp]
100003b64: f9400be8    	ldr	x8, [sp, #16]
100003b68: f9400109    	ldr	x9, [x8]
100003b6c: f85e8129    	ldur	x9, [x9, #-24]
100003b70: 8b090100    	add	x0, x8, x9
100003b74: 9400000a    	bl	0x100003b9c <std::__1::basic_ios<char, std::__1::char_traits<char>>::rdbuf[abi:ue170006]() const>
100003b78: f90007e0    	str	x0, [sp, #8]
100003b7c: 14000001    	b	0x100003b80 <std::__1::ostreambuf_iterator<char, std::__1::char_traits<char>>::ostreambuf_iterator[abi:ue170006](std::__1::basic_ostream<char, std::__1::char_traits<char>>&)+0x38>
100003b80: f94003e0    	ldr	x0, [sp]
100003b84: f94007e8    	ldr	x8, [sp, #8]
100003b88: f9000008    	str	x8, [x0]
100003b8c: a9427bfd    	ldp	x29, x30, [sp, #32]
100003b90: 9100c3ff    	add	sp, sp, #48
100003b94: d65f03c0    	ret
100003b98: 97ffff02    	bl	0x1000037a0 <___clang_call_terminate>

0000000100003b9c <std::__1::basic_ios<char, std::__1::char_traits<char>>::rdbuf[abi:ue170006]() const>:
100003b9c: d10083ff    	sub	sp, sp, #32
100003ba0: a9017bfd    	stp	x29, x30, [sp, #16]
100003ba4: 910043fd    	add	x29, sp, #16
100003ba8: f90007e0    	str	x0, [sp, #8]
100003bac: f94007e0    	ldr	x0, [sp, #8]
100003bb0: 94000004    	bl	0x100003bc0 <std::__1::ios_base::rdbuf[abi:ue170006]() const>
100003bb4: a9417bfd    	ldp	x29, x30, [sp, #16]
100003bb8: 910083ff    	add	sp, sp, #32
100003bbc: d65f03c0    	ret

0000000100003bc0 <std::__1::ios_base::rdbuf[abi:ue170006]() const>:
100003bc0: d10043ff    	sub	sp, sp, #16
100003bc4: f90007e0    	str	x0, [sp, #8]
100003bc8: f94007e8    	ldr	x8, [sp, #8]
100003bcc: f9401500    	ldr	x0, [x8, #40]
100003bd0: 910043ff    	add	sp, sp, #16
100003bd4: d65f03c0    	ret

0000000100003bd8 <std::__1::char_traits<char>::eq_int_type[abi:ue170006](int, int)>:
100003bd8: d10043ff    	sub	sp, sp, #16
100003bdc: b9000fe0    	str	w0, [sp, #12]
100003be0: b9000be1    	str	w1, [sp, #8]
100003be4: b9400fe8    	ldr	w8, [sp, #12]
100003be8: b9400be9    	ldr	w9, [sp, #8]
100003bec: 6b090108    	subs	w8, w8, w9
100003bf0: 1a9f17e8    	cset	w8, eq
100003bf4: 12000100    	and	w0, w8, #0x1
100003bf8: 910043ff    	add	sp, sp, #16
100003bfc: d65f03c0    	ret

0000000100003c00 <std::__1::char_traits<char>::eof[abi:ue170006]()>:
100003c00: 12800000    	mov	w0, #-1
100003c04: d65f03c0    	ret

0000000100003c08 <std::__1::basic_ios<char, std::__1::char_traits<char>>::widen[abi:ue170006](char) const>:
100003c08: d10143ff    	sub	sp, sp, #80
100003c0c: a9047bfd    	stp	x29, x30, [sp, #64]
100003c10: 910103fd    	add	x29, sp, #64
100003c14: f81f83a0    	stur	x0, [x29, #-8]
100003c18: 381f73a1    	sturb	w1, [x29, #-9]
100003c1c: f85f83a0    	ldur	x0, [x29, #-8]
100003c20: d10063a8    	sub	x8, x29, #24
100003c24: f90007e8    	str	x8, [sp, #8]
100003c28: 94000065    	bl	0x100003dbc <_strlen+0x100003dbc>
100003c2c: f94007e0    	ldr	x0, [sp, #8]
100003c30: 94000017    	bl	0x100003c8c <std::__1::ctype<char> const& std::__1::use_facet[abi:ue170006]<std::__1::ctype<char>>(std::__1::locale const&)>
100003c34: f9000be0    	str	x0, [sp, #16]
100003c38: 14000001    	b	0x100003c3c <std::__1::basic_ios<char, std::__1::char_traits<char>>::widen[abi:ue170006](char) const+0x34>
100003c3c: f9400be0    	ldr	x0, [sp, #16]
100003c40: 38df73a1    	ldursb	w1, [x29, #-9]
100003c44: 9400001d    	bl	0x100003cb8 <std::__1::ctype<char>::widen[abi:ue170006](char) const>
100003c48: b90007e0    	str	w0, [sp, #4]
100003c4c: 14000001    	b	0x100003c50 <std::__1::basic_ios<char, std::__1::char_traits<char>>::widen[abi:ue170006](char) const+0x48>
100003c50: d10063a0    	sub	x0, x29, #24
100003c54: 94000072    	bl	0x100003e1c <_strlen+0x100003e1c>
100003c58: b94007e8    	ldr	w8, [sp, #4]
100003c5c: 13001d00    	sxtb	w0, w8
100003c60: a9447bfd    	ldp	x29, x30, [sp, #64]
100003c64: 910143ff    	add	sp, sp, #80
100003c68: d65f03c0    	ret
100003c6c: f90013e0    	str	x0, [sp, #32]
100003c70: aa0103e8    	mov	x8, x1
100003c74: b9001fe8    	str	w8, [sp, #28]
100003c78: d10063a0    	sub	x0, x29, #24
100003c7c: 94000068    	bl	0x100003e1c <_strlen+0x100003e1c>
100003c80: 14000001    	b	0x100003c84 <std::__1::basic_ios<char, std::__1::char_traits<char>>::widen[abi:ue170006](char) const+0x7c>
100003c84: f94013e0    	ldr	x0, [sp, #32]
100003c88: 94000044    	bl	0x100003d98 <_strlen+0x100003d98>

0000000100003c8c <std::__1::ctype<char> const& std::__1::use_facet[abi:ue170006]<std::__1::ctype<char>>(std::__1::locale const&)>:
100003c8c: d10083ff    	sub	sp, sp, #32
100003c90: a9017bfd    	stp	x29, x30, [sp, #16]
100003c94: 910043fd    	add	x29, sp, #16
100003c98: f90007e0    	str	x0, [sp, #8]
100003c9c: f94007e0    	ldr	x0, [sp, #8]
100003ca0: b0000001    	adrp	x1, 0x100004000 <std::__1::ctype<char> const& std::__1::use_facet[abi:ue170006]<std::__1::ctype<char>>(std::__1::locale const&)+0x18>
100003ca4: f9404021    	ldr	x1, [x1, #128]
100003ca8: 94000042    	bl	0x100003db0 <_strlen+0x100003db0>
100003cac: a9417bfd    	ldp	x29, x30, [sp, #16]
100003cb0: 910083ff    	add	sp, sp, #32
100003cb4: d65f03c0    	ret

0000000100003cb8 <std::__1::ctype<char>::widen[abi:ue170006](char) const>:
100003cb8: d10083ff    	sub	sp, sp, #32
100003cbc: a9017bfd    	stp	x29, x30, [sp, #16]
100003cc0: 910043fd    	add	x29, sp, #16
100003cc4: f90007e0    	str	x0, [sp, #8]
100003cc8: 39001fe1    	strb	w1, [sp, #7]
100003ccc: f94007e0    	ldr	x0, [sp, #8]
100003cd0: 39c01fe1    	ldrsb	w1, [sp, #7]
100003cd4: f9400008    	ldr	x8, [x0]
100003cd8: f9401d08    	ldr	x8, [x8, #56]
100003cdc: d63f0100    	blr	x8
100003ce0: 13001c00    	sxtb	w0, w0
100003ce4: a9417bfd    	ldp	x29, x30, [sp, #16]
100003ce8: 910083ff    	add	sp, sp, #32
100003cec: d65f03c0    	ret

0000000100003cf0 <std::__1::ios_base::setstate[abi:ue170006](unsigned int)>:
100003cf0: d10083ff    	sub	sp, sp, #32
100003cf4: a9017bfd    	stp	x29, x30, [sp, #16]
100003cf8: 910043fd    	add	x29, sp, #16
100003cfc: f90007e0    	str	x0, [sp, #8]
100003d00: b90007e1    	str	w1, [sp, #4]
100003d04: f94007e0    	ldr	x0, [sp, #8]
100003d08: b9402008    	ldr	w8, [x0, #32]
100003d0c: b94007e9    	ldr	w9, [sp, #4]
100003d10: 2a090101    	orr	w1, w8, w9
100003d14: 94000048    	bl	0x100003e34 <_strlen+0x100003e34>
100003d18: a9417bfd    	ldp	x29, x30, [sp, #16]
100003d1c: 910083ff    	add	sp, sp, #32
100003d20: d65f03c0    	ret

0000000100003d24 <std::__1::__constexpr_strlen[abi:ue170006](char const*)>:
100003d24: d10083ff    	sub	sp, sp, #32
100003d28: a9017bfd    	stp	x29, x30, [sp, #16]
100003d2c: 910043fd    	add	x29, sp, #16
100003d30: f90007e0    	str	x0, [sp, #8]
100003d34: f94007e0    	ldr	x0, [sp, #8]
100003d38: 9400004b    	bl	0x100003e64 <_strlen+0x100003e64>
100003d3c: a9417bfd    	ldp	x29, x30, [sp, #16]
100003d40: 910083ff    	add	sp, sp, #32
100003d44: d65f03c0    	ret

0000000100003d48 <___cxx_global_var_init>:
100003d48: b0000008    	adrp	x8, 0x100004000 <___cxx_global_var_init+0x4>
100003d4c: f9401508    	ldr	x8, [x8, #40]
100003d50: 39400108    	ldrb	w8, [x8]
100003d54: 12000108    	and	w8, w8, #0x1
100003d58: 72001d08    	ands	w8, w8, #0xff
100003d5c: 1a9f07e8    	cset	w8, ne
100003d60: 370001a8    	tbnz	w8, #0, 0x100003d94 <___cxx_global_var_init+0x4c>
100003d64: 14000001    	b	0x100003d68 <___cxx_global_var_init+0x20>
100003d68: b0000008    	adrp	x8, 0x100004000 <___cxx_global_var_init+0x24>
100003d6c: f9400908    	ldr	x8, [x8, #16]
100003d70: f9400108    	ldr	x8, [x8]
100003d74: b0000009    	adrp	x9, 0x100004000 <___cxx_global_var_init+0x30>
100003d78: f9400529    	ldr	x9, [x9, #8]
100003d7c: f9000128    	str	x8, [x9]
100003d80: 52800028    	mov	w8, #1
100003d84: b0000009    	adrp	x9, 0x100004000 <___cxx_global_var_init+0x40>
100003d88: f9401529    	ldr	x9, [x9, #40]
100003d8c: 39000128    	strb	w8, [x9]
100003d90: 14000001    	b	0x100003d94 <___cxx_global_var_init+0x4c>
100003d94: d65f03c0    	ret

Disassembly of section __TEXT,__stubs:

0000000100003d98 <__stubs>:
100003d98: b0000010    	adrp	x16, 0x100004000 <__stubs+0x4>
100003d9c: f9400210    	ldr	x16, [x16]
100003da0: d61f0200    	br	x16
100003da4: b0000010    	adrp	x16, 0x100004000 <__stubs+0x10>
100003da8: f9401210    	ldr	x16, [x16, #32]
100003dac: d61f0200    	br	x16
100003db0: b0000010    	adrp	x16, 0x100004000 <__stubs+0x1c>
100003db4: f9401a10    	ldr	x16, [x16, #48]
100003db8: d61f0200    	br	x16
100003dbc: b0000010    	adrp	x16, 0x100004000 <__stubs+0x28>
100003dc0: f9401e10    	ldr	x16, [x16, #56]
100003dc4: d61f0200    	br	x16
100003dc8: b0000010    	adrp	x16, 0x100004000 <__stubs+0x34>
100003dcc: f9402210    	ldr	x16, [x16, #64]
100003dd0: d61f0200    	br	x16
100003dd4: b0000010    	adrp	x16, 0x100004000 <__stubs+0x40>
100003dd8: f9402610    	ldr	x16, [x16, #72]
100003ddc: d61f0200    	br	x16
100003de0: b0000010    	adrp	x16, 0x100004000 <__stubs+0x4c>
100003de4: f9402a10    	ldr	x16, [x16, #80]
100003de8: d61f0200    	br	x16
100003dec: b0000010    	adrp	x16, 0x100004000 <__stubs+0x58>
100003df0: f9402e10    	ldr	x16, [x16, #88]
100003df4: d61f0200    	br	x16
100003df8: b0000010    	adrp	x16, 0x100004000 <__stubs+0x64>
100003dfc: f9403210    	ldr	x16, [x16, #96]
100003e00: d61f0200    	br	x16
100003e04: b0000010    	adrp	x16, 0x100004000 <__stubs+0x70>
100003e08: f9403610    	ldr	x16, [x16, #104]
100003e0c: d61f0200    	br	x16
100003e10: b0000010    	adrp	x16, 0x100004000 <__stubs+0x7c>
100003e14: f9403a10    	ldr	x16, [x16, #112]
100003e18: d61f0200    	br	x16
100003e1c: b0000010    	adrp	x16, 0x100004000 <__stubs+0x88>
100003e20: f9404610    	ldr	x16, [x16, #136]
100003e24: d61f0200    	br	x16
100003e28: b0000010    	adrp	x16, 0x100004000 <__stubs+0x94>
100003e2c: f9404a10    	ldr	x16, [x16, #144]
100003e30: d61f0200    	br	x16
100003e34: b0000010    	adrp	x16, 0x100004000 <__stubs+0xa0>
100003e38: f9404e10    	ldr	x16, [x16, #152]
100003e3c: d61f0200    	br	x16
100003e40: b0000010    	adrp	x16, 0x100004000 <__stubs+0xac>
100003e44: f9405210    	ldr	x16, [x16, #160]
100003e48: d61f0200    	br	x16
100003e4c: b0000010    	adrp	x16, 0x100004000 <__stubs+0xb8>
100003e50: f9405610    	ldr	x16, [x16, #168]
100003e54: d61f0200    	br	x16
100003e58: b0000010    	adrp	x16, 0x100004000 <__stubs+0xc4>
100003e5c: f9405a10    	ldr	x16, [x16, #176]
100003e60: d61f0200    	br	x16
100003e64: b0000010    	adrp	x16, 0x100004000 <__stubs+0xd0>
100003e68: f9406210    	ldr	x16, [x16, #192]
100003e6c: d61f0200    	br	x16
