---
triple:          'arm64-apple-darwin'
binary-path:     a.out
relocations:
  - { offsetInCU: 0x3C, offset: 0x3C, size: 0x8, addend: 0x0, symName: _.str, symObjAddr: 0x20AA0, symBinAddr: 0x10001B380, symSize: 0x0 }
  - { offsetInCU: 0x6D, offset: 0x6D, size: 0x8, addend: 0x0, symName: _.str.1, symObjAddr: 0x20AC0, symBinAddr: 0x10001B3A0, symSize: 0x0 }
  - { offsetInCU: 0x7F, offset: 0x7F, size: 0x8, addend: 0x0, symName: _.str.2, symObjAddr: 0x20AE0, symBinAddr: 0x10001B3C0, symSize: 0x0 }
  - { offsetInCU: 0x9C, offset: 0x9C, size: 0x8, addend: 0x0, symName: _.str.11, symObjAddr: 0x20B00, symBinAddr: 0x10001B3E0, symSize: 0x0 }
  - { offsetInCU: 0xB9, offset: 0xB9, size: 0x8, addend: 0x0, symName: _.str.12, symObjAddr: 0x20B20, symBinAddr: 0x10001B400, symSize: 0x0 }
  - { offsetInCU: 0xCA, offset: 0xCA, size: 0x8, addend: 0x0, symName: _.str.13, symObjAddr: 0x20B40, symBinAddr: 0x10001B420, symSize: 0x0 }
  - { offsetInCU: 0xDC, offset: 0xDC, size: 0x8, addend: 0x0, symName: _.str.19, symObjAddr: 0x20B60, symBinAddr: 0x10001B440, symSize: 0x0 }
  - { offsetInCU: 0xF9, offset: 0xF9, size: 0x8, addend: 0x0, symName: _.str.26, symObjAddr: 0x20B80, symBinAddr: 0x10001B460, symSize: 0x0 }
  - { offsetInCU: 0x10A, offset: 0x10A, size: 0x8, addend: 0x0, symName: _.str.27, symObjAddr: 0x20BA0, symBinAddr: 0x10001B480, symSize: 0x0 }
  - { offsetInCU: 0x11B, offset: 0x11B, size: 0x8, addend: 0x0, symName: _.str.28, symObjAddr: 0x20BC0, symBinAddr: 0x10001B4A0, symSize: 0x0 }
  - { offsetInCU: 0x7B60, offset: 0x7B60, size: 0x8, addend: 0x0, symName: __ZNSt3__124__put_character_sequenceB8ue170006IcNS_11char_traitsIcEEEERNS_13basic_ostreamIT_T0_EES7_PKS4_m, symObjAddr: 0x4694, symBinAddr: 0x100005B38, symSize: 0x978 }
  - { offsetInCU: 0xB266, offset: 0xB266, size: 0x8, addend: 0x0, symName: __ZNSt3__115allocate_sharedB8ue170006I11ExprWrapperI7SumExprENS_9allocatorIS3_EEJRKNS_10shared_ptrIK12IExprWrapperEESB_EvEENS6_IT_EERKT0_DpOT1_, symObjAddr: 0x2FFC, symBinAddr: 0x1000044A0, symSize: 0x364 }
  - { offsetInCU: 0xB784, offset: 0xB784, size: 0x8, addend: 0x0, symName: __ZNSt3__115allocate_sharedB8ue170006I11ExprWrapperI14DifferenceExprENS_9allocatorIS3_EEJRKNS_10shared_ptrIK12IExprWrapperEESB_EvEENS6_IT_EERKT0_DpOT1_, symObjAddr: 0x6BE4, symBinAddr: 0x100008088, symSize: 0x364 }
  - { offsetInCU: 0xBCA2, offset: 0xBCA2, size: 0x8, addend: 0x0, symName: __ZNSt3__115allocate_sharedB8ue170006I11ExprWrapperI11ProductExprENS_9allocatorIS3_EEJRKNS_10shared_ptrIK12IExprWrapperEESB_EvEENS6_IT_EERKT0_DpOT1_, symObjAddr: 0x86A0, symBinAddr: 0x100009B44, symSize: 0x364 }
  - { offsetInCU: 0xC1C0, offset: 0xC1C0, size: 0x8, addend: 0x0, symName: __ZNSt3__115allocate_sharedB8ue170006I11ExprWrapperI12QuotientExprENS_9allocatorIS3_EEJRKNS_10shared_ptrIK12IExprWrapperEESB_EvEENS6_IT_EERKT0_DpOT1_, symObjAddr: 0xA39C, symBinAddr: 0x10000B840, symSize: 0x364 }
  - { offsetInCU: 0xC6DE, offset: 0xC6DE, size: 0x8, addend: 0x0, symName: __ZNSt3__115allocate_sharedB8ue170006I13ParserWrapperI12ConcatParserENS_9allocatorIS3_EEJRK6ParserS8_EvEENS_10shared_ptrIT_EERKT0_DpOT1_, symObjAddr: 0xC2B4, symBinAddr: 0x10000D758, symSize: 0x364 }
  - { offsetInCU: 0xCBFC, offset: 0xCBFC, size: 0x8, addend: 0x0, symName: __ZNSt3__115allocate_sharedB8ue170006I13ParserWrapperI17AlternativeParserENS_9allocatorIS3_EEJRK6ParserS8_EvEENS_10shared_ptrIT_EERKT0_DpOT1_, symObjAddr: 0xD4B0, symBinAddr: 0x10000E954, symSize: 0x364 }
  - { offsetInCU: 0xD109, offset: 0xD109, size: 0x8, addend: 0x0, symName: __ZNSt3__115allocate_sharedB8ue170006I13ParserWrapperI10StarParserENS_9allocatorIS3_EEJRK6ParserEvEENS_10shared_ptrIT_EERKT0_DpOT1_, symObjAddr: 0xE4E8, symBinAddr: 0x10000F98C, symSize: 0x35C }
  - { offsetInCU: 0xD855, offset: 0xD855, size: 0x8, addend: 0x0, symName: __ZNSt3__115allocate_sharedB8ue170006I11ExprWrapperI7VarExprENS_9allocatorIS3_EEJRA4_KcEvEENS_10shared_ptrIT_EERKT0_DpOT1_, symObjAddr: 0xF3B0, symBinAddr: 0x100010854, symSize: 0x35C }
  - { offsetInCU: 0xDAF2, offset: 0xDAF2, size: 0x8, addend: 0x0, symName: __ZNSt3__14endlB8ue170006IcNS_11char_traitsIcEEEERNS_13basic_ostreamIT_T0_EES7_, symObjAddr: 0x2748, symBinAddr: 0x100003BEC, symSize: 0x210 }
  - { offsetInCU: 0xDB46, offset: 0xDB46, size: 0x8, addend: 0x0, symName: __ZNSt3__115allocate_sharedB8ue170006I13ParserWrapperI15CharRangeParserENS_9allocatorIS3_EEJccEvEENS_10shared_ptrIT_EERKT0_DpOT1_, symObjAddr: 0x14CDC, symBinAddr: 0x100016180, symSize: 0x364 }
  - { offsetInCU: 0xE2F0, offset: 0xE2F0, size: 0x8, addend: 0x0, symName: __ZNSt3__116__pad_and_outputB8ue170006IcNS_11char_traitsIcEEEENS_19ostreambuf_iteratorIT_T0_EES6_PKS4_S8_S8_RNS_8ios_baseES4_, symObjAddr: 0x500C, symBinAddr: 0x1000064B0, symSize: 0x89C }
  - { offsetInCU: 0x1071F, offset: 0x1071F, size: 0x8, addend: 0x0, symName: __ZNSt3__115allocate_sharedB8ue170006I11ExprWrapperI7ValExprENS_9allocatorIS3_EEJdEvEENS_10shared_ptrIT_EERKT0_DpOT1_, symObjAddr: 0x107B4, symBinAddr: 0x100011C58, symSize: 0x35C }
  - { offsetInCU: 0x114F4, offset: 0x114F4, size: 0x8, addend: 0x0, symName: __ZSt28__throw_bad_array_new_lengthB8ue170006v, symObjAddr: 0x3494, symBinAddr: 0x100004938, symSize: 0x58 }
  - { offsetInCU: 0x15806, offset: 0x15806, size: 0x8, addend: 0x0, symName: __ZlsRNSt3__113basic_ostreamIcNS_11char_traitsIcEEEERKNS_10shared_ptrIK12IExprWrapperEE, symObjAddr: 0x0, symBinAddr: 0x1000014A4, symSize: 0x128 }
  - { offsetInCU: 0x1586E, offset: 0x1586E, size: 0x8, addend: 0x0, symName: __ZplRKNSt3__110shared_ptrIK12IExprWrapperEES5_, symObjAddr: 0x128, symBinAddr: 0x1000015CC, symSize: 0x4 }
  - { offsetInCU: 0x15894, offset: 0x15894, size: 0x8, addend: 0x0, symName: __ZplRKNSt3__110shared_ptrIK12IExprWrapperEES5_, symObjAddr: 0x128, symBinAddr: 0x1000015CC, symSize: 0x4 }
  - { offsetInCU: 0x158B5, offset: 0x158B5, size: 0x8, addend: 0x0, symName: __Z9make_exprI7SumExprJRKNSt3__110shared_ptrIK12IExprWrapperEES7_EES5_DpOT0_, symObjAddr: 0x12C, symBinAddr: 0x1000015D0, symSize: 0x240 }
  - { offsetInCU: 0x15A6D, offset: 0x15A6D, size: 0x8, addend: 0x0, symName: __ZNSt3__110shared_ptrI11ExprWrapperI7SumExprEED2B8ue170006Ev, symObjAddr: 0x6AE8, symBinAddr: 0x100007F8C, symSize: 0xFC }
  - { offsetInCU: 0x15AA5, offset: 0x15AA5, size: 0x8, addend: 0x0, symName: __ZmiRKNSt3__110shared_ptrIK12IExprWrapperEES5_, symObjAddr: 0x36C, symBinAddr: 0x100001810, symSize: 0x4 }
  - { offsetInCU: 0x15ACB, offset: 0x15ACB, size: 0x8, addend: 0x0, symName: __ZmiRKNSt3__110shared_ptrIK12IExprWrapperEES5_, symObjAddr: 0x36C, symBinAddr: 0x100001810, symSize: 0x4 }
  - { offsetInCU: 0x15AEC, offset: 0x15AEC, size: 0x8, addend: 0x0, symName: __Z9make_exprI14DifferenceExprJRKNSt3__110shared_ptrIK12IExprWrapperEES7_EES5_DpOT0_, symObjAddr: 0x370, symBinAddr: 0x100001814, symSize: 0x240 }
  - { offsetInCU: 0x15C6D, offset: 0x15C6D, size: 0x8, addend: 0x0, symName: __ZNSt3__110shared_ptrI11ExprWrapperI14DifferenceExprEED2B8ue170006Ev, symObjAddr: 0x85A4, symBinAddr: 0x100009A48, symSize: 0xFC }
  - { offsetInCU: 0x15CA5, offset: 0x15CA5, size: 0x8, addend: 0x0, symName: __ZmlRKNSt3__110shared_ptrIK12IExprWrapperEES5_, symObjAddr: 0x5B0, symBinAddr: 0x100001A54, symSize: 0x4 }
  - { offsetInCU: 0x15CCB, offset: 0x15CCB, size: 0x8, addend: 0x0, symName: __ZmlRKNSt3__110shared_ptrIK12IExprWrapperEES5_, symObjAddr: 0x5B0, symBinAddr: 0x100001A54, symSize: 0x4 }
  - { offsetInCU: 0x15CEC, offset: 0x15CEC, size: 0x8, addend: 0x0, symName: __Z9make_exprI11ProductExprJRKNSt3__110shared_ptrIK12IExprWrapperEES7_EES5_DpOT0_, symObjAddr: 0x5B4, symBinAddr: 0x100001A58, symSize: 0x240 }
  - { offsetInCU: 0x15E6D, offset: 0x15E6D, size: 0x8, addend: 0x0, symName: __ZNSt3__110shared_ptrI11ExprWrapperI11ProductExprEED2B8ue170006Ev, symObjAddr: 0xA2A0, symBinAddr: 0x10000B744, symSize: 0xFC }
  - { offsetInCU: 0x15EA5, offset: 0x15EA5, size: 0x8, addend: 0x0, symName: __ZdvRKNSt3__110shared_ptrIK12IExprWrapperEES5_, symObjAddr: 0x7F4, symBinAddr: 0x100001C98, symSize: 0x4 }
  - { offsetInCU: 0x15ECB, offset: 0x15ECB, size: 0x8, addend: 0x0, symName: __ZdvRKNSt3__110shared_ptrIK12IExprWrapperEES5_, symObjAddr: 0x7F4, symBinAddr: 0x100001C98, symSize: 0x4 }
  - { offsetInCU: 0x15EEC, offset: 0x15EEC, size: 0x8, addend: 0x0, symName: __Z9make_exprI12QuotientExprJRKNSt3__110shared_ptrIK12IExprWrapperEES7_EES5_DpOT0_, symObjAddr: 0x7F8, symBinAddr: 0x100001C9C, symSize: 0x240 }
  - { offsetInCU: 0x1606D, offset: 0x1606D, size: 0x8, addend: 0x0, symName: __ZNSt3__110shared_ptrI11ExprWrapperI12QuotientExprEED2B8ue170006Ev, symObjAddr: 0xC1B8, symBinAddr: 0x10000D65C, symSize: 0xFC }
  - { offsetInCU: 0x160A5, offset: 0x160A5, size: 0x8, addend: 0x0, symName: __ZanRK6ParserS1_, symObjAddr: 0xA38, symBinAddr: 0x100001EDC, symSize: 0x4 }
  - { offsetInCU: 0x160CB, offset: 0x160CB, size: 0x8, addend: 0x0, symName: __ZanRK6ParserS1_, symObjAddr: 0xA38, symBinAddr: 0x100001EDC, symSize: 0x4 }
  - { offsetInCU: 0x160EC, offset: 0x160EC, size: 0x8, addend: 0x0, symName: __Z11make_parserI12ConcatParserJRK6ParserS3_EES1_DpOT0_, symObjAddr: 0xA3C, symBinAddr: 0x100001EE0, symSize: 0x240 }
  - { offsetInCU: 0x16281, offset: 0x16281, size: 0x8, addend: 0x0, symName: __ZNSt3__110shared_ptrI13ParserWrapperI12ConcatParserEED2B8ue170006Ev, symObjAddr: 0xD3B4, symBinAddr: 0x10000E858, symSize: 0xFC }
  - { offsetInCU: 0x162B9, offset: 0x162B9, size: 0x8, addend: 0x0, symName: __ZorRK6ParserS1_, symObjAddr: 0xC7C, symBinAddr: 0x100002120, symSize: 0x4 }
  - { offsetInCU: 0x162DF, offset: 0x162DF, size: 0x8, addend: 0x0, symName: __ZorRK6ParserS1_, symObjAddr: 0xC7C, symBinAddr: 0x100002120, symSize: 0x4 }
  - { offsetInCU: 0x16300, offset: 0x16300, size: 0x8, addend: 0x0, symName: __Z11make_parserI17AlternativeParserJRK6ParserS3_EES1_DpOT0_, symObjAddr: 0xC80, symBinAddr: 0x100002124, symSize: 0x240 }
  - { offsetInCU: 0x16484, offset: 0x16484, size: 0x8, addend: 0x0, symName: __ZNSt3__110shared_ptrI13ParserWrapperI17AlternativeParserEED2B8ue170006Ev, symObjAddr: 0xE3EC, symBinAddr: 0x10000F890, symSize: 0xFC }
  - { offsetInCU: 0x164BC, offset: 0x164BC, size: 0x8, addend: 0x0, symName: __ZcoRK6Parser, symObjAddr: 0xEC0, symBinAddr: 0x100002364, symSize: 0x4 }
  - { offsetInCU: 0x164DB, offset: 0x164DB, size: 0x8, addend: 0x0, symName: __ZcoRK6Parser, symObjAddr: 0xEC0, symBinAddr: 0x100002364, symSize: 0x4 }
  - { offsetInCU: 0x164F5, offset: 0x164F5, size: 0x8, addend: 0x0, symName: __Z11make_parserI10StarParserJRK6ParserEES1_DpOT0_, symObjAddr: 0xEC4, symBinAddr: 0x100002368, symSize: 0x230 }
  - { offsetInCU: 0x16663, offset: 0x16663, size: 0x8, addend: 0x0, symName: __ZNSt3__110shared_ptrI13ParserWrapperI10StarParserEED2B8ue170006Ev, symObjAddr: 0xF2B4, symBinAddr: 0x100010758, symSize: 0xFC }
  - { offsetInCU: 0x16B6B, offset: 0x16B6B, size: 0x8, addend: 0x0, symName: _main, symObjAddr: 0x10F4, symBinAddr: 0x100002598, symSize: 0x1654 }
  - { offsetInCU: 0x17ECF, offset: 0x17ECF, size: 0x8, addend: 0x0, symName: __ZNSt3__110shared_ptrI11ExprWrapperI7VarExprEED2B8ue170006Ev, symObjAddr: 0x14BE0, symBinAddr: 0x100016084, symSize: 0xFC }
  - { offsetInCU: 0x17F07, offset: 0x17F07, size: 0x8, addend: 0x0, symName: __ZNSt3__110shared_ptrIK12IExprWrapperED2B8ue170006Ev, symObjAddr: 0x2F00, symBinAddr: 0x1000043A4, symSize: 0xFC }
  - { offsetInCU: 0x17F3F, offset: 0x17F3F, size: 0x8, addend: 0x0, symName: __ZNSt3__110shared_ptrI13ParserWrapperI15CharRangeParserEED2B8ue170006Ev, symObjAddr: 0x15B34, symBinAddr: 0x100016FD8, symSize: 0xFC }
  - { offsetInCU: 0x17F77, offset: 0x17F77, size: 0x8, addend: 0x0, symName: __ZNSt3__110shared_ptrI14IParserWrapperI6ParserEED2B8ue170006Ev, symObjAddr: 0x29C4, symBinAddr: 0x100003E68, symSize: 0xFC }
  - { offsetInCU: 0x17FAF, offset: 0x17FAF, size: 0x8, addend: 0x0, symName: __ZN6Parser10parse_implERPKcS1_, symObjAddr: 0x2DB8, symBinAddr: 0x10000425C, symSize: 0x148 }
  - { offsetInCU: 0x18019, offset: 0x18019, size: 0x8, addend: 0x0, symName: __ZN6ParserD1Ev, symObjAddr: 0x2988, symBinAddr: 0x100003E2C, symSize: 0x30 }
  - { offsetInCU: 0x18083, offset: 0x18083, size: 0x8, addend: 0x0, symName: __ZNSt3__110shared_ptrIK12IExprWrapperED1B8ue170006Ev, symObjAddr: 0x2958, symBinAddr: 0x100003DFC, symSize: 0x30 }
  - { offsetInCU: 0x180B3, offset: 0x180B3, size: 0x8, addend: 0x0, symName: __ZNKSt3__19basic_iosIcNS_11char_traitsIcEEE5widenB8ue170006Ec, symObjAddr: 0x5F84, symBinAddr: 0x100007428, symSize: 0x3B0 }
  - { offsetInCU: 0x18132, offset: 0x18132, size: 0x8, addend: 0x0, symName: __ZNSt3__119__shared_weak_count16__release_sharedB8ue170006Ev, symObjAddr: 0x2AC0, symBinAddr: 0x100003F64, symSize: 0x128 }
  - { offsetInCU: 0x18181, offset: 0x18181, size: 0x8, addend: 0x0, symName: __ZNSt3__114__shared_count16__release_sharedB8ue170006Ev, symObjAddr: 0x2BE8, symBinAddr: 0x10000408C, symSize: 0x1D0 }
  - { offsetInCU: 0x1842F, offset: 0x1842F, size: 0x8, addend: 0x0, symName: __ZNSt3__120__shared_ptr_emplaceI11ExprWrapperI7SumExprENS_9allocatorIS3_EEEC2B8ue170006IJRKNS_10shared_ptrIK12IExprWrapperEESD_EEES5_DpOT_, symObjAddr: 0x34EC, symBinAddr: 0x100004990, symSize: 0x1D0 }
  - { offsetInCU: 0x185E4, offset: 0x185E4, size: 0x8, addend: 0x0, symName: __ZNSt3__120__shared_ptr_emplaceI11ExprWrapperI7SumExprENS_9allocatorIS3_EEE10__get_elemB8ue170006Ev, symObjAddr: 0x3360, symBinAddr: 0x100004804, symSize: 0xC8 }
  - { offsetInCU: 0x1860B, offset: 0x1860B, size: 0x8, addend: 0x0, symName: __ZNSt3__118__allocation_guardINS_9allocatorINS_20__shared_ptr_emplaceI11ExprWrapperI7SumExprENS1_IS5_EEEEEEED1B8ue170006Ev, symObjAddr: 0x3428, symBinAddr: 0x1000048CC, symSize: 0x6C }
  - { offsetInCU: 0x18814, offset: 0x18814, size: 0x8, addend: 0x0, symName: __ZNSt3__120__shared_ptr_emplaceI11ExprWrapperI7SumExprENS_9allocatorIS3_EEE11__get_allocB8ue170006Ev, symObjAddr: 0x36BC, symBinAddr: 0x100004B60, symSize: 0xC8 }
  - { offsetInCU: 0x1883B, offset: 0x1883B, size: 0x8, addend: 0x0, symName: __ZN11ExprWrapperI7SumExprEC2IJRKNSt3__110shared_ptrIK12IExprWrapperEES9_EEEDpOT_, symObjAddr: 0x3B9C, symBinAddr: 0x100005040, symSize: 0xBC }
  - { offsetInCU: 0x18936, offset: 0x18936, size: 0x8, addend: 0x0, symName: __ZNSt3__120__shared_ptr_emplaceI11ExprWrapperI7SumExprENS_9allocatorIS3_EEED1Ev, symObjAddr: 0x3784, symBinAddr: 0x100004C28, symSize: 0x80 }
  - { offsetInCU: 0x189A9, offset: 0x189A9, size: 0x8, addend: 0x0, symName: __ZNSt3__120__shared_ptr_emplaceI11ExprWrapperI7SumExprENS_9allocatorIS3_EEED0Ev, symObjAddr: 0x3804, symBinAddr: 0x100004CA8, symSize: 0x8C }
  - { offsetInCU: 0x18A4A, offset: 0x18A4A, size: 0x8, addend: 0x0, symName: __ZNSt3__120__shared_ptr_emplaceI11ExprWrapperI7SumExprENS_9allocatorIS3_EEE16__on_zero_sharedEv, symObjAddr: 0x3890, symBinAddr: 0x100004D34, symSize: 0x1D4 }
  - { offsetInCU: 0x18B22, offset: 0x18B22, size: 0x8, addend: 0x0, symName: __ZNSt3__120__shared_ptr_emplaceI11ExprWrapperI7SumExprENS_9allocatorIS3_EEE21__on_zero_shared_weakEv, symObjAddr: 0x3A64, symBinAddr: 0x100004F08, symSize: 0x138 }
  - { offsetInCU: 0x18C6F, offset: 0x18C6F, size: 0x8, addend: 0x0, symName: __ZNSt3__110shared_ptrIK12IExprWrapperEC2B8ue170006ERKS3_, symObjAddr: 0x410C, symBinAddr: 0x1000055B0, symSize: 0x1C4 }
  - { offsetInCU: 0x18D2E, offset: 0x18D2E, size: 0x8, addend: 0x0, symName: __ZN11ExprWrapperI7SumExprED1Ev, symObjAddr: 0x3C58, symBinAddr: 0x1000050FC, symSize: 0xB4 }
  - { offsetInCU: 0x18E01, offset: 0x18E01, size: 0x8, addend: 0x0, symName: __ZN11ExprWrapperI7SumExprED0Ev, symObjAddr: 0x3D0C, symBinAddr: 0x1000051B0, symSize: 0xB4 }
  - { offsetInCU: 0x18ED9, offset: 0x18ED9, size: 0x8, addend: 0x0, symName: __ZNK11ExprWrapperI7SumExprE5printERNSt3__113basic_ostreamIcNS2_11char_traitsIcEEEE, symObjAddr: 0x3DC0, symBinAddr: 0x100005264, symSize: 0xD4 }
  - { offsetInCU: 0x18F1E, offset: 0x18F1E, size: 0x8, addend: 0x0, symName: __ZNK7SumExpr5printERNSt3__113basic_ostreamIcNS0_11char_traitsIcEEEE, symObjAddr: 0x43C0, symBinAddr: 0x100005864, symSize: 0x2D4 }
  - { offsetInCU: 0x19123, offset: 0x19123, size: 0x8, addend: 0x0, symName: __ZNK11ExprWrapperI7SumExprE8strengthEv, symObjAddr: 0x3E94, symBinAddr: 0x100005338, symSize: 0xC8 }
  - { offsetInCU: 0x1914A, offset: 0x1914A, size: 0x8, addend: 0x0, symName: __ZNK11ExprWrapperI7SumExprE18partial_derivativeERKNSt3__117basic_string_viewIcNS2_11char_traitsIcEEEE, symObjAddr: 0x3F5C, symBinAddr: 0x100005400, symSize: 0xDC }
  - { offsetInCU: 0x1918F, offset: 0x1918F, size: 0x8, addend: 0x0, symName: __ZNK7SumExpr18partial_derivativeERKNSt3__117basic_string_viewIcNS0_11char_traitsIcEEEE, symObjAddr: 0x64B4, symBinAddr: 0x100007958, symSize: 0x408 }
  - { offsetInCU: 0x192F4, offset: 0x192F4, size: 0x8, addend: 0x0, symName: __ZNK11ExprWrapperI7SumExprE13get_all_namesERNSt3__113unordered_setINS2_17basic_string_viewIcNS2_11char_traitsIcEEEENS2_4hashIS7_EENS2_8equal_toIS7_EENS2_9allocatorIS7_EEEE, symObjAddr: 0x4038, symBinAddr: 0x1000054DC, symSize: 0xD4 }
  - { offsetInCU: 0x19339, offset: 0x19339, size: 0x8, addend: 0x0, symName: __ZNK7SumExpr13get_all_namesERNSt3__113unordered_setINS0_17basic_string_viewIcNS0_11char_traitsIcEEEENS0_4hashIS5_EENS0_8equal_toIS5_EENS0_9allocatorIS5_EEEE, symObjAddr: 0x68BC, symBinAddr: 0x100007D60, symSize: 0x22C }
  - { offsetInCU: 0x193DE, offset: 0x193DE, size: 0x8, addend: 0x0, symName: __ZNSt3__114__shared_count12__add_sharedB8ue170006Ev, symObjAddr: 0x42D0, symBinAddr: 0x100005774, symSize: 0xF0 }
  - { offsetInCU: 0x194CB, offset: 0x194CB, size: 0x8, addend: 0x0, symName: __ZNSt3__119ostreambuf_iteratorIcNS_11char_traitsIcEEEC2B8ue170006ERNS_13basic_ostreamIcS2_EE, symObjAddr: 0x5C80, symBinAddr: 0x100007124, symSize: 0x1BC }
  - { offsetInCU: 0x19513, offset: 0x19513, size: 0x8, addend: 0x0, symName: __ZNKSt3__19basic_iosIcNS_11char_traitsIcEEE4fillB8ue170006Ev, symObjAddr: 0x58A8, symBinAddr: 0x100006D4C, symSize: 0x244 }
  - { offsetInCU: 0x19556, offset: 0x19556, size: 0x8, addend: 0x0, symName: __ZNSt3__18ios_base8setstateB8ue170006Ej, symObjAddr: 0x6334, symBinAddr: 0x1000077D8, symSize: 0x180 }
  - { offsetInCU: 0x1972D, offset: 0x1972D, size: 0x8, addend: 0x0, symName: __ZNSt3__18ios_base5widthB8ue170006El, symObjAddr: 0x5AEC, symBinAddr: 0x100006F90, symSize: 0x194 }
  - { offsetInCU: 0x19776, offset: 0x19776, size: 0x8, addend: 0x0, symName: __ZNKSt3__19basic_iosIcNS_11char_traitsIcEEE5rdbufB8ue170006Ev, symObjAddr: 0x5E3C, symBinAddr: 0x1000072E0, symSize: 0x148 }
  - { offsetInCU: 0x19AA6, offset: 0x19AA6, size: 0x8, addend: 0x0, symName: __ZNSt3__120__shared_ptr_emplaceI11ExprWrapperI14DifferenceExprENS_9allocatorIS3_EEEC2B8ue170006IJRKNS_10shared_ptrIK12IExprWrapperEESD_EEES5_DpOT_, symObjAddr: 0x707C, symBinAddr: 0x100008520, symSize: 0x1D0 }
  - { offsetInCU: 0x19C5B, offset: 0x19C5B, size: 0x8, addend: 0x0, symName: __ZNSt3__120__shared_ptr_emplaceI11ExprWrapperI14DifferenceExprENS_9allocatorIS3_EEE10__get_elemB8ue170006Ev, symObjAddr: 0x6F48, symBinAddr: 0x1000083EC, symSize: 0xC8 }
  - { offsetInCU: 0x19C82, offset: 0x19C82, size: 0x8, addend: 0x0, symName: __ZNSt3__118__allocation_guardINS_9allocatorINS_20__shared_ptr_emplaceI11ExprWrapperI14DifferenceExprENS1_IS5_EEEEEEED1B8ue170006Ev, symObjAddr: 0x7010, symBinAddr: 0x1000084B4, symSize: 0x6C }
  - { offsetInCU: 0x19E3B, offset: 0x19E3B, size: 0x8, addend: 0x0, symName: __ZNSt3__120__shared_ptr_emplaceI11ExprWrapperI14DifferenceExprENS_9allocatorIS3_EEE11__get_allocB8ue170006Ev, symObjAddr: 0x724C, symBinAddr: 0x1000086F0, symSize: 0xC8 }
  - { offsetInCU: 0x19E62, offset: 0x19E62, size: 0x8, addend: 0x0, symName: __ZN11ExprWrapperI14DifferenceExprEC2IJRKNSt3__110shared_ptrIK12IExprWrapperEES9_EEEDpOT_, symObjAddr: 0x772C, symBinAddr: 0x100008BD0, symSize: 0xBC }
  - { offsetInCU: 0x19F5D, offset: 0x19F5D, size: 0x8, addend: 0x0, symName: __ZNSt3__120__shared_ptr_emplaceI11ExprWrapperI14DifferenceExprENS_9allocatorIS3_EEED1Ev, symObjAddr: 0x7314, symBinAddr: 0x1000087B8, symSize: 0x80 }
  - { offsetInCU: 0x19FD0, offset: 0x19FD0, size: 0x8, addend: 0x0, symName: __ZNSt3__120__shared_ptr_emplaceI11ExprWrapperI14DifferenceExprENS_9allocatorIS3_EEED0Ev, symObjAddr: 0x7394, symBinAddr: 0x100008838, symSize: 0x8C }
  - { offsetInCU: 0x1A071, offset: 0x1A071, size: 0x8, addend: 0x0, symName: __ZNSt3__120__shared_ptr_emplaceI11ExprWrapperI14DifferenceExprENS_9allocatorIS3_EEE16__on_zero_sharedEv, symObjAddr: 0x7420, symBinAddr: 0x1000088C4, symSize: 0x1D4 }
  - { offsetInCU: 0x1A149, offset: 0x1A149, size: 0x8, addend: 0x0, symName: __ZNSt3__120__shared_ptr_emplaceI11ExprWrapperI14DifferenceExprENS_9allocatorIS3_EEE21__on_zero_shared_weakEv, symObjAddr: 0x75F4, symBinAddr: 0x100008A98, symSize: 0x138 }
  - { offsetInCU: 0x1A2D0, offset: 0x1A2D0, size: 0x8, addend: 0x0, symName: __ZN11ExprWrapperI14DifferenceExprED1Ev, symObjAddr: 0x77E8, symBinAddr: 0x100008C8C, symSize: 0xB4 }
  - { offsetInCU: 0x1A3A3, offset: 0x1A3A3, size: 0x8, addend: 0x0, symName: __ZN11ExprWrapperI14DifferenceExprED0Ev, symObjAddr: 0x789C, symBinAddr: 0x100008D40, symSize: 0xB4 }
  - { offsetInCU: 0x1A47B, offset: 0x1A47B, size: 0x8, addend: 0x0, symName: __ZNK11ExprWrapperI14DifferenceExprE5printERNSt3__113basic_ostreamIcNS2_11char_traitsIcEEEE, symObjAddr: 0x7950, symBinAddr: 0x100008DF4, symSize: 0xD4 }
  - { offsetInCU: 0x1A4C0, offset: 0x1A4C0, size: 0x8, addend: 0x0, symName: __ZNK14DifferenceExpr5printERNSt3__113basic_ostreamIcNS0_11char_traitsIcEEEE, symObjAddr: 0x7C9C, symBinAddr: 0x100009140, symSize: 0x2D4 }
  - { offsetInCU: 0x1A6C5, offset: 0x1A6C5, size: 0x8, addend: 0x0, symName: __ZNK11ExprWrapperI14DifferenceExprE8strengthEv, symObjAddr: 0x7A24, symBinAddr: 0x100008EC8, symSize: 0xC8 }
  - { offsetInCU: 0x1A6EC, offset: 0x1A6EC, size: 0x8, addend: 0x0, symName: __ZNK11ExprWrapperI14DifferenceExprE18partial_derivativeERKNSt3__117basic_string_viewIcNS2_11char_traitsIcEEEE, symObjAddr: 0x7AEC, symBinAddr: 0x100008F90, symSize: 0xDC }
  - { offsetInCU: 0x1A731, offset: 0x1A731, size: 0x8, addend: 0x0, symName: __ZNK14DifferenceExpr18partial_derivativeERKNSt3__117basic_string_viewIcNS0_11char_traitsIcEEEE, symObjAddr: 0x7F70, symBinAddr: 0x100009414, symSize: 0x408 }
  - { offsetInCU: 0x1A896, offset: 0x1A896, size: 0x8, addend: 0x0, symName: __ZNK11ExprWrapperI14DifferenceExprE13get_all_namesERNSt3__113unordered_setINS2_17basic_string_viewIcNS2_11char_traitsIcEEEENS2_4hashIS7_EENS2_8equal_toIS7_EENS2_9allocatorIS7_EEEE, symObjAddr: 0x7BC8, symBinAddr: 0x10000906C, symSize: 0xD4 }
  - { offsetInCU: 0x1A8DB, offset: 0x1A8DB, size: 0x8, addend: 0x0, symName: __ZNK14DifferenceExpr13get_all_namesERNSt3__113unordered_setINS0_17basic_string_viewIcNS0_11char_traitsIcEEEENS0_4hashIS5_EENS0_8equal_toIS5_EENS0_9allocatorIS5_EEEE, symObjAddr: 0x8378, symBinAddr: 0x10000981C, symSize: 0x22C }
  - { offsetInCU: 0x1ABD8, offset: 0x1ABD8, size: 0x8, addend: 0x0, symName: __ZNSt3__120__shared_ptr_emplaceI11ExprWrapperI11ProductExprENS_9allocatorIS3_EEEC2B8ue170006IJRKNS_10shared_ptrIK12IExprWrapperEESD_EEES5_DpOT_, symObjAddr: 0x8B38, symBinAddr: 0x100009FDC, symSize: 0x1D0 }
  - { offsetInCU: 0x1AD8D, offset: 0x1AD8D, size: 0x8, addend: 0x0, symName: __ZNSt3__120__shared_ptr_emplaceI11ExprWrapperI11ProductExprENS_9allocatorIS3_EEE10__get_elemB8ue170006Ev, symObjAddr: 0x8A04, symBinAddr: 0x100009EA8, symSize: 0xC8 }
  - { offsetInCU: 0x1ADB4, offset: 0x1ADB4, size: 0x8, addend: 0x0, symName: __ZNSt3__118__allocation_guardINS_9allocatorINS_20__shared_ptr_emplaceI11ExprWrapperI11ProductExprENS1_IS5_EEEEEEED1B8ue170006Ev, symObjAddr: 0x8ACC, symBinAddr: 0x100009F70, symSize: 0x6C }
  - { offsetInCU: 0x1AF6D, offset: 0x1AF6D, size: 0x8, addend: 0x0, symName: __ZNSt3__120__shared_ptr_emplaceI11ExprWrapperI11ProductExprENS_9allocatorIS3_EEE11__get_allocB8ue170006Ev, symObjAddr: 0x8D08, symBinAddr: 0x10000A1AC, symSize: 0xC8 }
  - { offsetInCU: 0x1AF94, offset: 0x1AF94, size: 0x8, addend: 0x0, symName: __ZN11ExprWrapperI11ProductExprEC2IJRKNSt3__110shared_ptrIK12IExprWrapperEES9_EEEDpOT_, symObjAddr: 0x91E8, symBinAddr: 0x10000A68C, symSize: 0xBC }
  - { offsetInCU: 0x1B08F, offset: 0x1B08F, size: 0x8, addend: 0x0, symName: __ZNSt3__120__shared_ptr_emplaceI11ExprWrapperI11ProductExprENS_9allocatorIS3_EEED1Ev, symObjAddr: 0x8DD0, symBinAddr: 0x10000A274, symSize: 0x80 }
  - { offsetInCU: 0x1B102, offset: 0x1B102, size: 0x8, addend: 0x0, symName: __ZNSt3__120__shared_ptr_emplaceI11ExprWrapperI11ProductExprENS_9allocatorIS3_EEED0Ev, symObjAddr: 0x8E50, symBinAddr: 0x10000A2F4, symSize: 0x8C }
  - { offsetInCU: 0x1B1A3, offset: 0x1B1A3, size: 0x8, addend: 0x0, symName: __ZNSt3__120__shared_ptr_emplaceI11ExprWrapperI11ProductExprENS_9allocatorIS3_EEE16__on_zero_sharedEv, symObjAddr: 0x8EDC, symBinAddr: 0x10000A380, symSize: 0x1D4 }
  - { offsetInCU: 0x1B27B, offset: 0x1B27B, size: 0x8, addend: 0x0, symName: __ZNSt3__120__shared_ptr_emplaceI11ExprWrapperI11ProductExprENS_9allocatorIS3_EEE21__on_zero_shared_weakEv, symObjAddr: 0x90B0, symBinAddr: 0x10000A554, symSize: 0x138 }
  - { offsetInCU: 0x1B402, offset: 0x1B402, size: 0x8, addend: 0x0, symName: __ZN11ExprWrapperI11ProductExprED1Ev, symObjAddr: 0x92A4, symBinAddr: 0x10000A748, symSize: 0xB4 }
  - { offsetInCU: 0x1B4D5, offset: 0x1B4D5, size: 0x8, addend: 0x0, symName: __ZN11ExprWrapperI11ProductExprED0Ev, symObjAddr: 0x9358, symBinAddr: 0x10000A7FC, symSize: 0xB4 }
  - { offsetInCU: 0x1B5AD, offset: 0x1B5AD, size: 0x8, addend: 0x0, symName: __ZNK11ExprWrapperI11ProductExprE5printERNSt3__113basic_ostreamIcNS2_11char_traitsIcEEEE, symObjAddr: 0x940C, symBinAddr: 0x10000A8B0, symSize: 0xD4 }
  - { offsetInCU: 0x1B5F2, offset: 0x1B5F2, size: 0x8, addend: 0x0, symName: __ZNK11ProductExpr5printERNSt3__113basic_ostreamIcNS0_11char_traitsIcEEEE, symObjAddr: 0x9758, symBinAddr: 0x10000ABFC, symSize: 0x2D4 }
  - { offsetInCU: 0x1B7F7, offset: 0x1B7F7, size: 0x8, addend: 0x0, symName: __ZNK11ExprWrapperI11ProductExprE8strengthEv, symObjAddr: 0x94E0, symBinAddr: 0x10000A984, symSize: 0xC8 }
  - { offsetInCU: 0x1B81E, offset: 0x1B81E, size: 0x8, addend: 0x0, symName: __ZNK11ExprWrapperI11ProductExprE18partial_derivativeERKNSt3__117basic_string_viewIcNS2_11char_traitsIcEEEE, symObjAddr: 0x95A8, symBinAddr: 0x10000AA4C, symSize: 0xDC }
  - { offsetInCU: 0x1B863, offset: 0x1B863, size: 0x8, addend: 0x0, symName: __ZNK11ProductExpr18partial_derivativeERKNSt3__117basic_string_viewIcNS0_11char_traitsIcEEEE, symObjAddr: 0x9A2C, symBinAddr: 0x10000AED0, symSize: 0x648 }
  - { offsetInCU: 0x1BC45, offset: 0x1BC45, size: 0x8, addend: 0x0, symName: __ZNK11ExprWrapperI11ProductExprE13get_all_namesERNSt3__113unordered_setINS2_17basic_string_viewIcNS2_11char_traitsIcEEEENS2_4hashIS7_EENS2_8equal_toIS7_EENS2_9allocatorIS7_EEEE, symObjAddr: 0x9684, symBinAddr: 0x10000AB28, symSize: 0xD4 }
  - { offsetInCU: 0x1BC8A, offset: 0x1BC8A, size: 0x8, addend: 0x0, symName: __ZNK11ProductExpr13get_all_namesERNSt3__113unordered_setINS0_17basic_string_viewIcNS0_11char_traitsIcEEEENS0_4hashIS5_EENS0_8equal_toIS5_EENS0_9allocatorIS5_EEEE, symObjAddr: 0xA074, symBinAddr: 0x10000B518, symSize: 0x22C }
  - { offsetInCU: 0x1BFC7, offset: 0x1BFC7, size: 0x8, addend: 0x0, symName: __ZNSt3__120__shared_ptr_emplaceI11ExprWrapperI12QuotientExprENS_9allocatorIS3_EEEC2B8ue170006IJRKNS_10shared_ptrIK12IExprWrapperEESD_EEES5_DpOT_, symObjAddr: 0xA834, symBinAddr: 0x10000BCD8, symSize: 0x1D0 }
  - { offsetInCU: 0x1C17C, offset: 0x1C17C, size: 0x8, addend: 0x0, symName: __ZNSt3__120__shared_ptr_emplaceI11ExprWrapperI12QuotientExprENS_9allocatorIS3_EEE10__get_elemB8ue170006Ev, symObjAddr: 0xA700, symBinAddr: 0x10000BBA4, symSize: 0xC8 }
  - { offsetInCU: 0x1C1A3, offset: 0x1C1A3, size: 0x8, addend: 0x0, symName: __ZNSt3__118__allocation_guardINS_9allocatorINS_20__shared_ptr_emplaceI11ExprWrapperI12QuotientExprENS1_IS5_EEEEEEED1B8ue170006Ev, symObjAddr: 0xA7C8, symBinAddr: 0x10000BC6C, symSize: 0x6C }
  - { offsetInCU: 0x1C35C, offset: 0x1C35C, size: 0x8, addend: 0x0, symName: __ZNSt3__120__shared_ptr_emplaceI11ExprWrapperI12QuotientExprENS_9allocatorIS3_EEE11__get_allocB8ue170006Ev, symObjAddr: 0xAA04, symBinAddr: 0x10000BEA8, symSize: 0xC8 }
  - { offsetInCU: 0x1C383, offset: 0x1C383, size: 0x8, addend: 0x0, symName: __ZN11ExprWrapperI12QuotientExprEC2IJRKNSt3__110shared_ptrIK12IExprWrapperEES9_EEEDpOT_, symObjAddr: 0xAEE4, symBinAddr: 0x10000C388, symSize: 0xBC }
  - { offsetInCU: 0x1C47E, offset: 0x1C47E, size: 0x8, addend: 0x0, symName: __ZNSt3__120__shared_ptr_emplaceI11ExprWrapperI12QuotientExprENS_9allocatorIS3_EEED1Ev, symObjAddr: 0xAACC, symBinAddr: 0x10000BF70, symSize: 0x80 }
  - { offsetInCU: 0x1C4F1, offset: 0x1C4F1, size: 0x8, addend: 0x0, symName: __ZNSt3__120__shared_ptr_emplaceI11ExprWrapperI12QuotientExprENS_9allocatorIS3_EEED0Ev, symObjAddr: 0xAB4C, symBinAddr: 0x10000BFF0, symSize: 0x8C }
  - { offsetInCU: 0x1C592, offset: 0x1C592, size: 0x8, addend: 0x0, symName: __ZNSt3__120__shared_ptr_emplaceI11ExprWrapperI12QuotientExprENS_9allocatorIS3_EEE16__on_zero_sharedEv, symObjAddr: 0xABD8, symBinAddr: 0x10000C07C, symSize: 0x1D4 }
  - { offsetInCU: 0x1C66A, offset: 0x1C66A, size: 0x8, addend: 0x0, symName: __ZNSt3__120__shared_ptr_emplaceI11ExprWrapperI12QuotientExprENS_9allocatorIS3_EEE21__on_zero_shared_weakEv, symObjAddr: 0xADAC, symBinAddr: 0x10000C250, symSize: 0x138 }
  - { offsetInCU: 0x1C7F1, offset: 0x1C7F1, size: 0x8, addend: 0x0, symName: __ZN11ExprWrapperI12QuotientExprED1Ev, symObjAddr: 0xAFA0, symBinAddr: 0x10000C444, symSize: 0xB4 }
  - { offsetInCU: 0x1C8C4, offset: 0x1C8C4, size: 0x8, addend: 0x0, symName: __ZN11ExprWrapperI12QuotientExprED0Ev, symObjAddr: 0xB054, symBinAddr: 0x10000C4F8, symSize: 0xB4 }
  - { offsetInCU: 0x1C99C, offset: 0x1C99C, size: 0x8, addend: 0x0, symName: __ZNK11ExprWrapperI12QuotientExprE5printERNSt3__113basic_ostreamIcNS2_11char_traitsIcEEEE, symObjAddr: 0xB108, symBinAddr: 0x10000C5AC, symSize: 0xD4 }
  - { offsetInCU: 0x1C9E1, offset: 0x1C9E1, size: 0x8, addend: 0x0, symName: __ZNK12QuotientExpr5printERNSt3__113basic_ostreamIcNS0_11char_traitsIcEEEE, symObjAddr: 0xB454, symBinAddr: 0x10000C8F8, symSize: 0x2D4 }
  - { offsetInCU: 0x1CBE6, offset: 0x1CBE6, size: 0x8, addend: 0x0, symName: __ZNK11ExprWrapperI12QuotientExprE8strengthEv, symObjAddr: 0xB1DC, symBinAddr: 0x10000C680, symSize: 0xC8 }
  - { offsetInCU: 0x1CC0D, offset: 0x1CC0D, size: 0x8, addend: 0x0, symName: __ZNK11ExprWrapperI12QuotientExprE18partial_derivativeERKNSt3__117basic_string_viewIcNS2_11char_traitsIcEEEE, symObjAddr: 0xB2A4, symBinAddr: 0x10000C748, symSize: 0xDC }
  - { offsetInCU: 0x1CC52, offset: 0x1CC52, size: 0x8, addend: 0x0, symName: __ZNK12QuotientExpr18partial_derivativeERKNSt3__117basic_string_viewIcNS0_11char_traitsIcEEEE, symObjAddr: 0xB728, symBinAddr: 0x10000CBCC, symSize: 0x864 }
  - { offsetInCU: 0x1D2AF, offset: 0x1D2AF, size: 0x8, addend: 0x0, symName: __ZNK11ExprWrapperI12QuotientExprE13get_all_namesERNSt3__113unordered_setINS2_17basic_string_viewIcNS2_11char_traitsIcEEEENS2_4hashIS7_EENS2_8equal_toIS7_EENS2_9allocatorIS7_EEEE, symObjAddr: 0xB380, symBinAddr: 0x10000C824, symSize: 0xD4 }
  - { offsetInCU: 0x1D2F4, offset: 0x1D2F4, size: 0x8, addend: 0x0, symName: __ZNK12QuotientExpr13get_all_namesERNSt3__113unordered_setINS0_17basic_string_viewIcNS0_11char_traitsIcEEEENS0_4hashIS5_EENS0_8equal_toIS5_EENS0_9allocatorIS5_EEEE, symObjAddr: 0xBF8C, symBinAddr: 0x10000D430, symSize: 0x22C }
  - { offsetInCU: 0x1D607, offset: 0x1D607, size: 0x8, addend: 0x0, symName: __ZNSt3__120__shared_ptr_emplaceI13ParserWrapperI12ConcatParserENS_9allocatorIS3_EEEC2B8ue170006IJRK6ParserSA_EEES5_DpOT_, symObjAddr: 0xC74C, symBinAddr: 0x10000DBF0, symSize: 0x1D0 }
  - { offsetInCU: 0x1D7BC, offset: 0x1D7BC, size: 0x8, addend: 0x0, symName: __ZNSt3__120__shared_ptr_emplaceI13ParserWrapperI12ConcatParserENS_9allocatorIS3_EEE10__get_elemB8ue170006Ev, symObjAddr: 0xC618, symBinAddr: 0x10000DABC, symSize: 0xC8 }
  - { offsetInCU: 0x1D7E3, offset: 0x1D7E3, size: 0x8, addend: 0x0, symName: __ZNSt3__118__allocation_guardINS_9allocatorINS_20__shared_ptr_emplaceI13ParserWrapperI12ConcatParserENS1_IS5_EEEEEEED1B8ue170006Ev, symObjAddr: 0xC6E0, symBinAddr: 0x10000DB84, symSize: 0x6C }
  - { offsetInCU: 0x1D998, offset: 0x1D998, size: 0x8, addend: 0x0, symName: __ZNSt3__120__shared_ptr_emplaceI13ParserWrapperI12ConcatParserENS_9allocatorIS3_EEE11__get_allocB8ue170006Ev, symObjAddr: 0xC91C, symBinAddr: 0x10000DDC0, symSize: 0xC8 }
  - { offsetInCU: 0x1D9BF, offset: 0x1D9BF, size: 0x8, addend: 0x0, symName: __ZN13ParserWrapperI12ConcatParserEC2IJRK6ParserS5_EEEDpOT_, symObjAddr: 0xCDFC, symBinAddr: 0x10000E2A0, symSize: 0xBC }
  - { offsetInCU: 0x1DB50, offset: 0x1DB50, size: 0x8, addend: 0x0, symName: __ZNSt3__120__shared_ptr_emplaceI13ParserWrapperI12ConcatParserENS_9allocatorIS3_EEED1Ev, symObjAddr: 0xC9E4, symBinAddr: 0x10000DE88, symSize: 0x80 }
  - { offsetInCU: 0x1DBC3, offset: 0x1DBC3, size: 0x8, addend: 0x0, symName: __ZNSt3__120__shared_ptr_emplaceI13ParserWrapperI12ConcatParserENS_9allocatorIS3_EEED0Ev, symObjAddr: 0xCA64, symBinAddr: 0x10000DF08, symSize: 0x8C }
  - { offsetInCU: 0x1DC64, offset: 0x1DC64, size: 0x8, addend: 0x0, symName: __ZNSt3__120__shared_ptr_emplaceI13ParserWrapperI12ConcatParserENS_9allocatorIS3_EEE16__on_zero_sharedEv, symObjAddr: 0xCAF0, symBinAddr: 0x10000DF94, symSize: 0x1D4 }
  - { offsetInCU: 0x1DD3C, offset: 0x1DD3C, size: 0x8, addend: 0x0, symName: __ZNSt3__120__shared_ptr_emplaceI13ParserWrapperI12ConcatParserENS_9allocatorIS3_EEE21__on_zero_shared_weakEv, symObjAddr: 0xCCC4, symBinAddr: 0x10000E168, symSize: 0x138 }
  - { offsetInCU: 0x1DECD, offset: 0x1DECD, size: 0x8, addend: 0x0, symName: __ZNSt3__110shared_ptrI14IParserWrapperI6ParserEEC2B8ue170006ERKS4_, symObjAddr: 0xD100, symBinAddr: 0x10000E5A4, symSize: 0x1C4 }
  - { offsetInCU: 0x1DF89, offset: 0x1DF89, size: 0x8, addend: 0x0, symName: __ZN13ParserWrapperI12ConcatParserED1Ev, symObjAddr: 0xCEB8, symBinAddr: 0x10000E35C, symSize: 0xB4 }
  - { offsetInCU: 0x1E0D6, offset: 0x1E0D6, size: 0x8, addend: 0x0, symName: __ZN13ParserWrapperI12ConcatParserED0Ev, symObjAddr: 0xCF6C, symBinAddr: 0x10000E410, symSize: 0xB4 }
  - { offsetInCU: 0x1E229, offset: 0x1E229, size: 0x8, addend: 0x0, symName: __ZN13ParserWrapperI12ConcatParserE10parse_implERPKcS3_, symObjAddr: 0xD020, symBinAddr: 0x10000E4C4, symSize: 0xE0 }
  - { offsetInCU: 0x1E27E, offset: 0x1E27E, size: 0x8, addend: 0x0, symName: __ZN12ConcatParser10parse_implERPKcS1_, symObjAddr: 0xD2C4, symBinAddr: 0x10000E768, symSize: 0xF0 }
  - { offsetInCU: 0x1E5A1, offset: 0x1E5A1, size: 0x8, addend: 0x0, symName: __ZNSt3__120__shared_ptr_emplaceI13ParserWrapperI17AlternativeParserENS_9allocatorIS3_EEEC2B8ue170006IJRK6ParserSA_EEES5_DpOT_, symObjAddr: 0xD948, symBinAddr: 0x10000EDEC, symSize: 0x1D0 }
  - { offsetInCU: 0x1E756, offset: 0x1E756, size: 0x8, addend: 0x0, symName: __ZNSt3__120__shared_ptr_emplaceI13ParserWrapperI17AlternativeParserENS_9allocatorIS3_EEE10__get_elemB8ue170006Ev, symObjAddr: 0xD814, symBinAddr: 0x10000ECB8, symSize: 0xC8 }
  - { offsetInCU: 0x1E77D, offset: 0x1E77D, size: 0x8, addend: 0x0, symName: __ZNSt3__118__allocation_guardINS_9allocatorINS_20__shared_ptr_emplaceI13ParserWrapperI17AlternativeParserENS1_IS5_EEEEEEED1B8ue170006Ev, symObjAddr: 0xD8DC, symBinAddr: 0x10000ED80, symSize: 0x6C }
  - { offsetInCU: 0x1E932, offset: 0x1E932, size: 0x8, addend: 0x0, symName: __ZNSt3__120__shared_ptr_emplaceI13ParserWrapperI17AlternativeParserENS_9allocatorIS3_EEE11__get_allocB8ue170006Ev, symObjAddr: 0xDB18, symBinAddr: 0x10000EFBC, symSize: 0xC8 }
  - { offsetInCU: 0x1E959, offset: 0x1E959, size: 0x8, addend: 0x0, symName: __ZN13ParserWrapperI17AlternativeParserEC2IJRK6ParserS5_EEEDpOT_, symObjAddr: 0xDFF8, symBinAddr: 0x10000F49C, symSize: 0xBC }
  - { offsetInCU: 0x1EAEA, offset: 0x1EAEA, size: 0x8, addend: 0x0, symName: __ZNSt3__120__shared_ptr_emplaceI13ParserWrapperI17AlternativeParserENS_9allocatorIS3_EEED1Ev, symObjAddr: 0xDBE0, symBinAddr: 0x10000F084, symSize: 0x80 }
  - { offsetInCU: 0x1EB5D, offset: 0x1EB5D, size: 0x8, addend: 0x0, symName: __ZNSt3__120__shared_ptr_emplaceI13ParserWrapperI17AlternativeParserENS_9allocatorIS3_EEED0Ev, symObjAddr: 0xDC60, symBinAddr: 0x10000F104, symSize: 0x8C }
  - { offsetInCU: 0x1EBFE, offset: 0x1EBFE, size: 0x8, addend: 0x0, symName: __ZNSt3__120__shared_ptr_emplaceI13ParserWrapperI17AlternativeParserENS_9allocatorIS3_EEE16__on_zero_sharedEv, symObjAddr: 0xDCEC, symBinAddr: 0x10000F190, symSize: 0x1D4 }
  - { offsetInCU: 0x1ECD6, offset: 0x1ECD6, size: 0x8, addend: 0x0, symName: __ZNSt3__120__shared_ptr_emplaceI13ParserWrapperI17AlternativeParserENS_9allocatorIS3_EEE21__on_zero_shared_weakEv, symObjAddr: 0xDEC0, symBinAddr: 0x10000F364, symSize: 0x138 }
  - { offsetInCU: 0x1EE5A, offset: 0x1EE5A, size: 0x8, addend: 0x0, symName: __ZN13ParserWrapperI17AlternativeParserED1Ev, symObjAddr: 0xE0B4, symBinAddr: 0x10000F558, symSize: 0xB4 }
  - { offsetInCU: 0x1EFA7, offset: 0x1EFA7, size: 0x8, addend: 0x0, symName: __ZN13ParserWrapperI17AlternativeParserED0Ev, symObjAddr: 0xE168, symBinAddr: 0x10000F60C, symSize: 0xB4 }
  - { offsetInCU: 0x1F0FA, offset: 0x1F0FA, size: 0x8, addend: 0x0, symName: __ZN13ParserWrapperI17AlternativeParserE10parse_implERPKcS3_, symObjAddr: 0xE21C, symBinAddr: 0x10000F6C0, symSize: 0xE0 }
  - { offsetInCU: 0x1F14F, offset: 0x1F14F, size: 0x8, addend: 0x0, symName: __ZN17AlternativeParser10parse_implERPKcS1_, symObjAddr: 0xE2FC, symBinAddr: 0x10000F7A0, symSize: 0xF0 }
  - { offsetInCU: 0x1F461, offset: 0x1F461, size: 0x8, addend: 0x0, symName: __ZNSt3__120__shared_ptr_emplaceI13ParserWrapperI10StarParserENS_9allocatorIS3_EEEC2B8ue170006IJRK6ParserEEES5_DpOT_, symObjAddr: 0xE978, symBinAddr: 0x10000FE1C, symSize: 0x204 }
  - { offsetInCU: 0x1F66E, offset: 0x1F66E, size: 0x8, addend: 0x0, symName: __ZNSt3__120__shared_ptr_emplaceI13ParserWrapperI10StarParserENS_9allocatorIS3_EEE10__get_elemB8ue170006Ev, symObjAddr: 0xE844, symBinAddr: 0x10000FCE8, symSize: 0xC8 }
  - { offsetInCU: 0x1F695, offset: 0x1F695, size: 0x8, addend: 0x0, symName: __ZNSt3__118__allocation_guardINS_9allocatorINS_20__shared_ptr_emplaceI13ParserWrapperI10StarParserENS1_IS5_EEEEEEED1B8ue170006Ev, symObjAddr: 0xE90C, symBinAddr: 0x10000FDB0, symSize: 0x6C }
  - { offsetInCU: 0x1F859, offset: 0x1F859, size: 0x8, addend: 0x0, symName: __ZNSt3__120__shared_ptr_emplaceI13ParserWrapperI10StarParserENS_9allocatorIS3_EEE11__get_allocB8ue170006Ev, symObjAddr: 0xEB7C, symBinAddr: 0x100010020, symSize: 0xC8 }
  - { offsetInCU: 0x1F8B7, offset: 0x1F8B7, size: 0x8, addend: 0x0, symName: __ZNSt3__120__shared_ptr_emplaceI13ParserWrapperI10StarParserENS_9allocatorIS3_EEED1Ev, symObjAddr: 0xEC44, symBinAddr: 0x1000100E8, symSize: 0x80 }
  - { offsetInCU: 0x1F92A, offset: 0x1F92A, size: 0x8, addend: 0x0, symName: __ZNSt3__120__shared_ptr_emplaceI13ParserWrapperI10StarParserENS_9allocatorIS3_EEED0Ev, symObjAddr: 0xECC4, symBinAddr: 0x100010168, symSize: 0x8C }
  - { offsetInCU: 0x1F9CB, offset: 0x1F9CB, size: 0x8, addend: 0x0, symName: __ZNSt3__120__shared_ptr_emplaceI13ParserWrapperI10StarParserENS_9allocatorIS3_EEE16__on_zero_sharedEv, symObjAddr: 0xED50, symBinAddr: 0x1000101F4, symSize: 0x1D4 }
  - { offsetInCU: 0x1FAA3, offset: 0x1FAA3, size: 0x8, addend: 0x0, symName: __ZNSt3__120__shared_ptr_emplaceI13ParserWrapperI10StarParserENS_9allocatorIS3_EEE21__on_zero_shared_weakEv, symObjAddr: 0xEF24, symBinAddr: 0x1000103C8, symSize: 0x138 }
  - { offsetInCU: 0x1FC29, offset: 0x1FC29, size: 0x8, addend: 0x0, symName: __ZN13ParserWrapperI10StarParserED1Ev, symObjAddr: 0xF05C, symBinAddr: 0x100010500, symSize: 0x90 }
  - { offsetInCU: 0x1FD17, offset: 0x1FD17, size: 0x8, addend: 0x0, symName: __ZN13ParserWrapperI10StarParserED0Ev, symObjAddr: 0xF0EC, symBinAddr: 0x100010590, symSize: 0x90 }
  - { offsetInCU: 0x1FE39, offset: 0x1FE39, size: 0x8, addend: 0x0, symName: __ZN13ParserWrapperI10StarParserE10parse_implERPKcS3_, symObjAddr: 0xF17C, symBinAddr: 0x100010620, symSize: 0x138 }
  - { offsetInCU: 0x20113, offset: 0x20113, size: 0x8, addend: 0x0, symName: __ZNSt3__120__shared_ptr_emplaceI11ExprWrapperI7VarExprENS_9allocatorIS3_EEEC2B8ue170006IJRA4_KcEEES5_DpOT_, symObjAddr: 0xF840, symBinAddr: 0x100010CE4, symSize: 0x244 }
  - { offsetInCU: 0x2032E, offset: 0x2032E, size: 0x8, addend: 0x0, symName: __ZNSt3__120__shared_ptr_emplaceI11ExprWrapperI7VarExprENS_9allocatorIS3_EEE10__get_elemB8ue170006Ev, symObjAddr: 0xF70C, symBinAddr: 0x100010BB0, symSize: 0xC8 }
  - { offsetInCU: 0x20355, offset: 0x20355, size: 0x8, addend: 0x0, symName: __ZNSt3__118__allocation_guardINS_9allocatorINS_20__shared_ptr_emplaceI11ExprWrapperI7VarExprENS1_IS5_EEEEEEED1B8ue170006Ev, symObjAddr: 0xF7D4, symBinAddr: 0x100010C78, symSize: 0x6C }
  - { offsetInCU: 0x20530, offset: 0x20530, size: 0x8, addend: 0x0, symName: __ZNSt3__120__shared_ptr_emplaceI11ExprWrapperI7VarExprENS_9allocatorIS3_EEE11__get_allocB8ue170006Ev, symObjAddr: 0xFA84, symBinAddr: 0x100010F28, symSize: 0xC8 }
  - { offsetInCU: 0x2058E, offset: 0x2058E, size: 0x8, addend: 0x0, symName: __ZNSt3__120__shared_ptr_emplaceI11ExprWrapperI7VarExprENS_9allocatorIS3_EEED1Ev, symObjAddr: 0xFB4C, symBinAddr: 0x100010FF0, symSize: 0x80 }
  - { offsetInCU: 0x20601, offset: 0x20601, size: 0x8, addend: 0x0, symName: __ZNSt3__120__shared_ptr_emplaceI11ExprWrapperI7VarExprENS_9allocatorIS3_EEED0Ev, symObjAddr: 0xFBCC, symBinAddr: 0x100011070, symSize: 0x8C }
  - { offsetInCU: 0x206A2, offset: 0x206A2, size: 0x8, addend: 0x0, symName: __ZNSt3__120__shared_ptr_emplaceI11ExprWrapperI7VarExprENS_9allocatorIS3_EEE16__on_zero_sharedEv, symObjAddr: 0xFC58, symBinAddr: 0x1000110FC, symSize: 0x1D4 }
  - { offsetInCU: 0x2077A, offset: 0x2077A, size: 0x8, addend: 0x0, symName: __ZNSt3__120__shared_ptr_emplaceI11ExprWrapperI7VarExprENS_9allocatorIS3_EEE21__on_zero_shared_weakEv, symObjAddr: 0xFE2C, symBinAddr: 0x1000112D0, symSize: 0x138 }
  - { offsetInCU: 0x208A3, offset: 0x208A3, size: 0x8, addend: 0x0, symName: __ZN11ExprWrapperI7VarExprED1Ev, symObjAddr: 0xFF64, symBinAddr: 0x100011408, symSize: 0x30 }
  - { offsetInCU: 0x208D0, offset: 0x208D0, size: 0x8, addend: 0x0, symName: __ZN11ExprWrapperI7VarExprED0Ev, symObjAddr: 0xFF94, symBinAddr: 0x100011438, symSize: 0x30 }
  - { offsetInCU: 0x20924, offset: 0x20924, size: 0x8, addend: 0x0, symName: __ZNK11ExprWrapperI7VarExprE5printERNSt3__113basic_ostreamIcNS2_11char_traitsIcEEEE, symObjAddr: 0xFFC4, symBinAddr: 0x100011468, symSize: 0x124 }
  - { offsetInCU: 0x209A6, offset: 0x209A6, size: 0x8, addend: 0x0, symName: __ZNK11ExprWrapperI7VarExprE8strengthEv, symObjAddr: 0x100E8, symBinAddr: 0x10001158C, symSize: 0xC8 }
  - { offsetInCU: 0x20A51, offset: 0x20A51, size: 0x8, addend: 0x0, symName: __ZNK11ExprWrapperI7VarExprE18partial_derivativeERKNSt3__117basic_string_viewIcNS2_11char_traitsIcEEEE, symObjAddr: 0x101B0, symBinAddr: 0x100011654, symSize: 0x2E0 }
  - { offsetInCU: 0x20B20, offset: 0x20B20, size: 0x8, addend: 0x0, symName: __Z9make_exprI7ValExprJdEENSt3__110shared_ptrIK12IExprWrapperEEDpOT0_, symObjAddr: 0x10584, symBinAddr: 0x100011A28, symSize: 0x230 }
  - { offsetInCU: 0x20CFA, offset: 0x20CFA, size: 0x8, addend: 0x0, symName: __ZNK11ExprWrapperI7VarExprE13get_all_namesERNSt3__113unordered_setINS2_17basic_string_viewIcNS2_11char_traitsIcEEEENS2_4hashIS7_EENS2_8equal_toIS7_EENS2_9allocatorIS7_EEEE, symObjAddr: 0x10490, symBinAddr: 0x100011934, symSize: 0xF4 }
  - { offsetInCU: 0x20DBE, offset: 0x20DBE, size: 0x8, addend: 0x0, symName: __ZNSt3__112__hash_tableINS_17basic_string_viewIcNS_11char_traitsIcEEEENS_4hashIS4_EENS_8equal_toIS4_EENS_9allocatorIS4_EEE25__emplace_unique_key_argsIS4_JRKS4_EEENS_4pairINS_15__hash_iteratorIPNS_11__hash_nodeIS4_PvEEEEbEERKT_DpOT0_, symObjAddr: 0x119F8, symBinAddr: 0x100012E9C, symSize: 0xD98 }
  - { offsetInCU: 0x213AA, offset: 0x213AA, size: 0x8, addend: 0x0, symName: __ZNSt3__110shared_ptrI11ExprWrapperI7ValExprEED2B8ue170006Ev, symObjAddr: 0x118FC, symBinAddr: 0x100012DA0, symSize: 0xFC }
  - { offsetInCU: 0x21615, offset: 0x21615, size: 0x8, addend: 0x0, symName: __ZNSt3__120__shared_ptr_emplaceI11ExprWrapperI7ValExprENS_9allocatorIS3_EEEC2B8ue170006IJdEEES5_DpOT_, symObjAddr: 0x10C44, symBinAddr: 0x1000120E8, symSize: 0x21C }
  - { offsetInCU: 0x2179B, offset: 0x2179B, size: 0x8, addend: 0x0, symName: __ZNSt3__120__shared_ptr_emplaceI11ExprWrapperI7ValExprENS_9allocatorIS3_EEE10__get_elemB8ue170006Ev, symObjAddr: 0x10B10, symBinAddr: 0x100011FB4, symSize: 0xC8 }
  - { offsetInCU: 0x217C2, offset: 0x217C2, size: 0x8, addend: 0x0, symName: __ZNSt3__118__allocation_guardINS_9allocatorINS_20__shared_ptr_emplaceI11ExprWrapperI7ValExprENS1_IS5_EEEEEEED1B8ue170006Ev, symObjAddr: 0x10BD8, symBinAddr: 0x10001207C, symSize: 0x6C }
  - { offsetInCU: 0x2198A, offset: 0x2198A, size: 0x8, addend: 0x0, symName: __ZNSt3__120__shared_ptr_emplaceI11ExprWrapperI7ValExprENS_9allocatorIS3_EEE11__get_allocB8ue170006Ev, symObjAddr: 0x10E60, symBinAddr: 0x100012304, symSize: 0xC8 }
  - { offsetInCU: 0x219E8, offset: 0x219E8, size: 0x8, addend: 0x0, symName: __ZNSt3__120__shared_ptr_emplaceI11ExprWrapperI7ValExprENS_9allocatorIS3_EEED1Ev, symObjAddr: 0x10F28, symBinAddr: 0x1000123CC, symSize: 0x80 }
  - { offsetInCU: 0x21A5B, offset: 0x21A5B, size: 0x8, addend: 0x0, symName: __ZNSt3__120__shared_ptr_emplaceI11ExprWrapperI7ValExprENS_9allocatorIS3_EEED0Ev, symObjAddr: 0x10FA8, symBinAddr: 0x10001244C, symSize: 0x8C }
  - { offsetInCU: 0x21AFC, offset: 0x21AFC, size: 0x8, addend: 0x0, symName: __ZNSt3__120__shared_ptr_emplaceI11ExprWrapperI7ValExprENS_9allocatorIS3_EEE16__on_zero_sharedEv, symObjAddr: 0x11034, symBinAddr: 0x1000124D8, symSize: 0x1D4 }
  - { offsetInCU: 0x21BD4, offset: 0x21BD4, size: 0x8, addend: 0x0, symName: __ZNSt3__120__shared_ptr_emplaceI11ExprWrapperI7ValExprENS_9allocatorIS3_EEE21__on_zero_shared_weakEv, symObjAddr: 0x11208, symBinAddr: 0x1000126AC, symSize: 0x138 }
  - { offsetInCU: 0x21CFD, offset: 0x21CFD, size: 0x8, addend: 0x0, symName: __ZN11ExprWrapperI7ValExprED1Ev, symObjAddr: 0x11340, symBinAddr: 0x1000127E4, symSize: 0x30 }
  - { offsetInCU: 0x21D2A, offset: 0x21D2A, size: 0x8, addend: 0x0, symName: __ZN11ExprWrapperI7ValExprED0Ev, symObjAddr: 0x11370, symBinAddr: 0x100012814, symSize: 0x30 }
  - { offsetInCU: 0x21D57, offset: 0x21D57, size: 0x8, addend: 0x0, symName: __ZNK11ExprWrapperI7ValExprE5printERNSt3__113basic_ostreamIcNS2_11char_traitsIcEEEE, symObjAddr: 0x113A0, symBinAddr: 0x100012844, symSize: 0xD4 }
  - { offsetInCU: 0x21D9C, offset: 0x21D9C, size: 0x8, addend: 0x0, symName: __ZNK7ValExpr5printERNSt3__113basic_ostreamIcNS0_11char_traitsIcEEEE, symObjAddr: 0x11818, symBinAddr: 0x100012CBC, symSize: 0xE4 }
  - { offsetInCU: 0x21DD3, offset: 0x21DD3, size: 0x8, addend: 0x0, symName: __ZNK11ExprWrapperI7ValExprE8strengthEv, symObjAddr: 0x11474, symBinAddr: 0x100012918, symSize: 0xC8 }
  - { offsetInCU: 0x21E1E, offset: 0x21E1E, size: 0x8, addend: 0x0, symName: __ZNK11ExprWrapperI7ValExprE18partial_derivativeERKNSt3__117basic_string_viewIcNS2_11char_traitsIcEEEE, symObjAddr: 0x1153C, symBinAddr: 0x1000129E0, symSize: 0x218 }
  - { offsetInCU: 0x21E71, offset: 0x21E71, size: 0x8, addend: 0x0, symName: __ZNK11ExprWrapperI7ValExprE13get_all_namesERNSt3__113unordered_setINS2_17basic_string_viewIcNS2_11char_traitsIcEEEENS2_4hashIS7_EENS2_8equal_toIS7_EENS2_9allocatorIS7_EEEE, symObjAddr: 0x11754, symBinAddr: 0x100012BF8, symSize: 0xC4 }
  - { offsetInCU: 0x220BA, offset: 0x220BA, size: 0x8, addend: 0x0, symName: __ZNKSt3__121__murmur2_or_cityhashImLm64EEclB8ue170006EPKvm, symObjAddr: 0x129DC, symBinAddr: 0x100013E80, symSize: 0xD14 }
  - { offsetInCU: 0x224E8, offset: 0x224E8, size: 0x8, addend: 0x0, symName: __ZNSt3__112__hash_tableINS_17basic_string_viewIcNS_11char_traitsIcEEEENS_4hashIS4_EENS_8equal_toIS4_EENS_9allocatorIS4_EEE21__construct_node_hashIRKS4_JEEENS_10unique_ptrINS_11__hash_nodeIS4_PvEENS_22__hash_node_destructorINS9_ISI_EEEEEEmOT_DpOT0_, symObjAddr: 0x12790, symBinAddr: 0x100013C34, symSize: 0x1BC }
  - { offsetInCU: 0x226EF, offset: 0x226EF, size: 0x8, addend: 0x0, symName: __ZNSt3__112__hash_tableINS_17basic_string_viewIcNS_11char_traitsIcEEEENS_4hashIS4_EENS_8equal_toIS4_EENS_9allocatorIS4_EEE8__rehashILb1EEEvm, symObjAddr: 0x14250, symBinAddr: 0x1000156F4, symSize: 0x28C }
  - { offsetInCU: 0x228AF, offset: 0x228AF, size: 0x8, addend: 0x0, symName: __ZNSt3__110unique_ptrINS_11__hash_nodeINS_17basic_string_viewIcNS_11char_traitsIcEEEEPvEENS_22__hash_node_destructorINS_9allocatorIS7_EEEEED1B8ue170006Ev, symObjAddr: 0x1294C, symBinAddr: 0x100013DF0, symSize: 0x90 }
  - { offsetInCU: 0x22B96, offset: 0x22B96, size: 0x8, addend: 0x0, symName: __ZNSt3__122__hash_node_destructorINS_9allocatorINS_11__hash_nodeINS_17basic_string_viewIcNS_11char_traitsIcEEEEPvEEEEEclB8ue170006EPS8_, symObjAddr: 0x14AC0, symBinAddr: 0x100015F64, symSize: 0x120 }
  - { offsetInCU: 0x22D75, offset: 0x22D75, size: 0x8, addend: 0x0, symName: __ZNSt3__121__murmur2_or_cityhashImLm64EE18__hash_len_0_to_16B8ue170006EPKcm, symObjAddr: 0x136F0, symBinAddr: 0x100014B94, symSize: 0x3B8 }
  - { offsetInCU: 0x22F4B, offset: 0x22F4B, size: 0x8, addend: 0x0, symName: __ZNSt3__121__murmur2_or_cityhashImLm64EE19__hash_len_33_to_64B8ue170006EPKcm, symObjAddr: 0x13D34, symBinAddr: 0x1000151D8, symSize: 0x51C }
  - { offsetInCU: 0x230FF, offset: 0x230FF, size: 0x8, addend: 0x0, symName: __ZNSt3__121__murmur2_or_cityhashImLm64EE19__hash_len_17_to_32B8ue170006EPKcm, symObjAddr: 0x13AA8, symBinAddr: 0x100014F4C, symSize: 0x28C }
  - { offsetInCU: 0x232B0, offset: 0x232B0, size: 0x8, addend: 0x0, symName: __ZNSt3__112__hash_tableINS_17basic_string_viewIcNS_11char_traitsIcEEEENS_4hashIS4_EENS_8equal_toIS4_EENS_9allocatorIS4_EEE11__do_rehashILb1EEEvm, symObjAddr: 0x144DC, symBinAddr: 0x100015980, symSize: 0x5E4 }
  - { offsetInCU: 0x23A2A, offset: 0x23A2A, size: 0x8, addend: 0x0, symName: __ZNSt3__120__shared_ptr_emplaceI13ParserWrapperI15CharRangeParserENS_9allocatorIS3_EEEC2B8ue170006IJccEEES5_DpOT_, symObjAddr: 0x15174, symBinAddr: 0x100016618, symSize: 0x290 }
  - { offsetInCU: 0x23BEA, offset: 0x23BEA, size: 0x8, addend: 0x0, symName: __ZNSt3__120__shared_ptr_emplaceI13ParserWrapperI15CharRangeParserENS_9allocatorIS3_EEE10__get_elemB8ue170006Ev, symObjAddr: 0x15040, symBinAddr: 0x1000164E4, symSize: 0xC8 }
  - { offsetInCU: 0x23C11, offset: 0x23C11, size: 0x8, addend: 0x0, symName: __ZNSt3__118__allocation_guardINS_9allocatorINS_20__shared_ptr_emplaceI13ParserWrapperI15CharRangeParserENS1_IS5_EEEEEEED1B8ue170006Ev, symObjAddr: 0x15108, symBinAddr: 0x1000165AC, symSize: 0x6C }
  - { offsetInCU: 0x23E08, offset: 0x23E08, size: 0x8, addend: 0x0, symName: __ZNSt3__120__shared_ptr_emplaceI13ParserWrapperI15CharRangeParserENS_9allocatorIS3_EEE11__get_allocB8ue170006Ev, symObjAddr: 0x15404, symBinAddr: 0x1000168A8, symSize: 0xC8 }
  - { offsetInCU: 0x23E66, offset: 0x23E66, size: 0x8, addend: 0x0, symName: __ZNSt3__120__shared_ptr_emplaceI13ParserWrapperI15CharRangeParserENS_9allocatorIS3_EEED1Ev, symObjAddr: 0x154CC, symBinAddr: 0x100016970, symSize: 0x80 }
  - { offsetInCU: 0x23ED9, offset: 0x23ED9, size: 0x8, addend: 0x0, symName: __ZNSt3__120__shared_ptr_emplaceI13ParserWrapperI15CharRangeParserENS_9allocatorIS3_EEED0Ev, symObjAddr: 0x1554C, symBinAddr: 0x1000169F0, symSize: 0x8C }
  - { offsetInCU: 0x23F7A, offset: 0x23F7A, size: 0x8, addend: 0x0, symName: __ZNSt3__120__shared_ptr_emplaceI13ParserWrapperI15CharRangeParserENS_9allocatorIS3_EEE16__on_zero_sharedEv, symObjAddr: 0x155D8, symBinAddr: 0x100016A7C, symSize: 0x1D4 }
  - { offsetInCU: 0x24052, offset: 0x24052, size: 0x8, addend: 0x0, symName: __ZNSt3__120__shared_ptr_emplaceI13ParserWrapperI15CharRangeParserENS_9allocatorIS3_EEE21__on_zero_shared_weakEv, symObjAddr: 0x157AC, symBinAddr: 0x100016C50, symSize: 0x138 }
  - { offsetInCU: 0x2417B, offset: 0x2417B, size: 0x8, addend: 0x0, symName: __ZN13ParserWrapperI15CharRangeParserED1Ev, symObjAddr: 0x158E4, symBinAddr: 0x100016D88, symSize: 0x30 }
  - { offsetInCU: 0x241A9, offset: 0x241A9, size: 0x8, addend: 0x0, symName: __ZN13ParserWrapperI15CharRangeParserED0Ev, symObjAddr: 0x15914, symBinAddr: 0x100016DB8, symSize: 0x30 }
  - { offsetInCU: 0x2420B, offset: 0x2420B, size: 0x8, addend: 0x0, symName: __ZN13ParserWrapperI15CharRangeParserE10parse_implERPKcS3_, symObjAddr: 0x15944, symBinAddr: 0x100016DE8, symSize: 0x1F0 }
...
